
obj/inframod.elf:     file format elf32-littlearm


Disassembly of section .text:

08000188 <__do_global_dtors_aux>:
 8000188:	b510      	push	{r4, lr}
 800018a:	4c05      	ldr	r4, [pc, #20]	; (80001a0 <__do_global_dtors_aux+0x18>)
 800018c:	7823      	ldrb	r3, [r4, #0]
 800018e:	b933      	cbnz	r3, 800019e <__do_global_dtors_aux+0x16>
 8000190:	4b04      	ldr	r3, [pc, #16]	; (80001a4 <__do_global_dtors_aux+0x1c>)
 8000192:	b113      	cbz	r3, 800019a <__do_global_dtors_aux+0x12>
 8000194:	4804      	ldr	r0, [pc, #16]	; (80001a8 <__do_global_dtors_aux+0x20>)
 8000196:	f3af 8000 	nop.w
 800019a:	2301      	movs	r3, #1
 800019c:	7023      	strb	r3, [r4, #0]
 800019e:	bd10      	pop	{r4, pc}
 80001a0:	20000440 	.word	0x20000440
 80001a4:	00000000 	.word	0x00000000
 80001a8:	0800b17c 	.word	0x0800b17c

080001ac <frame_dummy>:
 80001ac:	b508      	push	{r3, lr}
 80001ae:	4b06      	ldr	r3, [pc, #24]	; (80001c8 <frame_dummy+0x1c>)
 80001b0:	b11b      	cbz	r3, 80001ba <frame_dummy+0xe>
 80001b2:	4806      	ldr	r0, [pc, #24]	; (80001cc <frame_dummy+0x20>)
 80001b4:	4906      	ldr	r1, [pc, #24]	; (80001d0 <frame_dummy+0x24>)
 80001b6:	f3af 8000 	nop.w
 80001ba:	4806      	ldr	r0, [pc, #24]	; (80001d4 <frame_dummy+0x28>)
 80001bc:	6803      	ldr	r3, [r0, #0]
 80001be:	b113      	cbz	r3, 80001c6 <frame_dummy+0x1a>
 80001c0:	4b05      	ldr	r3, [pc, #20]	; (80001d8 <frame_dummy+0x2c>)
 80001c2:	b103      	cbz	r3, 80001c6 <frame_dummy+0x1a>
 80001c4:	4798      	blx	r3
 80001c6:	bd08      	pop	{r3, pc}
 80001c8:	00000000 	.word	0x00000000
 80001cc:	0800b17c 	.word	0x0800b17c
 80001d0:	20000444 	.word	0x20000444
 80001d4:	20000440 	.word	0x20000440
 80001d8:	00000000 	.word	0x00000000

080001dc <__aeabi_uldivmod>:
 80001dc:	b94b      	cbnz	r3, 80001f2 <__aeabi_uldivmod+0x16>
 80001de:	b942      	cbnz	r2, 80001f2 <__aeabi_uldivmod+0x16>
 80001e0:	2900      	cmp	r1, #0
 80001e2:	bf08      	it	eq
 80001e4:	2800      	cmpeq	r0, #0
 80001e6:	d002      	beq.n	80001ee <__aeabi_uldivmod+0x12>
 80001e8:	f04f 31ff 	mov.w	r1, #4294967295
 80001ec:	4608      	mov	r0, r1
 80001ee:	f000 b83b 	b.w	8000268 <__aeabi_idiv0>
 80001f2:	b082      	sub	sp, #8
 80001f4:	46ec      	mov	ip, sp
 80001f6:	e92d 5000 	stmdb	sp!, {ip, lr}
 80001fa:	f000 f81d 	bl	8000238 <__gnu_uldivmod_helper>
 80001fe:	f8dd e004 	ldr.w	lr, [sp, #4]
 8000202:	b002      	add	sp, #8
 8000204:	bc0c      	pop	{r2, r3}
 8000206:	4770      	bx	lr

08000208 <__gnu_ldivmod_helper>:
 8000208:	e92d 4370 	stmdb	sp!, {r4, r5, r6, r8, r9, lr}
 800020c:	9e06      	ldr	r6, [sp, #24]
 800020e:	4614      	mov	r4, r2
 8000210:	461d      	mov	r5, r3
 8000212:	4680      	mov	r8, r0
 8000214:	4689      	mov	r9, r1
 8000216:	f000 f829 	bl	800026c <__divdi3>
 800021a:	fb04 f301 	mul.w	r3, r4, r1
 800021e:	fb00 3305 	mla	r3, r0, r5, r3
 8000222:	fba4 4500 	umull	r4, r5, r4, r0
 8000226:	441d      	add	r5, r3
 8000228:	ebb8 0404 	subs.w	r4, r8, r4
 800022c:	eb69 0505 	sbc.w	r5, r9, r5
 8000230:	e9c6 4500 	strd	r4, r5, [r6]
 8000234:	e8bd 8370 	ldmia.w	sp!, {r4, r5, r6, r8, r9, pc}

08000238 <__gnu_uldivmod_helper>:
 8000238:	e92d 4370 	stmdb	sp!, {r4, r5, r6, r8, r9, lr}
 800023c:	9e06      	ldr	r6, [sp, #24]
 800023e:	4614      	mov	r4, r2
 8000240:	4680      	mov	r8, r0
 8000242:	4689      	mov	r9, r1
 8000244:	461d      	mov	r5, r3
 8000246:	f000 f95d 	bl	8000504 <__udivdi3>
 800024a:	fb00 f505 	mul.w	r5, r0, r5
 800024e:	fb04 5301 	mla	r3, r4, r1, r5
 8000252:	fba0 4504 	umull	r4, r5, r0, r4
 8000256:	441d      	add	r5, r3
 8000258:	ebb8 0404 	subs.w	r4, r8, r4
 800025c:	eb69 0505 	sbc.w	r5, r9, r5
 8000260:	e9c6 4500 	strd	r4, r5, [r6]
 8000264:	e8bd 8370 	ldmia.w	sp!, {r4, r5, r6, r8, r9, pc}

08000268 <__aeabi_idiv0>:
 8000268:	4770      	bx	lr
 800026a:	bf00      	nop

0800026c <__divdi3>:
 800026c:	2900      	cmp	r1, #0
 800026e:	e92d 0ff0 	stmdb	sp!, {r4, r5, r6, r7, r8, r9, sl, fp}
 8000272:	f2c0 809f 	blt.w	80003b4 <__divdi3+0x148>
 8000276:	2400      	movs	r4, #0
 8000278:	2b00      	cmp	r3, #0
 800027a:	f2c0 8096 	blt.w	80003aa <__divdi3+0x13e>
 800027e:	4615      	mov	r5, r2
 8000280:	4606      	mov	r6, r0
 8000282:	460f      	mov	r7, r1
 8000284:	2b00      	cmp	r3, #0
 8000286:	d13e      	bne.n	8000306 <__divdi3+0x9a>
 8000288:	428a      	cmp	r2, r1
 800028a:	d957      	bls.n	800033c <__divdi3+0xd0>
 800028c:	fab2 f382 	clz	r3, r2
 8000290:	b14b      	cbz	r3, 80002a6 <__divdi3+0x3a>
 8000292:	f1c3 0220 	rsb	r2, r3, #32
 8000296:	fa01 f703 	lsl.w	r7, r1, r3
 800029a:	fa20 f202 	lsr.w	r2, r0, r2
 800029e:	409d      	lsls	r5, r3
 80002a0:	4317      	orrs	r7, r2
 80002a2:	fa00 f603 	lsl.w	r6, r0, r3
 80002a6:	0c29      	lsrs	r1, r5, #16
 80002a8:	fbb7 f2f1 	udiv	r2, r7, r1
 80002ac:	0c33      	lsrs	r3, r6, #16
 80002ae:	fb01 7c12 	mls	ip, r1, r2, r7
 80002b2:	b2a8      	uxth	r0, r5
 80002b4:	ea43 470c 	orr.w	r7, r3, ip, lsl #16
 80002b8:	fb00 f302 	mul.w	r3, r0, r2
 80002bc:	42bb      	cmp	r3, r7
 80002be:	d909      	bls.n	80002d4 <__divdi3+0x68>
 80002c0:	197f      	adds	r7, r7, r5
 80002c2:	f102 3cff 	add.w	ip, r2, #4294967295
 80002c6:	f080 8101 	bcs.w	80004cc <__divdi3+0x260>
 80002ca:	42bb      	cmp	r3, r7
 80002cc:	f240 80fe 	bls.w	80004cc <__divdi3+0x260>
 80002d0:	3a02      	subs	r2, #2
 80002d2:	442f      	add	r7, r5
 80002d4:	1aff      	subs	r7, r7, r3
 80002d6:	fbb7 f3f1 	udiv	r3, r7, r1
 80002da:	b2b6      	uxth	r6, r6
 80002dc:	fb01 7113 	mls	r1, r1, r3, r7
 80002e0:	ea46 4101 	orr.w	r1, r6, r1, lsl #16
 80002e4:	fb00 f003 	mul.w	r0, r0, r3
 80002e8:	4288      	cmp	r0, r1
 80002ea:	d908      	bls.n	80002fe <__divdi3+0x92>
 80002ec:	1949      	adds	r1, r1, r5
 80002ee:	f103 37ff 	add.w	r7, r3, #4294967295
 80002f2:	f080 80ed 	bcs.w	80004d0 <__divdi3+0x264>
 80002f6:	4288      	cmp	r0, r1
 80002f8:	f240 80ea 	bls.w	80004d0 <__divdi3+0x264>
 80002fc:	3b02      	subs	r3, #2
 80002fe:	ea43 4202 	orr.w	r2, r3, r2, lsl #16
 8000302:	2300      	movs	r3, #0
 8000304:	e003      	b.n	800030e <__divdi3+0xa2>
 8000306:	428b      	cmp	r3, r1
 8000308:	d90a      	bls.n	8000320 <__divdi3+0xb4>
 800030a:	2300      	movs	r3, #0
 800030c:	461a      	mov	r2, r3
 800030e:	4610      	mov	r0, r2
 8000310:	4619      	mov	r1, r3
 8000312:	b114      	cbz	r4, 800031a <__divdi3+0xae>
 8000314:	4240      	negs	r0, r0
 8000316:	eb61 0141 	sbc.w	r1, r1, r1, lsl #1
 800031a:	e8bd 0ff0 	ldmia.w	sp!, {r4, r5, r6, r7, r8, r9, sl, fp}
 800031e:	4770      	bx	lr
 8000320:	fab3 f883 	clz	r8, r3
 8000324:	f1b8 0f00 	cmp.w	r8, #0
 8000328:	f040 8084 	bne.w	8000434 <__divdi3+0x1c8>
 800032c:	428b      	cmp	r3, r1
 800032e:	d302      	bcc.n	8000336 <__divdi3+0xca>
 8000330:	4282      	cmp	r2, r0
 8000332:	f200 80de 	bhi.w	80004f2 <__divdi3+0x286>
 8000336:	2300      	movs	r3, #0
 8000338:	2201      	movs	r2, #1
 800033a:	e7e8      	b.n	800030e <__divdi3+0xa2>
 800033c:	b912      	cbnz	r2, 8000344 <__divdi3+0xd8>
 800033e:	2301      	movs	r3, #1
 8000340:	fbb3 f5f2 	udiv	r5, r3, r2
 8000344:	fab5 f285 	clz	r2, r5
 8000348:	2a00      	cmp	r2, #0
 800034a:	d139      	bne.n	80003c0 <__divdi3+0x154>
 800034c:	1b7f      	subs	r7, r7, r5
 800034e:	0c28      	lsrs	r0, r5, #16
 8000350:	fa1f fc85 	uxth.w	ip, r5
 8000354:	2301      	movs	r3, #1
 8000356:	fbb7 f1f0 	udiv	r1, r7, r0
 800035a:	0c32      	lsrs	r2, r6, #16
 800035c:	fb00 7711 	mls	r7, r0, r1, r7
 8000360:	ea42 4707 	orr.w	r7, r2, r7, lsl #16
 8000364:	fb0c f201 	mul.w	r2, ip, r1
 8000368:	42ba      	cmp	r2, r7
 800036a:	d907      	bls.n	800037c <__divdi3+0x110>
 800036c:	197f      	adds	r7, r7, r5
 800036e:	f101 38ff 	add.w	r8, r1, #4294967295
 8000372:	d202      	bcs.n	800037a <__divdi3+0x10e>
 8000374:	42ba      	cmp	r2, r7
 8000376:	f200 80c1 	bhi.w	80004fc <__divdi3+0x290>
 800037a:	4641      	mov	r1, r8
 800037c:	1abf      	subs	r7, r7, r2
 800037e:	fbb7 f2f0 	udiv	r2, r7, r0
 8000382:	b2b6      	uxth	r6, r6
 8000384:	fb00 7012 	mls	r0, r0, r2, r7
 8000388:	ea46 4000 	orr.w	r0, r6, r0, lsl #16
 800038c:	fb0c fc02 	mul.w	ip, ip, r2
 8000390:	4584      	cmp	ip, r0
 8000392:	d907      	bls.n	80003a4 <__divdi3+0x138>
 8000394:	1940      	adds	r0, r0, r5
 8000396:	f102 37ff 	add.w	r7, r2, #4294967295
 800039a:	d202      	bcs.n	80003a2 <__divdi3+0x136>
 800039c:	4584      	cmp	ip, r0
 800039e:	f200 80ab 	bhi.w	80004f8 <__divdi3+0x28c>
 80003a2:	463a      	mov	r2, r7
 80003a4:	ea42 4201 	orr.w	r2, r2, r1, lsl #16
 80003a8:	e7b1      	b.n	800030e <__divdi3+0xa2>
 80003aa:	43e4      	mvns	r4, r4
 80003ac:	4252      	negs	r2, r2
 80003ae:	eb63 0343 	sbc.w	r3, r3, r3, lsl #1
 80003b2:	e764      	b.n	800027e <__divdi3+0x12>
 80003b4:	4240      	negs	r0, r0
 80003b6:	eb61 0141 	sbc.w	r1, r1, r1, lsl #1
 80003ba:	f04f 34ff 	mov.w	r4, #4294967295
 80003be:	e75b      	b.n	8000278 <__divdi3+0xc>
 80003c0:	4095      	lsls	r5, r2
 80003c2:	f1c2 0320 	rsb	r3, r2, #32
 80003c6:	fa27 f103 	lsr.w	r1, r7, r3
 80003ca:	0c28      	lsrs	r0, r5, #16
 80003cc:	fa26 f303 	lsr.w	r3, r6, r3
 80003d0:	4097      	lsls	r7, r2
 80003d2:	fbb1 f8f0 	udiv	r8, r1, r0
 80003d6:	431f      	orrs	r7, r3
 80003d8:	0c3b      	lsrs	r3, r7, #16
 80003da:	fb00 1118 	mls	r1, r0, r8, r1
 80003de:	fa1f fc85 	uxth.w	ip, r5
 80003e2:	ea43 4101 	orr.w	r1, r3, r1, lsl #16
 80003e6:	fb0c f308 	mul.w	r3, ip, r8
 80003ea:	428b      	cmp	r3, r1
 80003ec:	fa06 f602 	lsl.w	r6, r6, r2
 80003f0:	d908      	bls.n	8000404 <__divdi3+0x198>
 80003f2:	1949      	adds	r1, r1, r5
 80003f4:	f108 32ff 	add.w	r2, r8, #4294967295
 80003f8:	d279      	bcs.n	80004ee <__divdi3+0x282>
 80003fa:	428b      	cmp	r3, r1
 80003fc:	d977      	bls.n	80004ee <__divdi3+0x282>
 80003fe:	f1a8 0802 	sub.w	r8, r8, #2
 8000402:	4429      	add	r1, r5
 8000404:	1ac9      	subs	r1, r1, r3
 8000406:	fbb1 f3f0 	udiv	r3, r1, r0
 800040a:	b2bf      	uxth	r7, r7
 800040c:	fb00 1113 	mls	r1, r0, r3, r1
 8000410:	ea47 4701 	orr.w	r7, r7, r1, lsl #16
 8000414:	fb0c f203 	mul.w	r2, ip, r3
 8000418:	42ba      	cmp	r2, r7
 800041a:	d907      	bls.n	800042c <__divdi3+0x1c0>
 800041c:	197f      	adds	r7, r7, r5
 800041e:	f103 31ff 	add.w	r1, r3, #4294967295
 8000422:	d260      	bcs.n	80004e6 <__divdi3+0x27a>
 8000424:	42ba      	cmp	r2, r7
 8000426:	d95e      	bls.n	80004e6 <__divdi3+0x27a>
 8000428:	3b02      	subs	r3, #2
 800042a:	442f      	add	r7, r5
 800042c:	1abf      	subs	r7, r7, r2
 800042e:	ea43 4308 	orr.w	r3, r3, r8, lsl #16
 8000432:	e790      	b.n	8000356 <__divdi3+0xea>
 8000434:	f1c8 0220 	rsb	r2, r8, #32
 8000438:	fa03 fc08 	lsl.w	ip, r3, r8
 800043c:	fa25 f302 	lsr.w	r3, r5, r2
 8000440:	ea43 0c0c 	orr.w	ip, r3, ip
 8000444:	ea4f 491c 	mov.w	r9, ip, lsr #16
 8000448:	fa21 f302 	lsr.w	r3, r1, r2
 800044c:	fa01 f708 	lsl.w	r7, r1, r8
 8000450:	fa20 f202 	lsr.w	r2, r0, r2
 8000454:	fbb3 f1f9 	udiv	r1, r3, r9
 8000458:	4317      	orrs	r7, r2
 800045a:	fb09 3311 	mls	r3, r9, r1, r3
 800045e:	0c3a      	lsrs	r2, r7, #16
 8000460:	fa1f fb8c 	uxth.w	fp, ip
 8000464:	ea42 4303 	orr.w	r3, r2, r3, lsl #16
 8000468:	fb0b fa01 	mul.w	sl, fp, r1
 800046c:	459a      	cmp	sl, r3
 800046e:	fa05 f008 	lsl.w	r0, r5, r8
 8000472:	d908      	bls.n	8000486 <__divdi3+0x21a>
 8000474:	eb13 030c 	adds.w	r3, r3, ip
 8000478:	f101 32ff 	add.w	r2, r1, #4294967295
 800047c:	d235      	bcs.n	80004ea <__divdi3+0x27e>
 800047e:	459a      	cmp	sl, r3
 8000480:	d933      	bls.n	80004ea <__divdi3+0x27e>
 8000482:	3902      	subs	r1, #2
 8000484:	4463      	add	r3, ip
 8000486:	ebca 0303 	rsb	r3, sl, r3
 800048a:	fbb3 f2f9 	udiv	r2, r3, r9
 800048e:	fb09 3312 	mls	r3, r9, r2, r3
 8000492:	b2bf      	uxth	r7, r7
 8000494:	ea47 4703 	orr.w	r7, r7, r3, lsl #16
 8000498:	fb0b f902 	mul.w	r9, fp, r2
 800049c:	45b9      	cmp	r9, r7
 800049e:	d908      	bls.n	80004b2 <__divdi3+0x246>
 80004a0:	eb17 070c 	adds.w	r7, r7, ip
 80004a4:	f102 33ff 	add.w	r3, r2, #4294967295
 80004a8:	d21b      	bcs.n	80004e2 <__divdi3+0x276>
 80004aa:	45b9      	cmp	r9, r7
 80004ac:	d919      	bls.n	80004e2 <__divdi3+0x276>
 80004ae:	3a02      	subs	r2, #2
 80004b0:	4467      	add	r7, ip
 80004b2:	ea42 4501 	orr.w	r5, r2, r1, lsl #16
 80004b6:	fba5 0100 	umull	r0, r1, r5, r0
 80004ba:	ebc9 0707 	rsb	r7, r9, r7
 80004be:	428f      	cmp	r7, r1
 80004c0:	f04f 0300 	mov.w	r3, #0
 80004c4:	d30a      	bcc.n	80004dc <__divdi3+0x270>
 80004c6:	d005      	beq.n	80004d4 <__divdi3+0x268>
 80004c8:	462a      	mov	r2, r5
 80004ca:	e720      	b.n	800030e <__divdi3+0xa2>
 80004cc:	4662      	mov	r2, ip
 80004ce:	e701      	b.n	80002d4 <__divdi3+0x68>
 80004d0:	463b      	mov	r3, r7
 80004d2:	e714      	b.n	80002fe <__divdi3+0x92>
 80004d4:	fa06 f608 	lsl.w	r6, r6, r8
 80004d8:	4286      	cmp	r6, r0
 80004da:	d2f5      	bcs.n	80004c8 <__divdi3+0x25c>
 80004dc:	1e6a      	subs	r2, r5, #1
 80004de:	2300      	movs	r3, #0
 80004e0:	e715      	b.n	800030e <__divdi3+0xa2>
 80004e2:	461a      	mov	r2, r3
 80004e4:	e7e5      	b.n	80004b2 <__divdi3+0x246>
 80004e6:	460b      	mov	r3, r1
 80004e8:	e7a0      	b.n	800042c <__divdi3+0x1c0>
 80004ea:	4611      	mov	r1, r2
 80004ec:	e7cb      	b.n	8000486 <__divdi3+0x21a>
 80004ee:	4690      	mov	r8, r2
 80004f0:	e788      	b.n	8000404 <__divdi3+0x198>
 80004f2:	4643      	mov	r3, r8
 80004f4:	4642      	mov	r2, r8
 80004f6:	e70a      	b.n	800030e <__divdi3+0xa2>
 80004f8:	3a02      	subs	r2, #2
 80004fa:	e753      	b.n	80003a4 <__divdi3+0x138>
 80004fc:	3902      	subs	r1, #2
 80004fe:	442f      	add	r7, r5
 8000500:	e73c      	b.n	800037c <__divdi3+0x110>
 8000502:	bf00      	nop

08000504 <__udivdi3>:
 8000504:	e92d 0ff0 	stmdb	sp!, {r4, r5, r6, r7, r8, r9, sl, fp}
 8000508:	4614      	mov	r4, r2
 800050a:	4605      	mov	r5, r0
 800050c:	460e      	mov	r6, r1
 800050e:	2b00      	cmp	r3, #0
 8000510:	d143      	bne.n	800059a <__udivdi3+0x96>
 8000512:	428a      	cmp	r2, r1
 8000514:	d953      	bls.n	80005be <__udivdi3+0xba>
 8000516:	fab2 f782 	clz	r7, r2
 800051a:	b157      	cbz	r7, 8000532 <__udivdi3+0x2e>
 800051c:	f1c7 0620 	rsb	r6, r7, #32
 8000520:	fa20 f606 	lsr.w	r6, r0, r6
 8000524:	fa01 f307 	lsl.w	r3, r1, r7
 8000528:	fa02 f407 	lsl.w	r4, r2, r7
 800052c:	431e      	orrs	r6, r3
 800052e:	fa00 f507 	lsl.w	r5, r0, r7
 8000532:	0c21      	lsrs	r1, r4, #16
 8000534:	fbb6 f2f1 	udiv	r2, r6, r1
 8000538:	0c2b      	lsrs	r3, r5, #16
 800053a:	fb01 6712 	mls	r7, r1, r2, r6
 800053e:	b2a0      	uxth	r0, r4
 8000540:	ea43 4607 	orr.w	r6, r3, r7, lsl #16
 8000544:	fb00 f302 	mul.w	r3, r0, r2
 8000548:	42b3      	cmp	r3, r6
 800054a:	d909      	bls.n	8000560 <__udivdi3+0x5c>
 800054c:	1936      	adds	r6, r6, r4
 800054e:	f102 37ff 	add.w	r7, r2, #4294967295
 8000552:	f080 80f6 	bcs.w	8000742 <__udivdi3+0x23e>
 8000556:	42b3      	cmp	r3, r6
 8000558:	f240 80f3 	bls.w	8000742 <__udivdi3+0x23e>
 800055c:	3a02      	subs	r2, #2
 800055e:	4426      	add	r6, r4
 8000560:	1af6      	subs	r6, r6, r3
 8000562:	fbb6 f3f1 	udiv	r3, r6, r1
 8000566:	b2ad      	uxth	r5, r5
 8000568:	fb01 6113 	mls	r1, r1, r3, r6
 800056c:	ea45 4101 	orr.w	r1, r5, r1, lsl #16
 8000570:	fb00 f003 	mul.w	r0, r0, r3
 8000574:	4288      	cmp	r0, r1
 8000576:	d908      	bls.n	800058a <__udivdi3+0x86>
 8000578:	1909      	adds	r1, r1, r4
 800057a:	f103 36ff 	add.w	r6, r3, #4294967295
 800057e:	f080 80e2 	bcs.w	8000746 <__udivdi3+0x242>
 8000582:	4288      	cmp	r0, r1
 8000584:	f240 80df 	bls.w	8000746 <__udivdi3+0x242>
 8000588:	3b02      	subs	r3, #2
 800058a:	ea43 4202 	orr.w	r2, r3, r2, lsl #16
 800058e:	2300      	movs	r3, #0
 8000590:	4610      	mov	r0, r2
 8000592:	4619      	mov	r1, r3
 8000594:	e8bd 0ff0 	ldmia.w	sp!, {r4, r5, r6, r7, r8, r9, sl, fp}
 8000598:	4770      	bx	lr
 800059a:	428b      	cmp	r3, r1
 800059c:	d84a      	bhi.n	8000634 <__udivdi3+0x130>
 800059e:	fab3 f683 	clz	r6, r3
 80005a2:	2e00      	cmp	r6, #0
 80005a4:	d14d      	bne.n	8000642 <__udivdi3+0x13e>
 80005a6:	428b      	cmp	r3, r1
 80005a8:	d302      	bcc.n	80005b0 <__udivdi3+0xac>
 80005aa:	4282      	cmp	r2, r0
 80005ac:	f200 80d6 	bhi.w	800075c <__udivdi3+0x258>
 80005b0:	2300      	movs	r3, #0
 80005b2:	2201      	movs	r2, #1
 80005b4:	4610      	mov	r0, r2
 80005b6:	4619      	mov	r1, r3
 80005b8:	e8bd 0ff0 	ldmia.w	sp!, {r4, r5, r6, r7, r8, r9, sl, fp}
 80005bc:	4770      	bx	lr
 80005be:	b912      	cbnz	r2, 80005c6 <__udivdi3+0xc2>
 80005c0:	2401      	movs	r4, #1
 80005c2:	fbb4 f4f2 	udiv	r4, r4, r2
 80005c6:	fab4 f284 	clz	r2, r4
 80005ca:	2a00      	cmp	r2, #0
 80005cc:	d17c      	bne.n	80006c8 <__udivdi3+0x1c4>
 80005ce:	1b09      	subs	r1, r1, r4
 80005d0:	0c26      	lsrs	r6, r4, #16
 80005d2:	b2a7      	uxth	r7, r4
 80005d4:	2301      	movs	r3, #1
 80005d6:	fbb1 f0f6 	udiv	r0, r1, r6
 80005da:	0c2a      	lsrs	r2, r5, #16
 80005dc:	fb06 1110 	mls	r1, r6, r0, r1
 80005e0:	ea42 4101 	orr.w	r1, r2, r1, lsl #16
 80005e4:	fb07 f200 	mul.w	r2, r7, r0
 80005e8:	428a      	cmp	r2, r1
 80005ea:	d907      	bls.n	80005fc <__udivdi3+0xf8>
 80005ec:	1909      	adds	r1, r1, r4
 80005ee:	f100 3cff 	add.w	ip, r0, #4294967295
 80005f2:	d202      	bcs.n	80005fa <__udivdi3+0xf6>
 80005f4:	428a      	cmp	r2, r1
 80005f6:	f200 80c3 	bhi.w	8000780 <__udivdi3+0x27c>
 80005fa:	4660      	mov	r0, ip
 80005fc:	1a89      	subs	r1, r1, r2
 80005fe:	fbb1 f2f6 	udiv	r2, r1, r6
 8000602:	b2ad      	uxth	r5, r5
 8000604:	fb06 1112 	mls	r1, r6, r2, r1
 8000608:	ea45 4501 	orr.w	r5, r5, r1, lsl #16
 800060c:	fb07 f702 	mul.w	r7, r7, r2
 8000610:	42af      	cmp	r7, r5
 8000612:	d908      	bls.n	8000626 <__udivdi3+0x122>
 8000614:	192c      	adds	r4, r5, r4
 8000616:	f102 31ff 	add.w	r1, r2, #4294967295
 800061a:	f080 8096 	bcs.w	800074a <__udivdi3+0x246>
 800061e:	42a7      	cmp	r7, r4
 8000620:	f240 8093 	bls.w	800074a <__udivdi3+0x246>
 8000624:	3a02      	subs	r2, #2
 8000626:	ea42 4200 	orr.w	r2, r2, r0, lsl #16
 800062a:	4610      	mov	r0, r2
 800062c:	4619      	mov	r1, r3
 800062e:	e8bd 0ff0 	ldmia.w	sp!, {r4, r5, r6, r7, r8, r9, sl, fp}
 8000632:	4770      	bx	lr
 8000634:	2300      	movs	r3, #0
 8000636:	461a      	mov	r2, r3
 8000638:	4610      	mov	r0, r2
 800063a:	4619      	mov	r1, r3
 800063c:	e8bd 0ff0 	ldmia.w	sp!, {r4, r5, r6, r7, r8, r9, sl, fp}
 8000640:	4770      	bx	lr
 8000642:	f1c6 0520 	rsb	r5, r6, #32
 8000646:	fa22 f405 	lsr.w	r4, r2, r5
 800064a:	40b3      	lsls	r3, r6
 800064c:	431c      	orrs	r4, r3
 800064e:	ea4f 4814 	mov.w	r8, r4, lsr #16
 8000652:	fa21 f305 	lsr.w	r3, r1, r5
 8000656:	fa01 f706 	lsl.w	r7, r1, r6
 800065a:	fa20 f505 	lsr.w	r5, r0, r5
 800065e:	fbb3 fcf8 	udiv	ip, r3, r8
 8000662:	432f      	orrs	r7, r5
 8000664:	fb08 331c 	mls	r3, r8, ip, r3
 8000668:	0c3d      	lsrs	r5, r7, #16
 800066a:	fa1f fa84 	uxth.w	sl, r4
 800066e:	ea45 4303 	orr.w	r3, r5, r3, lsl #16
 8000672:	fb0a f90c 	mul.w	r9, sl, ip
 8000676:	4599      	cmp	r9, r3
 8000678:	fa02 fb06 	lsl.w	fp, r2, r6
 800067c:	d904      	bls.n	8000688 <__udivdi3+0x184>
 800067e:	191b      	adds	r3, r3, r4
 8000680:	f10c 32ff 	add.w	r2, ip, #4294967295
 8000684:	d36d      	bcc.n	8000762 <__udivdi3+0x25e>
 8000686:	4694      	mov	ip, r2
 8000688:	ebc9 0303 	rsb	r3, r9, r3
 800068c:	fbb3 f5f8 	udiv	r5, r3, r8
 8000690:	fb08 3315 	mls	r3, r8, r5, r3
 8000694:	b2bf      	uxth	r7, r7
 8000696:	ea47 4703 	orr.w	r7, r7, r3, lsl #16
 800069a:	fb0a f805 	mul.w	r8, sl, r5
 800069e:	45b8      	cmp	r8, r7
 80006a0:	d904      	bls.n	80006ac <__udivdi3+0x1a8>
 80006a2:	193f      	adds	r7, r7, r4
 80006a4:	f105 33ff 	add.w	r3, r5, #4294967295
 80006a8:	d361      	bcc.n	800076e <__udivdi3+0x26a>
 80006aa:	461d      	mov	r5, r3
 80006ac:	ea45 4c0c 	orr.w	ip, r5, ip, lsl #16
 80006b0:	fbac 230b 	umull	r2, r3, ip, fp
 80006b4:	ebc8 0707 	rsb	r7, r8, r7
 80006b8:	429f      	cmp	r7, r3
 80006ba:	f04f 0500 	mov.w	r5, #0
 80006be:	d349      	bcc.n	8000754 <__udivdi3+0x250>
 80006c0:	d045      	beq.n	800074e <__udivdi3+0x24a>
 80006c2:	4662      	mov	r2, ip
 80006c4:	462b      	mov	r3, r5
 80006c6:	e763      	b.n	8000590 <__udivdi3+0x8c>
 80006c8:	4094      	lsls	r4, r2
 80006ca:	f1c2 0320 	rsb	r3, r2, #32
 80006ce:	fa21 fc03 	lsr.w	ip, r1, r3
 80006d2:	0c26      	lsrs	r6, r4, #16
 80006d4:	fa20 f303 	lsr.w	r3, r0, r3
 80006d8:	fa01 f502 	lsl.w	r5, r1, r2
 80006dc:	fbbc f8f6 	udiv	r8, ip, r6
 80006e0:	ea43 0105 	orr.w	r1, r3, r5
 80006e4:	0c0b      	lsrs	r3, r1, #16
 80006e6:	fb06 cc18 	mls	ip, r6, r8, ip
 80006ea:	b2a7      	uxth	r7, r4
 80006ec:	ea43 4c0c 	orr.w	ip, r3, ip, lsl #16
 80006f0:	fb07 f308 	mul.w	r3, r7, r8
 80006f4:	4563      	cmp	r3, ip
 80006f6:	fa00 f502 	lsl.w	r5, r0, r2
 80006fa:	d909      	bls.n	8000710 <__udivdi3+0x20c>
 80006fc:	eb1c 0c04 	adds.w	ip, ip, r4
 8000700:	f108 32ff 	add.w	r2, r8, #4294967295
 8000704:	d23a      	bcs.n	800077c <__udivdi3+0x278>
 8000706:	4563      	cmp	r3, ip
 8000708:	d938      	bls.n	800077c <__udivdi3+0x278>
 800070a:	f1a8 0802 	sub.w	r8, r8, #2
 800070e:	44a4      	add	ip, r4
 8000710:	ebc3 0c0c 	rsb	ip, r3, ip
 8000714:	fbbc f3f6 	udiv	r3, ip, r6
 8000718:	b289      	uxth	r1, r1
 800071a:	fb06 cc13 	mls	ip, r6, r3, ip
 800071e:	ea41 410c 	orr.w	r1, r1, ip, lsl #16
 8000722:	fb07 f203 	mul.w	r2, r7, r3
 8000726:	428a      	cmp	r2, r1
 8000728:	d907      	bls.n	800073a <__udivdi3+0x236>
 800072a:	1909      	adds	r1, r1, r4
 800072c:	f103 30ff 	add.w	r0, r3, #4294967295
 8000730:	d222      	bcs.n	8000778 <__udivdi3+0x274>
 8000732:	428a      	cmp	r2, r1
 8000734:	d920      	bls.n	8000778 <__udivdi3+0x274>
 8000736:	3b02      	subs	r3, #2
 8000738:	4421      	add	r1, r4
 800073a:	1a89      	subs	r1, r1, r2
 800073c:	ea43 4308 	orr.w	r3, r3, r8, lsl #16
 8000740:	e749      	b.n	80005d6 <__udivdi3+0xd2>
 8000742:	463a      	mov	r2, r7
 8000744:	e70c      	b.n	8000560 <__udivdi3+0x5c>
 8000746:	4633      	mov	r3, r6
 8000748:	e71f      	b.n	800058a <__udivdi3+0x86>
 800074a:	460a      	mov	r2, r1
 800074c:	e76b      	b.n	8000626 <__udivdi3+0x122>
 800074e:	40b0      	lsls	r0, r6
 8000750:	4290      	cmp	r0, r2
 8000752:	d2b6      	bcs.n	80006c2 <__udivdi3+0x1be>
 8000754:	f10c 32ff 	add.w	r2, ip, #4294967295
 8000758:	2300      	movs	r3, #0
 800075a:	e719      	b.n	8000590 <__udivdi3+0x8c>
 800075c:	4633      	mov	r3, r6
 800075e:	4632      	mov	r2, r6
 8000760:	e716      	b.n	8000590 <__udivdi3+0x8c>
 8000762:	4599      	cmp	r9, r3
 8000764:	d98f      	bls.n	8000686 <__udivdi3+0x182>
 8000766:	f1ac 0c02 	sub.w	ip, ip, #2
 800076a:	4423      	add	r3, r4
 800076c:	e78c      	b.n	8000688 <__udivdi3+0x184>
 800076e:	45b8      	cmp	r8, r7
 8000770:	d99b      	bls.n	80006aa <__udivdi3+0x1a6>
 8000772:	3d02      	subs	r5, #2
 8000774:	4427      	add	r7, r4
 8000776:	e799      	b.n	80006ac <__udivdi3+0x1a8>
 8000778:	4603      	mov	r3, r0
 800077a:	e7de      	b.n	800073a <__udivdi3+0x236>
 800077c:	4690      	mov	r8, r2
 800077e:	e7c7      	b.n	8000710 <__udivdi3+0x20c>
 8000780:	3802      	subs	r0, #2
 8000782:	4421      	add	r1, r4
 8000784:	e73a      	b.n	80005fc <__udivdi3+0xf8>
 8000786:	bf00      	nop

08000788 <memcpy>:
 8000788:	4684      	mov	ip, r0
 800078a:	ea41 0300 	orr.w	r3, r1, r0
 800078e:	f013 0303 	ands.w	r3, r3, #3
 8000792:	d16d      	bne.n	8000870 <memcpy+0xe8>
 8000794:	3a40      	subs	r2, #64	; 0x40
 8000796:	d341      	bcc.n	800081c <memcpy+0x94>
 8000798:	f851 3b04 	ldr.w	r3, [r1], #4
 800079c:	f840 3b04 	str.w	r3, [r0], #4
 80007a0:	f851 3b04 	ldr.w	r3, [r1], #4
 80007a4:	f840 3b04 	str.w	r3, [r0], #4
 80007a8:	f851 3b04 	ldr.w	r3, [r1], #4
 80007ac:	f840 3b04 	str.w	r3, [r0], #4
 80007b0:	f851 3b04 	ldr.w	r3, [r1], #4
 80007b4:	f840 3b04 	str.w	r3, [r0], #4
 80007b8:	f851 3b04 	ldr.w	r3, [r1], #4
 80007bc:	f840 3b04 	str.w	r3, [r0], #4
 80007c0:	f851 3b04 	ldr.w	r3, [r1], #4
 80007c4:	f840 3b04 	str.w	r3, [r0], #4
 80007c8:	f851 3b04 	ldr.w	r3, [r1], #4
 80007cc:	f840 3b04 	str.w	r3, [r0], #4
 80007d0:	f851 3b04 	ldr.w	r3, [r1], #4
 80007d4:	f840 3b04 	str.w	r3, [r0], #4
 80007d8:	f851 3b04 	ldr.w	r3, [r1], #4
 80007dc:	f840 3b04 	str.w	r3, [r0], #4
 80007e0:	f851 3b04 	ldr.w	r3, [r1], #4
 80007e4:	f840 3b04 	str.w	r3, [r0], #4
 80007e8:	f851 3b04 	ldr.w	r3, [r1], #4
 80007ec:	f840 3b04 	str.w	r3, [r0], #4
 80007f0:	f851 3b04 	ldr.w	r3, [r1], #4
 80007f4:	f840 3b04 	str.w	r3, [r0], #4
 80007f8:	f851 3b04 	ldr.w	r3, [r1], #4
 80007fc:	f840 3b04 	str.w	r3, [r0], #4
 8000800:	f851 3b04 	ldr.w	r3, [r1], #4
 8000804:	f840 3b04 	str.w	r3, [r0], #4
 8000808:	f851 3b04 	ldr.w	r3, [r1], #4
 800080c:	f840 3b04 	str.w	r3, [r0], #4
 8000810:	f851 3b04 	ldr.w	r3, [r1], #4
 8000814:	f840 3b04 	str.w	r3, [r0], #4
 8000818:	3a40      	subs	r2, #64	; 0x40
 800081a:	d2bd      	bcs.n	8000798 <memcpy+0x10>
 800081c:	3230      	adds	r2, #48	; 0x30
 800081e:	d311      	bcc.n	8000844 <memcpy+0xbc>
 8000820:	f851 3b04 	ldr.w	r3, [r1], #4
 8000824:	f840 3b04 	str.w	r3, [r0], #4
 8000828:	f851 3b04 	ldr.w	r3, [r1], #4
 800082c:	f840 3b04 	str.w	r3, [r0], #4
 8000830:	f851 3b04 	ldr.w	r3, [r1], #4
 8000834:	f840 3b04 	str.w	r3, [r0], #4
 8000838:	f851 3b04 	ldr.w	r3, [r1], #4
 800083c:	f840 3b04 	str.w	r3, [r0], #4
 8000840:	3a10      	subs	r2, #16
 8000842:	d2ed      	bcs.n	8000820 <memcpy+0x98>
 8000844:	320c      	adds	r2, #12
 8000846:	d305      	bcc.n	8000854 <memcpy+0xcc>
 8000848:	f851 3b04 	ldr.w	r3, [r1], #4
 800084c:	f840 3b04 	str.w	r3, [r0], #4
 8000850:	3a04      	subs	r2, #4
 8000852:	d2f9      	bcs.n	8000848 <memcpy+0xc0>
 8000854:	3204      	adds	r2, #4
 8000856:	d008      	beq.n	800086a <memcpy+0xe2>
 8000858:	07d2      	lsls	r2, r2, #31
 800085a:	bf1c      	itt	ne
 800085c:	f811 3b01 	ldrbne.w	r3, [r1], #1
 8000860:	f800 3b01 	strbne.w	r3, [r0], #1
 8000864:	d301      	bcc.n	800086a <memcpy+0xe2>
 8000866:	880b      	ldrh	r3, [r1, #0]
 8000868:	8003      	strh	r3, [r0, #0]
 800086a:	4660      	mov	r0, ip
 800086c:	4770      	bx	lr
 800086e:	bf00      	nop
 8000870:	2a08      	cmp	r2, #8
 8000872:	d313      	bcc.n	800089c <memcpy+0x114>
 8000874:	078b      	lsls	r3, r1, #30
 8000876:	d08d      	beq.n	8000794 <memcpy+0xc>
 8000878:	f010 0303 	ands.w	r3, r0, #3
 800087c:	d08a      	beq.n	8000794 <memcpy+0xc>
 800087e:	f1c3 0304 	rsb	r3, r3, #4
 8000882:	1ad2      	subs	r2, r2, r3
 8000884:	07db      	lsls	r3, r3, #31
 8000886:	bf1c      	itt	ne
 8000888:	f811 3b01 	ldrbne.w	r3, [r1], #1
 800088c:	f800 3b01 	strbne.w	r3, [r0], #1
 8000890:	d380      	bcc.n	8000794 <memcpy+0xc>
 8000892:	f831 3b02 	ldrh.w	r3, [r1], #2
 8000896:	f820 3b02 	strh.w	r3, [r0], #2
 800089a:	e77b      	b.n	8000794 <memcpy+0xc>
 800089c:	3a04      	subs	r2, #4
 800089e:	d3d9      	bcc.n	8000854 <memcpy+0xcc>
 80008a0:	3a01      	subs	r2, #1
 80008a2:	f811 3b01 	ldrb.w	r3, [r1], #1
 80008a6:	f800 3b01 	strb.w	r3, [r0], #1
 80008aa:	d2f9      	bcs.n	80008a0 <memcpy+0x118>
 80008ac:	780b      	ldrb	r3, [r1, #0]
 80008ae:	7003      	strb	r3, [r0, #0]
 80008b0:	784b      	ldrb	r3, [r1, #1]
 80008b2:	7043      	strb	r3, [r0, #1]
 80008b4:	788b      	ldrb	r3, [r1, #2]
 80008b6:	7083      	strb	r3, [r0, #2]
 80008b8:	4660      	mov	r0, ip
 80008ba:	4770      	bx	lr

080008bc <Reset_Handler>:
 80008bc:	2100      	movs	r1, #0
 80008be:	f000 b804 	b.w	80008ca <LoopCopyDataInit>

080008c2 <CopyDataInit>:
 80008c2:	4b0e      	ldr	r3, [pc, #56]	; (80008fc <LoopForever+0x6>)
 80008c4:	585b      	ldr	r3, [r3, r1]
 80008c6:	5043      	str	r3, [r0, r1]
 80008c8:	3104      	adds	r1, #4

080008ca <LoopCopyDataInit>:
 80008ca:	480d      	ldr	r0, [pc, #52]	; (8000900 <LoopForever+0xa>)
 80008cc:	4b0d      	ldr	r3, [pc, #52]	; (8000904 <LoopForever+0xe>)
 80008ce:	1842      	adds	r2, r0, r1
 80008d0:	429a      	cmp	r2, r3
 80008d2:	f4ff aff6 	bcc.w	80008c2 <CopyDataInit>
 80008d6:	4a0c      	ldr	r2, [pc, #48]	; (8000908 <LoopForever+0x12>)
 80008d8:	f000 b803 	b.w	80008e2 <LoopFillZerobss>

080008dc <FillZerobss>:
 80008dc:	2300      	movs	r3, #0
 80008de:	6013      	str	r3, [r2, #0]
 80008e0:	3204      	adds	r2, #4

080008e2 <LoopFillZerobss>:
 80008e2:	4b0a      	ldr	r3, [pc, #40]	; (800090c <LoopForever+0x16>)
 80008e4:	429a      	cmp	r2, r3
 80008e6:	f4ff aff9 	bcc.w	80008dc <FillZerobss>
 80008ea:	f000 f813 	bl	8000914 <SystemInit>
 80008ee:	f00a faf7 	bl	800aee0 <__libc_init_array>
 80008f2:	f000 f91d 	bl	8000b30 <main>

080008f6 <LoopForever>:
 80008f6:	f7ff bffe 	b.w	80008f6 <LoopForever>
 80008fa:	0000      	.short	0x0000
 80008fc:	0800e448 	.word	0x0800e448
 8000900:	20000000 	.word	0x20000000
 8000904:	20000440 	.word	0x20000440
 8000908:	20000440 	.word	0x20000440
 800090c:	20002f90 	.word	0x20002f90

08000910 <ADC1_2_IRQHandler>:
 8000910:	f7ff bffe 	b.w	8000910 <ADC1_2_IRQHandler>

08000914 <SystemInit>:
 8000914:	4a0f      	ldr	r2, [pc, #60]	; (8000954 <SystemInit+0x40>)
 8000916:	f8d2 3088 	ldr.w	r3, [r2, #136]	; 0x88
 800091a:	f443 0370 	orr.w	r3, r3, #15728640	; 0xf00000
 800091e:	f8c2 3088 	str.w	r3, [r2, #136]	; 0x88
 8000922:	4b0d      	ldr	r3, [pc, #52]	; (8000958 <SystemInit+0x44>)
 8000924:	6819      	ldr	r1, [r3, #0]
 8000926:	2000      	movs	r0, #0
 8000928:	f041 0101 	orr.w	r1, r1, #1
 800092c:	6019      	str	r1, [r3, #0]
 800092e:	6098      	str	r0, [r3, #8]
 8000930:	6819      	ldr	r1, [r3, #0]
 8000932:	f021 51a8 	bic.w	r1, r1, #352321536	; 0x15000000
 8000936:	f421 2110 	bic.w	r1, r1, #589824	; 0x90000
 800093a:	6019      	str	r1, [r3, #0]
 800093c:	f44f 6100 	mov.w	r1, #2048	; 0x800
 8000940:	60d9      	str	r1, [r3, #12]
 8000942:	6819      	ldr	r1, [r3, #0]
 8000944:	f421 2180 	bic.w	r1, r1, #262144	; 0x40000
 8000948:	6019      	str	r1, [r3, #0]
 800094a:	6198      	str	r0, [r3, #24]
 800094c:	f04f 6300 	mov.w	r3, #134217728	; 0x8000000
 8000950:	6093      	str	r3, [r2, #8]
 8000952:	4770      	bx	lr
 8000954:	e000ed00 	.word	0xe000ed00
 8000958:	40021000 	.word	0x40021000

0800095c <VL6180X_Tuning_Settings>:
 800095c:	b508      	push	{r3, lr}
 800095e:	2029      	movs	r0, #41	; 0x29
 8000960:	f240 2107 	movw	r1, #519	; 0x207
 8000964:	2201      	movs	r2, #1
 8000966:	f003 ff33 	bl	80047d0 <LBF_I2CSensors_WriteSingleReg>
 800096a:	2029      	movs	r0, #41	; 0x29
 800096c:	f44f 7102 	mov.w	r1, #520	; 0x208
 8000970:	2201      	movs	r2, #1
 8000972:	f003 ff2d 	bl	80047d0 <LBF_I2CSensors_WriteSingleReg>
 8000976:	2029      	movs	r0, #41	; 0x29
 8000978:	f240 1133 	movw	r1, #307	; 0x133
 800097c:	2201      	movs	r2, #1
 800097e:	f003 ff27 	bl	80047d0 <LBF_I2CSensors_WriteSingleReg>
 8000982:	2029      	movs	r0, #41	; 0x29
 8000984:	2196      	movs	r1, #150	; 0x96
 8000986:	2200      	movs	r2, #0
 8000988:	f003 ff22 	bl	80047d0 <LBF_I2CSensors_WriteSingleReg>
 800098c:	2029      	movs	r0, #41	; 0x29
 800098e:	2197      	movs	r1, #151	; 0x97
 8000990:	22fd      	movs	r2, #253	; 0xfd
 8000992:	f003 ff1d 	bl	80047d0 <LBF_I2CSensors_WriteSingleReg>
 8000996:	2029      	movs	r0, #41	; 0x29
 8000998:	21e3      	movs	r1, #227	; 0xe3
 800099a:	2200      	movs	r2, #0
 800099c:	f003 ff18 	bl	80047d0 <LBF_I2CSensors_WriteSingleReg>
 80009a0:	2029      	movs	r0, #41	; 0x29
 80009a2:	21e4      	movs	r1, #228	; 0xe4
 80009a4:	2204      	movs	r2, #4
 80009a6:	f003 ff13 	bl	80047d0 <LBF_I2CSensors_WriteSingleReg>
 80009aa:	2029      	movs	r0, #41	; 0x29
 80009ac:	21e5      	movs	r1, #229	; 0xe5
 80009ae:	2202      	movs	r2, #2
 80009b0:	f003 ff0e 	bl	80047d0 <LBF_I2CSensors_WriteSingleReg>
 80009b4:	2029      	movs	r0, #41	; 0x29
 80009b6:	21e6      	movs	r1, #230	; 0xe6
 80009b8:	2201      	movs	r2, #1
 80009ba:	f003 ff09 	bl	80047d0 <LBF_I2CSensors_WriteSingleReg>
 80009be:	2029      	movs	r0, #41	; 0x29
 80009c0:	21e7      	movs	r1, #231	; 0xe7
 80009c2:	2203      	movs	r2, #3
 80009c4:	f003 ff04 	bl	80047d0 <LBF_I2CSensors_WriteSingleReg>
 80009c8:	2029      	movs	r0, #41	; 0x29
 80009ca:	21f5      	movs	r1, #245	; 0xf5
 80009cc:	2202      	movs	r2, #2
 80009ce:	f003 feff 	bl	80047d0 <LBF_I2CSensors_WriteSingleReg>
 80009d2:	2029      	movs	r0, #41	; 0x29
 80009d4:	21d9      	movs	r1, #217	; 0xd9
 80009d6:	2205      	movs	r2, #5
 80009d8:	f003 fefa 	bl	80047d0 <LBF_I2CSensors_WriteSingleReg>
 80009dc:	2029      	movs	r0, #41	; 0x29
 80009de:	21db      	movs	r1, #219	; 0xdb
 80009e0:	22ce      	movs	r2, #206	; 0xce
 80009e2:	f003 fef5 	bl	80047d0 <LBF_I2CSensors_WriteSingleReg>
 80009e6:	2029      	movs	r0, #41	; 0x29
 80009e8:	21dc      	movs	r1, #220	; 0xdc
 80009ea:	2203      	movs	r2, #3
 80009ec:	f003 fef0 	bl	80047d0 <LBF_I2CSensors_WriteSingleReg>
 80009f0:	2029      	movs	r0, #41	; 0x29
 80009f2:	21dd      	movs	r1, #221	; 0xdd
 80009f4:	22f8      	movs	r2, #248	; 0xf8
 80009f6:	f003 feeb 	bl	80047d0 <LBF_I2CSensors_WriteSingleReg>
 80009fa:	2029      	movs	r0, #41	; 0x29
 80009fc:	219f      	movs	r1, #159	; 0x9f
 80009fe:	2200      	movs	r2, #0
 8000a00:	f003 fee6 	bl	80047d0 <LBF_I2CSensors_WriteSingleReg>
 8000a04:	2029      	movs	r0, #41	; 0x29
 8000a06:	21a3      	movs	r1, #163	; 0xa3
 8000a08:	223c      	movs	r2, #60	; 0x3c
 8000a0a:	f003 fee1 	bl	80047d0 <LBF_I2CSensors_WriteSingleReg>
 8000a0e:	2029      	movs	r0, #41	; 0x29
 8000a10:	21b7      	movs	r1, #183	; 0xb7
 8000a12:	2200      	movs	r2, #0
 8000a14:	f003 fedc 	bl	80047d0 <LBF_I2CSensors_WriteSingleReg>
 8000a18:	2029      	movs	r0, #41	; 0x29
 8000a1a:	21bb      	movs	r1, #187	; 0xbb
 8000a1c:	223c      	movs	r2, #60	; 0x3c
 8000a1e:	f003 fed7 	bl	80047d0 <LBF_I2CSensors_WriteSingleReg>
 8000a22:	2029      	movs	r0, #41	; 0x29
 8000a24:	21b2      	movs	r1, #178	; 0xb2
 8000a26:	2209      	movs	r2, #9
 8000a28:	f003 fed2 	bl	80047d0 <LBF_I2CSensors_WriteSingleReg>
 8000a2c:	2029      	movs	r0, #41	; 0x29
 8000a2e:	21ca      	movs	r1, #202	; 0xca
 8000a30:	2209      	movs	r2, #9
 8000a32:	f003 fecd 	bl	80047d0 <LBF_I2CSensors_WriteSingleReg>
 8000a36:	2029      	movs	r0, #41	; 0x29
 8000a38:	f44f 71cc 	mov.w	r1, #408	; 0x198
 8000a3c:	2201      	movs	r2, #1
 8000a3e:	f003 fec7 	bl	80047d0 <LBF_I2CSensors_WriteSingleReg>
 8000a42:	2029      	movs	r0, #41	; 0x29
 8000a44:	f44f 71d8 	mov.w	r1, #432	; 0x1b0
 8000a48:	2217      	movs	r2, #23
 8000a4a:	f003 fec1 	bl	80047d0 <LBF_I2CSensors_WriteSingleReg>
 8000a4e:	2029      	movs	r0, #41	; 0x29
 8000a50:	f240 11ad 	movw	r1, #429	; 0x1ad
 8000a54:	2200      	movs	r2, #0
 8000a56:	f003 febb 	bl	80047d0 <LBF_I2CSensors_WriteSingleReg>
 8000a5a:	2029      	movs	r0, #41	; 0x29
 8000a5c:	21ff      	movs	r1, #255	; 0xff
 8000a5e:	2205      	movs	r2, #5
 8000a60:	f003 feb6 	bl	80047d0 <LBF_I2CSensors_WriteSingleReg>
 8000a64:	2029      	movs	r0, #41	; 0x29
 8000a66:	f44f 7180 	mov.w	r1, #256	; 0x100
 8000a6a:	2205      	movs	r2, #5
 8000a6c:	f003 feb0 	bl	80047d0 <LBF_I2CSensors_WriteSingleReg>
 8000a70:	2029      	movs	r0, #41	; 0x29
 8000a72:	f240 1199 	movw	r1, #409	; 0x199
 8000a76:	2205      	movs	r2, #5
 8000a78:	f003 feaa 	bl	80047d0 <LBF_I2CSensors_WriteSingleReg>
 8000a7c:	2029      	movs	r0, #41	; 0x29
 8000a7e:	f240 1109 	movw	r1, #265	; 0x109
 8000a82:	2207      	movs	r2, #7
 8000a84:	f003 fea4 	bl	80047d0 <LBF_I2CSensors_WriteSingleReg>
 8000a88:	2029      	movs	r0, #41	; 0x29
 8000a8a:	f44f 7185 	mov.w	r1, #266	; 0x10a
 8000a8e:	2230      	movs	r2, #48	; 0x30
 8000a90:	f003 fe9e 	bl	80047d0 <LBF_I2CSensors_WriteSingleReg>
 8000a94:	2029      	movs	r0, #41	; 0x29
 8000a96:	213f      	movs	r1, #63	; 0x3f
 8000a98:	2246      	movs	r2, #70	; 0x46
 8000a9a:	f003 fe99 	bl	80047d0 <LBF_I2CSensors_WriteSingleReg>
 8000a9e:	2029      	movs	r0, #41	; 0x29
 8000aa0:	f44f 71d3 	mov.w	r1, #422	; 0x1a6
 8000aa4:	221b      	movs	r2, #27
 8000aa6:	f003 fe93 	bl	80047d0 <LBF_I2CSensors_WriteSingleReg>
 8000aaa:	2029      	movs	r0, #41	; 0x29
 8000aac:	f44f 71d6 	mov.w	r1, #428	; 0x1ac
 8000ab0:	223e      	movs	r2, #62	; 0x3e
 8000ab2:	f003 fe8d 	bl	80047d0 <LBF_I2CSensors_WriteSingleReg>
 8000ab6:	2029      	movs	r0, #41	; 0x29
 8000ab8:	f240 11a7 	movw	r1, #423	; 0x1a7
 8000abc:	221f      	movs	r2, #31
 8000abe:	f003 fe87 	bl	80047d0 <LBF_I2CSensors_WriteSingleReg>
 8000ac2:	2029      	movs	r0, #41	; 0x29
 8000ac4:	f240 1103 	movw	r1, #259	; 0x103
 8000ac8:	2201      	movs	r2, #1
 8000aca:	f003 fe81 	bl	80047d0 <LBF_I2CSensors_WriteSingleReg>
 8000ace:	2029      	movs	r0, #41	; 0x29
 8000ad0:	2130      	movs	r1, #48	; 0x30
 8000ad2:	2200      	movs	r2, #0
 8000ad4:	f003 fe7c 	bl	80047d0 <LBF_I2CSensors_WriteSingleReg>
 8000ad8:	2029      	movs	r0, #41	; 0x29
 8000ada:	211b      	movs	r1, #27
 8000adc:	220a      	movs	r2, #10
 8000ade:	f003 fe77 	bl	80047d0 <LBF_I2CSensors_WriteSingleReg>
 8000ae2:	2029      	movs	r0, #41	; 0x29
 8000ae4:	213e      	movs	r1, #62	; 0x3e
 8000ae6:	220a      	movs	r2, #10
 8000ae8:	f003 fe72 	bl	80047d0 <LBF_I2CSensors_WriteSingleReg>
 8000aec:	2029      	movs	r0, #41	; 0x29
 8000aee:	f240 1131 	movw	r1, #305	; 0x131
 8000af2:	2204      	movs	r2, #4
 8000af4:	f003 fe6c 	bl	80047d0 <LBF_I2CSensors_WriteSingleReg>
 8000af8:	2029      	movs	r0, #41	; 0x29
 8000afa:	2111      	movs	r1, #17
 8000afc:	2210      	movs	r2, #16
 8000afe:	f003 fe67 	bl	80047d0 <LBF_I2CSensors_WriteSingleReg>
 8000b02:	2029      	movs	r0, #41	; 0x29
 8000b04:	2114      	movs	r1, #20
 8000b06:	2224      	movs	r2, #36	; 0x24
 8000b08:	f003 fe62 	bl	80047d0 <LBF_I2CSensors_WriteSingleReg>
 8000b0c:	2029      	movs	r0, #41	; 0x29
 8000b0e:	2131      	movs	r1, #49	; 0x31
 8000b10:	22ff      	movs	r2, #255	; 0xff
 8000b12:	f003 fe5d 	bl	80047d0 <LBF_I2CSensors_WriteSingleReg>
 8000b16:	2029      	movs	r0, #41	; 0x29
 8000b18:	21d2      	movs	r1, #210	; 0xd2
 8000b1a:	2201      	movs	r2, #1
 8000b1c:	f003 fe58 	bl	80047d0 <LBF_I2CSensors_WriteSingleReg>
 8000b20:	2029      	movs	r0, #41	; 0x29
 8000b22:	21f2      	movs	r1, #242	; 0xf2
 8000b24:	2201      	movs	r2, #1
 8000b26:	e8bd 4008 	ldmia.w	sp!, {r3, lr}
 8000b2a:	f003 be51 	b.w	80047d0 <LBF_I2CSensors_WriteSingleReg>
	...

08000b30 <main>:
 8000b30:	e92d 43f0 	stmdb	sp!, {r4, r5, r6, r7, r8, r9, lr}
 8000b34:	b089      	sub	sp, #36	; 0x24
 8000b36:	f004 f8e3 	bl	8004d00 <LBF_Board_Fixed_Inits>
 8000b3a:	f004 f93d 	bl	8004db8 <LBF_Board_Selective_Inits>
 8000b3e:	f003 fe81 	bl	8004844 <LBF_Led_ON>
 8000b42:	f004 fff3 	bl	8005b2c <LBF_emWin_Init>
 8000b46:	f003 fe03 	bl	8004750 <LBF_Led_StopNBlinkOnFalse>
 8000b4a:	f003 fe83 	bl	8004854 <LBF_Led_OFF>
 8000b4e:	4b4f      	ldr	r3, [pc, #316]	; (8000c8c <main+0x15c>)
 8000b50:	aa04      	add	r2, sp, #16
 8000b52:	f103 0508 	add.w	r5, r3, #8
 8000b56:	4690      	mov	r8, r2
 8000b58:	6818      	ldr	r0, [r3, #0]
 8000b5a:	6859      	ldr	r1, [r3, #4]
 8000b5c:	4614      	mov	r4, r2
 8000b5e:	c403      	stmia	r4!, {r0, r1}
 8000b60:	3308      	adds	r3, #8
 8000b62:	42ab      	cmp	r3, r5
 8000b64:	4622      	mov	r2, r4
 8000b66:	d1f7      	bne.n	8000b58 <main+0x28>
 8000b68:	6818      	ldr	r0, [r3, #0]
 8000b6a:	889b      	ldrh	r3, [r3, #4]
 8000b6c:	80a3      	strh	r3, [r4, #4]
 8000b6e:	ad02      	add	r5, sp, #8
 8000b70:	2100      	movs	r1, #0
 8000b72:	2207      	movs	r2, #7
 8000b74:	6020      	str	r0, [r4, #0]
 8000b76:	4628      	mov	r0, r5
 8000b78:	f00a fa3a 	bl	800aff0 <memset>
 8000b7c:	f003 ff54 	bl	8004a28 <LBF_OLED_Switch_ON>
 8000b80:	f003 ff47 	bl	8004a12 <LBF_OLED_Clear>
 8000b84:	f06f 407f 	mvn.w	r0, #4278190080	; 0xff000000
 8000b88:	f007 fcaa 	bl	80084e0 <GUI_SetColor>
 8000b8c:	2002      	movs	r0, #2
 8000b8e:	f007 fc91 	bl	80084b4 <GUI_SetTextMode>
 8000b92:	483f      	ldr	r0, [pc, #252]	; (8000c90 <main+0x160>)
 8000b94:	f007 fc98 	bl	80084c8 <GUI_SetFont>
 8000b98:	2104      	movs	r1, #4
 8000b9a:	221e      	movs	r2, #30
 8000b9c:	483d      	ldr	r0, [pc, #244]	; (8000c94 <main+0x164>)
 8000b9e:	f007 fd25 	bl	80085ec <GUI_DispStringAt>
 8000ba2:	483d      	ldr	r0, [pc, #244]	; (8000c98 <main+0x168>)
 8000ba4:	f007 fc90 	bl	80084c8 <GUI_SetFont>
 8000ba8:	483c      	ldr	r0, [pc, #240]	; (8000c9c <main+0x16c>)
 8000baa:	215a      	movs	r1, #90	; 0x5a
 8000bac:	220e      	movs	r2, #14
 8000bae:	f007 fd1d 	bl	80085ec <GUI_DispStringAt>
 8000bb2:	483b      	ldr	r0, [pc, #236]	; (8000ca0 <main+0x170>)
 8000bb4:	215a      	movs	r1, #90	; 0x5a
 8000bb6:	223e      	movs	r2, #62	; 0x3e
 8000bb8:	f007 fd18 	bl	80085ec <GUI_DispStringAt>
 8000bbc:	4839      	ldr	r0, [pc, #228]	; (8000ca4 <main+0x174>)
 8000bbe:	215a      	movs	r1, #90	; 0x5a
 8000bc0:	226b      	movs	r2, #107	; 0x6b
 8000bc2:	f007 fd13 	bl	80085ec <GUI_DispStringAt>
 8000bc6:	2029      	movs	r0, #41	; 0x29
 8000bc8:	2100      	movs	r1, #0
 8000bca:	f003 fe1d 	bl	8004808 <LBF_I2CSensors_ReadSingleReg>
 8000bce:	f1b0 03b4 	subs.w	r3, r0, #180	; 0xb4
 8000bd2:	4258      	negs	r0, r3
 8000bd4:	4158      	adcs	r0, r3
 8000bd6:	f003 fdbb 	bl	8004750 <LBF_Led_StopNBlinkOnFalse>
 8000bda:	2029      	movs	r0, #41	; 0x29
 8000bdc:	2116      	movs	r1, #22
 8000bde:	f003 fe13 	bl	8004808 <LBF_I2CSensors_ReadSingleReg>
 8000be2:	2801      	cmp	r0, #1
 8000be4:	d1f9      	bne.n	8000bda <main+0xaa>
 8000be6:	2029      	movs	r0, #41	; 0x29
 8000be8:	2116      	movs	r1, #22
 8000bea:	2200      	movs	r2, #0
 8000bec:	f003 fdf0 	bl	80047d0 <LBF_I2CSensors_WriteSingleReg>
 8000bf0:	f7ff feb4 	bl	800095c <VL6180X_Tuning_Settings>
 8000bf4:	2029      	movs	r0, #41	; 0x29
 8000bf6:	2114      	movs	r1, #20
 8000bf8:	2204      	movs	r2, #4
 8000bfa:	f003 fde9 	bl	80047d0 <LBF_I2CSensors_WriteSingleReg>
 8000bfe:	2029      	movs	r0, #41	; 0x29
 8000c00:	2118      	movs	r1, #24
 8000c02:	2203      	movs	r2, #3
 8000c04:	f003 fde4 	bl	80047d0 <LBF_I2CSensors_WriteSingleReg>
 8000c08:	2029      	movs	r0, #41	; 0x29
 8000c0a:	214f      	movs	r1, #79	; 0x4f
 8000c0c:	f003 fdfc 	bl	8004808 <LBF_I2CSensors_ReadSingleReg>
 8000c10:	f000 0007 	and.w	r0, r0, #7
 8000c14:	2804      	cmp	r0, #4
 8000c16:	d1f7      	bne.n	8000c08 <main+0xd8>
 8000c18:	2162      	movs	r1, #98	; 0x62
 8000c1a:	2029      	movs	r0, #41	; 0x29
 8000c1c:	f003 fdf4 	bl	8004808 <LBF_I2CSensors_ReadSingleReg>
 8000c20:	2115      	movs	r1, #21
 8000c22:	4607      	mov	r7, r0
 8000c24:	2207      	movs	r2, #7
 8000c26:	2029      	movs	r0, #41	; 0x29
 8000c28:	f003 fdd2 	bl	80047d0 <LBF_I2CSensors_WriteSingleReg>
 8000c2c:	2fdc      	cmp	r7, #220	; 0xdc
 8000c2e:	bf28      	it	cs
 8000c30:	27dc      	movcs	r7, #220	; 0xdc
 8000c32:	f3c7 1747 	ubfx	r7, r7, #5, #8
 8000c36:	2664      	movs	r6, #100	; 0x64
 8000c38:	2400      	movs	r4, #0
 8000c3a:	5d2b      	ldrb	r3, [r5, r4]
 8000c3c:	2b01      	cmp	r3, #1
 8000c3e:	d10f      	bne.n	8000c60 <main+0x130>
 8000c40:	b2e3      	uxtb	r3, r4
 8000c42:	429f      	cmp	r7, r3
 8000c44:	d21b      	bcs.n	8000c7e <main+0x14e>
 8000c46:	f04f 0900 	mov.w	r9, #0
 8000c4a:	f8cd 9000 	str.w	r9, [sp]
 8000c4e:	2078      	movs	r0, #120	; 0x78
 8000c50:	4631      	mov	r1, r6
 8000c52:	221e      	movs	r2, #30
 8000c54:	230f      	movs	r3, #15
 8000c56:	f003 fec3 	bl	80049e0 <LBF_OLED_Fill>
 8000c5a:	f805 9004 	strb.w	r9, [r5, r4]
 8000c5e:	e00e      	b.n	8000c7e <main+0x14e>
 8000c60:	b96b      	cbnz	r3, 8000c7e <main+0x14e>
 8000c62:	b2e3      	uxtb	r3, r4
 8000c64:	429f      	cmp	r7, r3
 8000c66:	d30a      	bcc.n	8000c7e <main+0x14e>
 8000c68:	f838 3014 	ldrh.w	r3, [r8, r4, lsl #1]
 8000c6c:	9300      	str	r3, [sp, #0]
 8000c6e:	2078      	movs	r0, #120	; 0x78
 8000c70:	230f      	movs	r3, #15
 8000c72:	4631      	mov	r1, r6
 8000c74:	221e      	movs	r2, #30
 8000c76:	f003 feb3 	bl	80049e0 <LBF_OLED_Fill>
 8000c7a:	2301      	movs	r3, #1
 8000c7c:	552b      	strb	r3, [r5, r4]
 8000c7e:	3401      	adds	r4, #1
 8000c80:	3e0f      	subs	r6, #15
 8000c82:	2c07      	cmp	r4, #7
 8000c84:	b2f6      	uxtb	r6, r6
 8000c86:	d1d8      	bne.n	8000c3a <main+0x10a>
 8000c88:	e7be      	b.n	8000c08 <main+0xd8>
 8000c8a:	bf00      	nop
 8000c8c:	0800b198 	.word	0x0800b198
 8000c90:	0800b284 	.word	0x0800b284
 8000c94:	0800b230 	.word	0x0800b230
 8000c98:	0800bf18 	.word	0x0800bf18
 8000c9c:	0800b23a 	.word	0x0800b23a
 8000ca0:	0800b244 	.word	0x0800b244
 8000ca4:	0800b24e 	.word	0x0800b24e

08000ca8 <EXTI0_IRQHandler>:
 8000ca8:	4770      	bx	lr

08000caa <EXTI1_IRQHandler>:
 8000caa:	4770      	bx	lr

08000cac <EXTI2_IRQHandler>:
 8000cac:	4770      	bx	lr

08000cae <EXTI3_IRQHandler>:
 8000cae:	4770      	bx	lr

08000cb0 <EXTI4_IRQHandler>:
 8000cb0:	4770      	bx	lr

08000cb2 <EXTI9_5_IRQHandler>:
 8000cb2:	4770      	bx	lr

08000cb4 <EXTI15_10_IRQHandler>:
 8000cb4:	f44f 5000 	mov.w	r0, #8192	; 0x2000
 8000cb8:	f000 b9be 	b.w	8001038 <HAL_GPIO_EXTI_IRQHandler>

08000cbc <RTC_WKUP_IRQHandler>:
 8000cbc:	4770      	bx	lr

08000cbe <NMI_Handler>:
 8000cbe:	4770      	bx	lr

08000cc0 <HardFault_Handler>:
 8000cc0:	e7fe      	b.n	8000cc0 <HardFault_Handler>

08000cc2 <MemManage_Handler>:
 8000cc2:	e7fe      	b.n	8000cc2 <MemManage_Handler>

08000cc4 <BusFault_Handler>:
 8000cc4:	e7fe      	b.n	8000cc4 <BusFault_Handler>

08000cc6 <UsageFault_Handler>:
 8000cc6:	e7fe      	b.n	8000cc6 <UsageFault_Handler>

08000cc8 <SVC_Handler>:
 8000cc8:	4770      	bx	lr

08000cca <DebugMon_Handler>:
 8000cca:	4770      	bx	lr

08000ccc <PendSV_Handler>:
 8000ccc:	4770      	bx	lr

08000cce <SysTick_Handler>:
 8000cce:	f000 b851 	b.w	8000d74 <HAL_IncTick>
	...

08000cd4 <OTG_FS_IRQHandler>:
 8000cd4:	4801      	ldr	r0, [pc, #4]	; (8000cdc <OTG_FS_IRQHandler+0x8>)
 8000cd6:	f000 bc4d 	b.w	8001574 <HAL_PCD_IRQHandler>
 8000cda:	bf00      	nop
 8000cdc:	20000a44 	.word	0x20000a44

08000ce0 <HAL_GPIO_EXTI_Callback>:
 8000ce0:	f5b0 5f00 	cmp.w	r0, #8192	; 0x2000
 8000ce4:	b508      	push	{r3, lr}
 8000ce6:	d12d      	bne.n	8000d44 <HAL_GPIO_EXTI_Callback+0x64>
 8000ce8:	f003 fdb4 	bl	8004854 <LBF_Led_OFF>
 8000cec:	4816      	ldr	r0, [pc, #88]	; (8000d48 <HAL_GPIO_EXTI_Callback+0x68>)
 8000cee:	f44f 5100 	mov.w	r1, #8192	; 0x2000
 8000cf2:	f000 f995 	bl	8001020 <HAL_GPIO_ReadPin>
 8000cf6:	2800      	cmp	r0, #0
 8000cf8:	d0f8      	beq.n	8000cec <HAL_GPIO_EXTI_Callback+0xc>
 8000cfa:	f003 fda3 	bl	8004844 <LBF_Led_ON>
 8000cfe:	2064      	movs	r0, #100	; 0x64
 8000d00:	f003 feba 	bl	8004a78 <LBF_Delay_ms>
 8000d04:	f003 fda6 	bl	8004854 <LBF_Led_OFF>
 8000d08:	20c8      	movs	r0, #200	; 0xc8
 8000d0a:	f003 feb5 	bl	8004a78 <LBF_Delay_ms>
 8000d0e:	f003 fd99 	bl	8004844 <LBF_Led_ON>
 8000d12:	2064      	movs	r0, #100	; 0x64
 8000d14:	f003 feb0 	bl	8004a78 <LBF_Delay_ms>
 8000d18:	f003 fd9c 	bl	8004854 <LBF_Led_OFF>
 8000d1c:	20c8      	movs	r0, #200	; 0xc8
 8000d1e:	f003 feab 	bl	8004a78 <LBF_Delay_ms>
 8000d22:	f003 fd8f 	bl	8004844 <LBF_Led_ON>
 8000d26:	2064      	movs	r0, #100	; 0x64
 8000d28:	f003 fea6 	bl	8004a78 <LBF_Delay_ms>
 8000d2c:	f003 fd92 	bl	8004854 <LBF_Led_OFF>
 8000d30:	4806      	ldr	r0, [pc, #24]	; (8000d4c <HAL_GPIO_EXTI_Callback+0x6c>)
 8000d32:	2140      	movs	r1, #64	; 0x40
 8000d34:	2200      	movs	r2, #0
 8000d36:	f000 f979 	bl	800102c <HAL_GPIO_WritePin>
 8000d3a:	f640 30b8 	movw	r0, #3000	; 0xbb8
 8000d3e:	f003 fe9b 	bl	8004a78 <LBF_Delay_ms>
 8000d42:	e7fe      	b.n	8000d42 <HAL_GPIO_EXTI_Callback+0x62>
 8000d44:	bd08      	pop	{r3, pc}
 8000d46:	bf00      	nop
 8000d48:	48000800 	.word	0x48000800
 8000d4c:	48000400 	.word	0x48000400

08000d50 <HAL_InitTick>:
 8000d50:	b510      	push	{r4, lr}
 8000d52:	4604      	mov	r4, r0
 8000d54:	f001 fd16 	bl	8002784 <HAL_RCC_GetHCLKFreq>
 8000d58:	f44f 737a 	mov.w	r3, #1000	; 0x3e8
 8000d5c:	fbb0 f0f3 	udiv	r0, r0, r3
 8000d60:	f000 f866 	bl	8000e30 <HAL_SYSTICK_Config>
 8000d64:	f04f 30ff 	mov.w	r0, #4294967295
 8000d68:	4621      	mov	r1, r4
 8000d6a:	2200      	movs	r2, #0
 8000d6c:	f000 f822 	bl	8000db4 <HAL_NVIC_SetPriority>
 8000d70:	2000      	movs	r0, #0
 8000d72:	bd10      	pop	{r4, pc}

08000d74 <HAL_IncTick>:
 8000d74:	4b02      	ldr	r3, [pc, #8]	; (8000d80 <HAL_IncTick+0xc>)
 8000d76:	681a      	ldr	r2, [r3, #0]
 8000d78:	3201      	adds	r2, #1
 8000d7a:	601a      	str	r2, [r3, #0]
 8000d7c:	4770      	bx	lr
 8000d7e:	bf00      	nop
 8000d80:	2000045c 	.word	0x2000045c

08000d84 <HAL_GetTick>:
 8000d84:	4b01      	ldr	r3, [pc, #4]	; (8000d8c <HAL_GetTick+0x8>)
 8000d86:	6818      	ldr	r0, [r3, #0]
 8000d88:	4770      	bx	lr
 8000d8a:	bf00      	nop
 8000d8c:	2000045c 	.word	0x2000045c

08000d90 <HAL_NVIC_SetPriorityGrouping>:
 8000d90:	4a07      	ldr	r2, [pc, #28]	; (8000db0 <HAL_NVIC_SetPriorityGrouping+0x20>)
 8000d92:	68d3      	ldr	r3, [r2, #12]
 8000d94:	f423 63e0 	bic.w	r3, r3, #1792	; 0x700
 8000d98:	041b      	lsls	r3, r3, #16
 8000d9a:	0c1b      	lsrs	r3, r3, #16
 8000d9c:	f043 63bf 	orr.w	r3, r3, #100139008	; 0x5f80000
 8000da0:	f443 3300 	orr.w	r3, r3, #131072	; 0x20000
 8000da4:	f000 0007 	and.w	r0, r0, #7
 8000da8:	ea43 2300 	orr.w	r3, r3, r0, lsl #8
 8000dac:	60d3      	str	r3, [r2, #12]
 8000dae:	4770      	bx	lr
 8000db0:	e000ed00 	.word	0xe000ed00

08000db4 <HAL_NVIC_SetPriority>:
 8000db4:	4b16      	ldr	r3, [pc, #88]	; (8000e10 <HAL_NVIC_SetPriority+0x5c>)
 8000db6:	68db      	ldr	r3, [r3, #12]
 8000db8:	f3c3 2302 	ubfx	r3, r3, #8, #3
 8000dbc:	b570      	push	{r4, r5, r6, lr}
 8000dbe:	1d1d      	adds	r5, r3, #4
 8000dc0:	f1c3 0407 	rsb	r4, r3, #7
 8000dc4:	2c04      	cmp	r4, #4
 8000dc6:	bf28      	it	cs
 8000dc8:	2404      	movcs	r4, #4
 8000dca:	2d06      	cmp	r5, #6
 8000dcc:	f04f 0501 	mov.w	r5, #1
 8000dd0:	bf8c      	ite	hi
 8000dd2:	3b03      	subhi	r3, #3
 8000dd4:	2300      	movls	r3, #0
 8000dd6:	fa05 f404 	lsl.w	r4, r5, r4
 8000dda:	fa05 f603 	lsl.w	r6, r5, r3
 8000dde:	3c01      	subs	r4, #1
 8000de0:	3e01      	subs	r6, #1
 8000de2:	4021      	ands	r1, r4
 8000de4:	4032      	ands	r2, r6
 8000de6:	fa01 f303 	lsl.w	r3, r1, r3
 8000dea:	4313      	orrs	r3, r2
 8000dec:	2800      	cmp	r0, #0
 8000dee:	ea4f 1303 	mov.w	r3, r3, lsl #4
 8000df2:	da05      	bge.n	8000e00 <HAL_NVIC_SetPriority+0x4c>
 8000df4:	b2da      	uxtb	r2, r3
 8000df6:	f000 000f 	and.w	r0, r0, #15
 8000dfa:	4b06      	ldr	r3, [pc, #24]	; (8000e14 <HAL_NVIC_SetPriority+0x60>)
 8000dfc:	541a      	strb	r2, [r3, r0]
 8000dfe:	bd70      	pop	{r4, r5, r6, pc}
 8000e00:	f100 4060 	add.w	r0, r0, #3758096384	; 0xe0000000
 8000e04:	f500 4061 	add.w	r0, r0, #57600	; 0xe100
 8000e08:	b2db      	uxtb	r3, r3
 8000e0a:	f880 3300 	strb.w	r3, [r0, #768]	; 0x300
 8000e0e:	bd70      	pop	{r4, r5, r6, pc}
 8000e10:	e000ed00 	.word	0xe000ed00
 8000e14:	e000ed14 	.word	0xe000ed14

08000e18 <HAL_NVIC_EnableIRQ>:
 8000e18:	0942      	lsrs	r2, r0, #5
 8000e1a:	2301      	movs	r3, #1
 8000e1c:	f000 001f 	and.w	r0, r0, #31
 8000e20:	fa03 f000 	lsl.w	r0, r3, r0
 8000e24:	4b01      	ldr	r3, [pc, #4]	; (8000e2c <HAL_NVIC_EnableIRQ+0x14>)
 8000e26:	f843 0022 	str.w	r0, [r3, r2, lsl #2]
 8000e2a:	4770      	bx	lr
 8000e2c:	e000e100 	.word	0xe000e100

08000e30 <HAL_SYSTICK_Config>:
 8000e30:	3801      	subs	r0, #1
 8000e32:	f1b0 7f80 	cmp.w	r0, #16777216	; 0x1000000
 8000e36:	d20a      	bcs.n	8000e4e <HAL_SYSTICK_Config+0x1e>
 8000e38:	4b06      	ldr	r3, [pc, #24]	; (8000e54 <HAL_SYSTICK_Config+0x24>)
 8000e3a:	4a07      	ldr	r2, [pc, #28]	; (8000e58 <HAL_SYSTICK_Config+0x28>)
 8000e3c:	6058      	str	r0, [r3, #4]
 8000e3e:	21f0      	movs	r1, #240	; 0xf0
 8000e40:	f882 1023 	strb.w	r1, [r2, #35]	; 0x23
 8000e44:	2000      	movs	r0, #0
 8000e46:	2207      	movs	r2, #7
 8000e48:	6098      	str	r0, [r3, #8]
 8000e4a:	601a      	str	r2, [r3, #0]
 8000e4c:	4770      	bx	lr
 8000e4e:	2001      	movs	r0, #1
 8000e50:	4770      	bx	lr
 8000e52:	bf00      	nop
 8000e54:	e000e010 	.word	0xe000e010
 8000e58:	e000ed00 	.word	0xe000ed00

08000e5c <HAL_SYSTICK_CLKSourceConfig>:
 8000e5c:	4b04      	ldr	r3, [pc, #16]	; (8000e70 <HAL_SYSTICK_CLKSourceConfig+0x14>)
 8000e5e:	681a      	ldr	r2, [r3, #0]
 8000e60:	2804      	cmp	r0, #4
 8000e62:	bf0c      	ite	eq
 8000e64:	f042 0204 	orreq.w	r2, r2, #4
 8000e68:	f022 0204 	bicne.w	r2, r2, #4
 8000e6c:	601a      	str	r2, [r3, #0]
 8000e6e:	4770      	bx	lr
 8000e70:	e000e010 	.word	0xe000e010

08000e74 <HAL_GPIO_Init>:
 8000e74:	e92d 4ff7 	stmdb	sp!, {r0, r1, r2, r4, r5, r6, r7, r8, r9, sl, fp, lr}
 8000e78:	f8d1 c000 	ldr.w	ip, [r1]
 8000e7c:	2300      	movs	r3, #0
 8000e7e:	fa3c f203 	lsrs.w	r2, ip, r3
 8000e82:	f000 80c4 	beq.w	800100e <HAL_GPIO_Init+0x19a>
 8000e86:	2601      	movs	r6, #1
 8000e88:	409e      	lsls	r6, r3
 8000e8a:	ea16 050c 	ands.w	r5, r6, ip
 8000e8e:	f000 80bc 	beq.w	800100a <HAL_GPIO_Init+0x196>
 8000e92:	684a      	ldr	r2, [r1, #4]
 8000e94:	f022 0710 	bic.w	r7, r2, #16
 8000e98:	2f02      	cmp	r7, #2
 8000e9a:	d116      	bne.n	8000eca <HAL_GPIO_Init+0x56>
 8000e9c:	ea4f 08d3 	mov.w	r8, r3, lsr #3
 8000ea0:	eb00 0888 	add.w	r8, r0, r8, lsl #2
 8000ea4:	f003 0907 	and.w	r9, r3, #7
 8000ea8:	f8d8 4020 	ldr.w	r4, [r8, #32]
 8000eac:	ea4f 0989 	mov.w	r9, r9, lsl #2
 8000eb0:	f04f 0a0f 	mov.w	sl, #15
 8000eb4:	fa0a fa09 	lsl.w	sl, sl, r9
 8000eb8:	ea24 0a0a 	bic.w	sl, r4, sl
 8000ebc:	690c      	ldr	r4, [r1, #16]
 8000ebe:	fa04 f909 	lsl.w	r9, r4, r9
 8000ec2:	ea4a 0409 	orr.w	r4, sl, r9
 8000ec6:	f8c8 4020 	str.w	r4, [r8, #32]
 8000eca:	005c      	lsls	r4, r3, #1
 8000ecc:	f04f 0803 	mov.w	r8, #3
 8000ed0:	f8d0 a000 	ldr.w	sl, [r0]
 8000ed4:	fa08 f804 	lsl.w	r8, r8, r4
 8000ed8:	ea6f 0808 	mvn.w	r8, r8
 8000edc:	f002 0903 	and.w	r9, r2, #3
 8000ee0:	ea08 0a0a 	and.w	sl, r8, sl
 8000ee4:	fa09 fb04 	lsl.w	fp, r9, r4
 8000ee8:	3f01      	subs	r7, #1
 8000eea:	ea4a 0a0b 	orr.w	sl, sl, fp
 8000eee:	2f01      	cmp	r7, #1
 8000ef0:	f8c0 a000 	str.w	sl, [r0]
 8000ef4:	d810      	bhi.n	8000f18 <HAL_GPIO_Init+0xa4>
 8000ef6:	6887      	ldr	r7, [r0, #8]
 8000ef8:	ea08 0a07 	and.w	sl, r8, r7
 8000efc:	68cf      	ldr	r7, [r1, #12]
 8000efe:	40a7      	lsls	r7, r4
 8000f00:	ea4a 0707 	orr.w	r7, sl, r7
 8000f04:	6087      	str	r7, [r0, #8]
 8000f06:	6847      	ldr	r7, [r0, #4]
 8000f08:	ea27 0a06 	bic.w	sl, r7, r6
 8000f0c:	f3c2 1700 	ubfx	r7, r2, #4, #1
 8000f10:	409f      	lsls	r7, r3
 8000f12:	ea4a 0707 	orr.w	r7, sl, r7
 8000f16:	6047      	str	r7, [r0, #4]
 8000f18:	f1b9 0f03 	cmp.w	r9, #3
 8000f1c:	d107      	bne.n	8000f2e <HAL_GPIO_Init+0xba>
 8000f1e:	6ac7      	ldr	r7, [r0, #44]	; 0x2c
 8000f20:	ea27 0606 	bic.w	r6, r7, r6
 8000f24:	f3c2 07c0 	ubfx	r7, r2, #3, #1
 8000f28:	409f      	lsls	r7, r3
 8000f2a:	433e      	orrs	r6, r7
 8000f2c:	62c6      	str	r6, [r0, #44]	; 0x2c
 8000f2e:	68c6      	ldr	r6, [r0, #12]
 8000f30:	ea08 0806 	and.w	r8, r8, r6
 8000f34:	688e      	ldr	r6, [r1, #8]
 8000f36:	40a6      	lsls	r6, r4
 8000f38:	ea48 0406 	orr.w	r4, r8, r6
 8000f3c:	60c4      	str	r4, [r0, #12]
 8000f3e:	00d4      	lsls	r4, r2, #3
 8000f40:	d563      	bpl.n	800100a <HAL_GPIO_Init+0x196>
 8000f42:	4c34      	ldr	r4, [pc, #208]	; (8001014 <HAL_GPIO_Init+0x1a0>)
 8000f44:	6e26      	ldr	r6, [r4, #96]	; 0x60
 8000f46:	f046 0601 	orr.w	r6, r6, #1
 8000f4a:	6626      	str	r6, [r4, #96]	; 0x60
 8000f4c:	6e24      	ldr	r4, [r4, #96]	; 0x60
 8000f4e:	f023 0603 	bic.w	r6, r3, #3
 8000f52:	f106 4680 	add.w	r6, r6, #1073741824	; 0x40000000
 8000f56:	f004 0401 	and.w	r4, r4, #1
 8000f5a:	f506 3680 	add.w	r6, r6, #65536	; 0x10000
 8000f5e:	9401      	str	r4, [sp, #4]
 8000f60:	f003 0703 	and.w	r7, r3, #3
 8000f64:	9c01      	ldr	r4, [sp, #4]
 8000f66:	68b4      	ldr	r4, [r6, #8]
 8000f68:	00bf      	lsls	r7, r7, #2
 8000f6a:	f04f 080f 	mov.w	r8, #15
 8000f6e:	fa08 f807 	lsl.w	r8, r8, r7
 8000f72:	f1b0 4f90 	cmp.w	r0, #1207959552	; 0x48000000
 8000f76:	ea24 0808 	bic.w	r8, r4, r8
 8000f7a:	d019      	beq.n	8000fb0 <HAL_GPIO_Init+0x13c>
 8000f7c:	4c26      	ldr	r4, [pc, #152]	; (8001018 <HAL_GPIO_Init+0x1a4>)
 8000f7e:	42a0      	cmp	r0, r4
 8000f80:	d018      	beq.n	8000fb4 <HAL_GPIO_Init+0x140>
 8000f82:	f504 6480 	add.w	r4, r4, #1024	; 0x400
 8000f86:	42a0      	cmp	r0, r4
 8000f88:	d016      	beq.n	8000fb8 <HAL_GPIO_Init+0x144>
 8000f8a:	f504 6480 	add.w	r4, r4, #1024	; 0x400
 8000f8e:	42a0      	cmp	r0, r4
 8000f90:	d014      	beq.n	8000fbc <HAL_GPIO_Init+0x148>
 8000f92:	f504 6480 	add.w	r4, r4, #1024	; 0x400
 8000f96:	42a0      	cmp	r0, r4
 8000f98:	d012      	beq.n	8000fc0 <HAL_GPIO_Init+0x14c>
 8000f9a:	f504 6480 	add.w	r4, r4, #1024	; 0x400
 8000f9e:	42a0      	cmp	r0, r4
 8000fa0:	d010      	beq.n	8000fc4 <HAL_GPIO_Init+0x150>
 8000fa2:	f504 6480 	add.w	r4, r4, #1024	; 0x400
 8000fa6:	42a0      	cmp	r0, r4
 8000fa8:	bf14      	ite	ne
 8000faa:	2407      	movne	r4, #7
 8000fac:	2406      	moveq	r4, #6
 8000fae:	e00a      	b.n	8000fc6 <HAL_GPIO_Init+0x152>
 8000fb0:	2400      	movs	r4, #0
 8000fb2:	e008      	b.n	8000fc6 <HAL_GPIO_Init+0x152>
 8000fb4:	2401      	movs	r4, #1
 8000fb6:	e006      	b.n	8000fc6 <HAL_GPIO_Init+0x152>
 8000fb8:	2402      	movs	r4, #2
 8000fba:	e004      	b.n	8000fc6 <HAL_GPIO_Init+0x152>
 8000fbc:	2403      	movs	r4, #3
 8000fbe:	e002      	b.n	8000fc6 <HAL_GPIO_Init+0x152>
 8000fc0:	2404      	movs	r4, #4
 8000fc2:	e000      	b.n	8000fc6 <HAL_GPIO_Init+0x152>
 8000fc4:	2405      	movs	r4, #5
 8000fc6:	40bc      	lsls	r4, r7
 8000fc8:	ea44 0408 	orr.w	r4, r4, r8
 8000fcc:	60b4      	str	r4, [r6, #8]
 8000fce:	4c13      	ldr	r4, [pc, #76]	; (800101c <HAL_GPIO_Init+0x1a8>)
 8000fd0:	6827      	ldr	r7, [r4, #0]
 8000fd2:	43ee      	mvns	r6, r5
 8000fd4:	f412 3f80 	tst.w	r2, #65536	; 0x10000
 8000fd8:	bf14      	ite	ne
 8000fda:	432f      	orrne	r7, r5
 8000fdc:	4037      	andeq	r7, r6
 8000fde:	6027      	str	r7, [r4, #0]
 8000fe0:	6867      	ldr	r7, [r4, #4]
 8000fe2:	f412 3f00 	tst.w	r2, #131072	; 0x20000
 8000fe6:	bf14      	ite	ne
 8000fe8:	432f      	orrne	r7, r5
 8000fea:	4037      	andeq	r7, r6
 8000fec:	6067      	str	r7, [r4, #4]
 8000fee:	68a7      	ldr	r7, [r4, #8]
 8000ff0:	f412 1f80 	tst.w	r2, #1048576	; 0x100000
 8000ff4:	bf14      	ite	ne
 8000ff6:	432f      	orrne	r7, r5
 8000ff8:	4037      	andeq	r7, r6
 8000ffa:	60a7      	str	r7, [r4, #8]
 8000ffc:	68e7      	ldr	r7, [r4, #12]
 8000ffe:	0292      	lsls	r2, r2, #10
 8001000:	bf54      	ite	pl
 8001002:	ea06 0507 	andpl.w	r5, r6, r7
 8001006:	433d      	orrmi	r5, r7
 8001008:	60e5      	str	r5, [r4, #12]
 800100a:	3301      	adds	r3, #1
 800100c:	e737      	b.n	8000e7e <HAL_GPIO_Init+0xa>
 800100e:	b003      	add	sp, #12
 8001010:	e8bd 8ff0 	ldmia.w	sp!, {r4, r5, r6, r7, r8, r9, sl, fp, pc}
 8001014:	40021000 	.word	0x40021000
 8001018:	48000400 	.word	0x48000400
 800101c:	40010400 	.word	0x40010400

08001020 <HAL_GPIO_ReadPin>:
 8001020:	6903      	ldr	r3, [r0, #16]
 8001022:	4219      	tst	r1, r3
 8001024:	bf0c      	ite	eq
 8001026:	2000      	moveq	r0, #0
 8001028:	2001      	movne	r0, #1
 800102a:	4770      	bx	lr

0800102c <HAL_GPIO_WritePin>:
 800102c:	b10a      	cbz	r2, 8001032 <HAL_GPIO_WritePin+0x6>
 800102e:	6181      	str	r1, [r0, #24]
 8001030:	4770      	bx	lr
 8001032:	6281      	str	r1, [r0, #40]	; 0x28
 8001034:	4770      	bx	lr
	...

08001038 <HAL_GPIO_EXTI_IRQHandler>:
 8001038:	b508      	push	{r3, lr}
 800103a:	4b04      	ldr	r3, [pc, #16]	; (800104c <HAL_GPIO_EXTI_IRQHandler+0x14>)
 800103c:	6959      	ldr	r1, [r3, #20]
 800103e:	4208      	tst	r0, r1
 8001040:	d002      	beq.n	8001048 <HAL_GPIO_EXTI_IRQHandler+0x10>
 8001042:	6158      	str	r0, [r3, #20]
 8001044:	f7ff fe4c 	bl	8000ce0 <HAL_GPIO_EXTI_Callback>
 8001048:	bd08      	pop	{r3, pc}
 800104a:	bf00      	nop
 800104c:	40010400 	.word	0x40010400

08001050 <I2C_TransferConfig>:
 8001050:	6800      	ldr	r0, [r0, #0]
 8001052:	b530      	push	{r4, r5, lr}
 8001054:	6845      	ldr	r5, [r0, #4]
 8001056:	9c03      	ldr	r4, [sp, #12]
 8001058:	f025 757f 	bic.w	r5, r5, #66846720	; 0x3fc0000
 800105c:	f425 3559 	bic.w	r5, r5, #222208	; 0x36400
 8001060:	f425 757f 	bic.w	r5, r5, #1020	; 0x3fc
 8001064:	f025 0503 	bic.w	r5, r5, #3
 8001068:	432c      	orrs	r4, r5
 800106a:	4323      	orrs	r3, r4
 800106c:	f3c1 0109 	ubfx	r1, r1, #0, #10
 8001070:	ea43 0401 	orr.w	r4, r3, r1
 8001074:	ea44 4202 	orr.w	r2, r4, r2, lsl #16
 8001078:	6042      	str	r2, [r0, #4]
 800107a:	bd30      	pop	{r4, r5, pc}

0800107c <I2C_IsAcknowledgeFailed>:
 800107c:	b570      	push	{r4, r5, r6, lr}
 800107e:	4604      	mov	r4, r0
 8001080:	460d      	mov	r5, r1
 8001082:	f7ff fe7f 	bl	8000d84 <HAL_GetTick>
 8001086:	6823      	ldr	r3, [r4, #0]
 8001088:	699a      	ldr	r2, [r3, #24]
 800108a:	4606      	mov	r6, r0
 800108c:	f012 0010 	ands.w	r0, r2, #16
 8001090:	d038      	beq.n	8001104 <I2C_IsAcknowledgeFailed+0x88>
 8001092:	f894 2035 	ldrb.w	r2, [r4, #53]	; 0x35
 8001096:	2a12      	cmp	r2, #18
 8001098:	d007      	beq.n	80010aa <I2C_IsAcknowledgeFailed+0x2e>
 800109a:	f894 2035 	ldrb.w	r2, [r4, #53]	; 0x35
 800109e:	2a52      	cmp	r2, #82	; 0x52
 80010a0:	d003      	beq.n	80010aa <I2C_IsAcknowledgeFailed+0x2e>
 80010a2:	f894 2035 	ldrb.w	r2, [r4, #53]	; 0x35
 80010a6:	2a62      	cmp	r2, #98	; 0x62
 80010a8:	d112      	bne.n	80010d0 <I2C_IsAcknowledgeFailed+0x54>
 80010aa:	685a      	ldr	r2, [r3, #4]
 80010ac:	0190      	lsls	r0, r2, #6
 80010ae:	d40f      	bmi.n	80010d0 <I2C_IsAcknowledgeFailed+0x54>
 80010b0:	685a      	ldr	r2, [r3, #4]
 80010b2:	f442 4280 	orr.w	r2, r2, #16384	; 0x4000
 80010b6:	605a      	str	r2, [r3, #4]
 80010b8:	e00a      	b.n	80010d0 <I2C_IsAcknowledgeFailed+0x54>
 80010ba:	699a      	ldr	r2, [r3, #24]
 80010bc:	0692      	lsls	r2, r2, #26
 80010be:	d411      	bmi.n	80010e4 <I2C_IsAcknowledgeFailed+0x68>
 80010c0:	1c69      	adds	r1, r5, #1
 80010c2:	d0fa      	beq.n	80010ba <I2C_IsAcknowledgeFailed+0x3e>
 80010c4:	b135      	cbz	r5, 80010d4 <I2C_IsAcknowledgeFailed+0x58>
 80010c6:	f7ff fe5d 	bl	8000d84 <HAL_GetTick>
 80010ca:	1b80      	subs	r0, r0, r6
 80010cc:	42a8      	cmp	r0, r5
 80010ce:	d801      	bhi.n	80010d4 <I2C_IsAcknowledgeFailed+0x58>
 80010d0:	6823      	ldr	r3, [r4, #0]
 80010d2:	e7f2      	b.n	80010ba <I2C_IsAcknowledgeFailed+0x3e>
 80010d4:	2301      	movs	r3, #1
 80010d6:	f884 3035 	strb.w	r3, [r4, #53]	; 0x35
 80010da:	2300      	movs	r3, #0
 80010dc:	f884 3034 	strb.w	r3, [r4, #52]	; 0x34
 80010e0:	2003      	movs	r0, #3
 80010e2:	bd70      	pop	{r4, r5, r6, pc}
 80010e4:	2210      	movs	r2, #16
 80010e6:	61da      	str	r2, [r3, #28]
 80010e8:	2220      	movs	r2, #32
 80010ea:	61da      	str	r2, [r3, #28]
 80010ec:	6859      	ldr	r1, [r3, #4]
 80010ee:	4a06      	ldr	r2, [pc, #24]	; (8001108 <I2C_IsAcknowledgeFailed+0x8c>)
 80010f0:	400a      	ands	r2, r1
 80010f2:	605a      	str	r2, [r3, #4]
 80010f4:	2304      	movs	r3, #4
 80010f6:	63a3      	str	r3, [r4, #56]	; 0x38
 80010f8:	2001      	movs	r0, #1
 80010fa:	2300      	movs	r3, #0
 80010fc:	f884 0035 	strb.w	r0, [r4, #53]	; 0x35
 8001100:	f884 3034 	strb.w	r3, [r4, #52]	; 0x34
 8001104:	bd70      	pop	{r4, r5, r6, pc}
 8001106:	bf00      	nop
 8001108:	fe00e800 	.word	0xfe00e800

0800110c <I2C_WaitOnFlagUntilTimeout>:
 800110c:	e92d 41f0 	stmdb	sp!, {r4, r5, r6, r7, r8, lr}
 8001110:	4604      	mov	r4, r0
 8001112:	460e      	mov	r6, r1
 8001114:	4690      	mov	r8, r2
 8001116:	461d      	mov	r5, r3
 8001118:	f7ff fe34 	bl	8000d84 <HAL_GetTick>
 800111c:	4607      	mov	r7, r0
 800111e:	f1b8 0f00 	cmp.w	r8, #0
 8001122:	d129      	bne.n	8001178 <I2C_WaitOnFlagUntilTimeout+0x6c>
 8001124:	6822      	ldr	r2, [r4, #0]
 8001126:	6993      	ldr	r3, [r2, #24]
 8001128:	43db      	mvns	r3, r3
 800112a:	f3c3 0310 	ubfx	r3, r3, #0, #17
 800112e:	4233      	tst	r3, r6
 8001130:	d010      	beq.n	8001154 <I2C_WaitOnFlagUntilTimeout+0x48>
 8001132:	1c69      	adds	r1, r5, #1
 8001134:	d0f7      	beq.n	8001126 <I2C_WaitOnFlagUntilTimeout+0x1a>
 8001136:	b18d      	cbz	r5, 800115c <I2C_WaitOnFlagUntilTimeout+0x50>
 8001138:	f7ff fe24 	bl	8000d84 <HAL_GetTick>
 800113c:	1bc0      	subs	r0, r0, r7
 800113e:	42a8      	cmp	r0, r5
 8001140:	d9f0      	bls.n	8001124 <I2C_WaitOnFlagUntilTimeout+0x18>
 8001142:	e00b      	b.n	800115c <I2C_WaitOnFlagUntilTimeout+0x50>
 8001144:	1c6b      	adds	r3, r5, #1
 8001146:	d108      	bne.n	800115a <I2C_WaitOnFlagUntilTimeout+0x4e>
 8001148:	6993      	ldr	r3, [r2, #24]
 800114a:	43db      	mvns	r3, r3
 800114c:	f3c3 0310 	ubfx	r3, r3, #0, #17
 8001150:	4233      	tst	r3, r6
 8001152:	d0f7      	beq.n	8001144 <I2C_WaitOnFlagUntilTimeout+0x38>
 8001154:	2000      	movs	r0, #0
 8001156:	e8bd 81f0 	ldmia.w	sp!, {r4, r5, r6, r7, r8, pc}
 800115a:	b945      	cbnz	r5, 800116e <I2C_WaitOnFlagUntilTimeout+0x62>
 800115c:	2301      	movs	r3, #1
 800115e:	f884 3035 	strb.w	r3, [r4, #53]	; 0x35
 8001162:	2300      	movs	r3, #0
 8001164:	f884 3034 	strb.w	r3, [r4, #52]	; 0x34
 8001168:	2003      	movs	r0, #3
 800116a:	e8bd 81f0 	ldmia.w	sp!, {r4, r5, r6, r7, r8, pc}
 800116e:	f7ff fe09 	bl	8000d84 <HAL_GetTick>
 8001172:	1bc0      	subs	r0, r0, r7
 8001174:	42a8      	cmp	r0, r5
 8001176:	d8f1      	bhi.n	800115c <I2C_WaitOnFlagUntilTimeout+0x50>
 8001178:	6822      	ldr	r2, [r4, #0]
 800117a:	e7e5      	b.n	8001148 <I2C_WaitOnFlagUntilTimeout+0x3c>

0800117c <I2C_WaitOnTXISFlagUntilTimeout>:
 800117c:	b570      	push	{r4, r5, r6, lr}
 800117e:	4604      	mov	r4, r0
 8001180:	460d      	mov	r5, r1
 8001182:	f7ff fdff 	bl	8000d84 <HAL_GetTick>
 8001186:	4606      	mov	r6, r0
 8001188:	6823      	ldr	r3, [r4, #0]
 800118a:	699b      	ldr	r3, [r3, #24]
 800118c:	079b      	lsls	r3, r3, #30
 800118e:	d419      	bmi.n	80011c4 <I2C_WaitOnTXISFlagUntilTimeout+0x48>
 8001190:	4620      	mov	r0, r4
 8001192:	4629      	mov	r1, r5
 8001194:	f7ff ff72 	bl	800107c <I2C_IsAcknowledgeFailed>
 8001198:	b9b0      	cbnz	r0, 80011c8 <I2C_WaitOnTXISFlagUntilTimeout+0x4c>
 800119a:	1c6a      	adds	r2, r5, #1
 800119c:	d0f4      	beq.n	8001188 <I2C_WaitOnTXISFlagUntilTimeout+0xc>
 800119e:	b95d      	cbnz	r5, 80011b8 <I2C_WaitOnTXISFlagUntilTimeout+0x3c>
 80011a0:	6ba3      	ldr	r3, [r4, #56]	; 0x38
 80011a2:	f043 0320 	orr.w	r3, r3, #32
 80011a6:	63a3      	str	r3, [r4, #56]	; 0x38
 80011a8:	2301      	movs	r3, #1
 80011aa:	f884 3035 	strb.w	r3, [r4, #53]	; 0x35
 80011ae:	2300      	movs	r3, #0
 80011b0:	f884 3034 	strb.w	r3, [r4, #52]	; 0x34
 80011b4:	2003      	movs	r0, #3
 80011b6:	bd70      	pop	{r4, r5, r6, pc}
 80011b8:	f7ff fde4 	bl	8000d84 <HAL_GetTick>
 80011bc:	1b80      	subs	r0, r0, r6
 80011be:	42a8      	cmp	r0, r5
 80011c0:	d9e2      	bls.n	8001188 <I2C_WaitOnTXISFlagUntilTimeout+0xc>
 80011c2:	e7ed      	b.n	80011a0 <I2C_WaitOnTXISFlagUntilTimeout+0x24>
 80011c4:	2000      	movs	r0, #0
 80011c6:	bd70      	pop	{r4, r5, r6, pc}
 80011c8:	2001      	movs	r0, #1
 80011ca:	bd70      	pop	{r4, r5, r6, pc}

080011cc <I2C_RequestMemoryWrite>:
 80011cc:	b5f7      	push	{r0, r1, r2, r4, r5, r6, r7, lr}
 80011ce:	9d08      	ldr	r5, [sp, #32]
 80011d0:	461f      	mov	r7, r3
 80011d2:	f44f 5300 	mov.w	r3, #8192	; 0x2000
 80011d6:	4604      	mov	r4, r0
 80011d8:	9300      	str	r3, [sp, #0]
 80011da:	4616      	mov	r6, r2
 80011dc:	f04f 7380 	mov.w	r3, #16777216	; 0x1000000
 80011e0:	b2fa      	uxtb	r2, r7
 80011e2:	f7ff ff35 	bl	8001050 <I2C_TransferConfig>
 80011e6:	4620      	mov	r0, r4
 80011e8:	4629      	mov	r1, r5
 80011ea:	f7ff ffc7 	bl	800117c <I2C_WaitOnTXISFlagUntilTimeout>
 80011ee:	b128      	cbz	r0, 80011fc <I2C_RequestMemoryWrite+0x30>
 80011f0:	6ba3      	ldr	r3, [r4, #56]	; 0x38
 80011f2:	2b04      	cmp	r3, #4
 80011f4:	bf0c      	ite	eq
 80011f6:	2001      	moveq	r0, #1
 80011f8:	2003      	movne	r0, #3
 80011fa:	e017      	b.n	800122c <I2C_RequestMemoryWrite+0x60>
 80011fc:	2f01      	cmp	r7, #1
 80011fe:	6823      	ldr	r3, [r4, #0]
 8001200:	d008      	beq.n	8001214 <I2C_RequestMemoryWrite+0x48>
 8001202:	0a32      	lsrs	r2, r6, #8
 8001204:	629a      	str	r2, [r3, #40]	; 0x28
 8001206:	4620      	mov	r0, r4
 8001208:	4629      	mov	r1, r5
 800120a:	f7ff ffb7 	bl	800117c <I2C_WaitOnTXISFlagUntilTimeout>
 800120e:	2800      	cmp	r0, #0
 8001210:	d1ee      	bne.n	80011f0 <I2C_RequestMemoryWrite+0x24>
 8001212:	6823      	ldr	r3, [r4, #0]
 8001214:	b2f6      	uxtb	r6, r6
 8001216:	629e      	str	r6, [r3, #40]	; 0x28
 8001218:	4620      	mov	r0, r4
 800121a:	2180      	movs	r1, #128	; 0x80
 800121c:	2200      	movs	r2, #0
 800121e:	462b      	mov	r3, r5
 8001220:	f7ff ff74 	bl	800110c <I2C_WaitOnFlagUntilTimeout>
 8001224:	2800      	cmp	r0, #0
 8001226:	bf14      	ite	ne
 8001228:	2003      	movne	r0, #3
 800122a:	2000      	moveq	r0, #0
 800122c:	b003      	add	sp, #12
 800122e:	bdf0      	pop	{r4, r5, r6, r7, pc}

08001230 <I2C_RequestMemoryRead>:
 8001230:	b5f7      	push	{r0, r1, r2, r4, r5, r6, r7, lr}
 8001232:	9d08      	ldr	r5, [sp, #32]
 8001234:	461f      	mov	r7, r3
 8001236:	f44f 5300 	mov.w	r3, #8192	; 0x2000
 800123a:	4604      	mov	r4, r0
 800123c:	9300      	str	r3, [sp, #0]
 800123e:	4616      	mov	r6, r2
 8001240:	2300      	movs	r3, #0
 8001242:	b2fa      	uxtb	r2, r7
 8001244:	f7ff ff04 	bl	8001050 <I2C_TransferConfig>
 8001248:	4620      	mov	r0, r4
 800124a:	4629      	mov	r1, r5
 800124c:	f7ff ff96 	bl	800117c <I2C_WaitOnTXISFlagUntilTimeout>
 8001250:	b128      	cbz	r0, 800125e <I2C_RequestMemoryRead+0x2e>
 8001252:	6ba3      	ldr	r3, [r4, #56]	; 0x38
 8001254:	2b04      	cmp	r3, #4
 8001256:	bf0c      	ite	eq
 8001258:	2001      	moveq	r0, #1
 800125a:	2003      	movne	r0, #3
 800125c:	e017      	b.n	800128e <I2C_RequestMemoryRead+0x5e>
 800125e:	2f01      	cmp	r7, #1
 8001260:	6823      	ldr	r3, [r4, #0]
 8001262:	d008      	beq.n	8001276 <I2C_RequestMemoryRead+0x46>
 8001264:	0a32      	lsrs	r2, r6, #8
 8001266:	629a      	str	r2, [r3, #40]	; 0x28
 8001268:	4620      	mov	r0, r4
 800126a:	4629      	mov	r1, r5
 800126c:	f7ff ff86 	bl	800117c <I2C_WaitOnTXISFlagUntilTimeout>
 8001270:	2800      	cmp	r0, #0
 8001272:	d1ee      	bne.n	8001252 <I2C_RequestMemoryRead+0x22>
 8001274:	6823      	ldr	r3, [r4, #0]
 8001276:	b2f6      	uxtb	r6, r6
 8001278:	629e      	str	r6, [r3, #40]	; 0x28
 800127a:	4620      	mov	r0, r4
 800127c:	2140      	movs	r1, #64	; 0x40
 800127e:	2200      	movs	r2, #0
 8001280:	462b      	mov	r3, r5
 8001282:	f7ff ff43 	bl	800110c <I2C_WaitOnFlagUntilTimeout>
 8001286:	2800      	cmp	r0, #0
 8001288:	bf14      	ite	ne
 800128a:	2003      	movne	r0, #3
 800128c:	2000      	moveq	r0, #0
 800128e:	b003      	add	sp, #12
 8001290:	bdf0      	pop	{r4, r5, r6, r7, pc}

08001292 <I2C_WaitOnSTOPFlagUntilTimeout>:
 8001292:	b570      	push	{r4, r5, r6, lr}
 8001294:	4604      	mov	r4, r0
 8001296:	460d      	mov	r5, r1
 8001298:	f7ff fd74 	bl	8000d84 <HAL_GetTick>
 800129c:	4606      	mov	r6, r0
 800129e:	6823      	ldr	r3, [r4, #0]
 80012a0:	699b      	ldr	r3, [r3, #24]
 80012a2:	069b      	lsls	r3, r3, #26
 80012a4:	d417      	bmi.n	80012d6 <I2C_WaitOnSTOPFlagUntilTimeout+0x44>
 80012a6:	4620      	mov	r0, r4
 80012a8:	4629      	mov	r1, r5
 80012aa:	f7ff fee7 	bl	800107c <I2C_IsAcknowledgeFailed>
 80012ae:	b9a0      	cbnz	r0, 80012da <I2C_WaitOnSTOPFlagUntilTimeout+0x48>
 80012b0:	b95d      	cbnz	r5, 80012ca <I2C_WaitOnSTOPFlagUntilTimeout+0x38>
 80012b2:	6ba3      	ldr	r3, [r4, #56]	; 0x38
 80012b4:	f043 0320 	orr.w	r3, r3, #32
 80012b8:	63a3      	str	r3, [r4, #56]	; 0x38
 80012ba:	2301      	movs	r3, #1
 80012bc:	f884 3035 	strb.w	r3, [r4, #53]	; 0x35
 80012c0:	2300      	movs	r3, #0
 80012c2:	f884 3034 	strb.w	r3, [r4, #52]	; 0x34
 80012c6:	2003      	movs	r0, #3
 80012c8:	bd70      	pop	{r4, r5, r6, pc}
 80012ca:	f7ff fd5b 	bl	8000d84 <HAL_GetTick>
 80012ce:	1b80      	subs	r0, r0, r6
 80012d0:	42a8      	cmp	r0, r5
 80012d2:	d9e4      	bls.n	800129e <I2C_WaitOnSTOPFlagUntilTimeout+0xc>
 80012d4:	e7ed      	b.n	80012b2 <I2C_WaitOnSTOPFlagUntilTimeout+0x20>
 80012d6:	2000      	movs	r0, #0
 80012d8:	bd70      	pop	{r4, r5, r6, pc}
 80012da:	2001      	movs	r0, #1
 80012dc:	bd70      	pop	{r4, r5, r6, pc}

080012de <HAL_I2C_MspInit>:
 80012de:	4770      	bx	lr

080012e0 <HAL_I2C_Init>:
 80012e0:	b510      	push	{r4, lr}
 80012e2:	4604      	mov	r4, r0
 80012e4:	2800      	cmp	r0, #0
 80012e6:	d044      	beq.n	8001372 <HAL_I2C_Init+0x92>
 80012e8:	f890 3035 	ldrb.w	r3, [r0, #53]	; 0x35
 80012ec:	f003 02ff 	and.w	r2, r3, #255	; 0xff
 80012f0:	b91b      	cbnz	r3, 80012fa <HAL_I2C_Init+0x1a>
 80012f2:	f880 2034 	strb.w	r2, [r0, #52]	; 0x34
 80012f6:	f7ff fff2 	bl	80012de <HAL_I2C_MspInit>
 80012fa:	2302      	movs	r3, #2
 80012fc:	f884 3035 	strb.w	r3, [r4, #53]	; 0x35
 8001300:	6823      	ldr	r3, [r4, #0]
 8001302:	68e1      	ldr	r1, [r4, #12]
 8001304:	681a      	ldr	r2, [r3, #0]
 8001306:	f022 0201 	bic.w	r2, r2, #1
 800130a:	601a      	str	r2, [r3, #0]
 800130c:	6862      	ldr	r2, [r4, #4]
 800130e:	f022 6270 	bic.w	r2, r2, #251658240	; 0xf000000
 8001312:	611a      	str	r2, [r3, #16]
 8001314:	689a      	ldr	r2, [r3, #8]
 8001316:	f422 4200 	bic.w	r2, r2, #32768	; 0x8000
 800131a:	609a      	str	r2, [r3, #8]
 800131c:	68a2      	ldr	r2, [r4, #8]
 800131e:	b142      	cbz	r2, 8001332 <HAL_I2C_Init+0x52>
 8001320:	2901      	cmp	r1, #1
 8001322:	d103      	bne.n	800132c <HAL_I2C_Init+0x4c>
 8001324:	f442 4200 	orr.w	r2, r2, #32768	; 0x8000
 8001328:	609a      	str	r2, [r3, #8]
 800132a:	e007      	b.n	800133c <HAL_I2C_Init+0x5c>
 800132c:	f442 4204 	orr.w	r2, r2, #33792	; 0x8400
 8001330:	609a      	str	r2, [r3, #8]
 8001332:	2902      	cmp	r1, #2
 8001334:	bf04      	itt	eq
 8001336:	f44f 6200 	moveq.w	r2, #2048	; 0x800
 800133a:	605a      	streq	r2, [r3, #4]
 800133c:	685a      	ldr	r2, [r3, #4]
 800133e:	6961      	ldr	r1, [r4, #20]
 8001340:	f042 7200 	orr.w	r2, r2, #33554432	; 0x2000000
 8001344:	f442 4200 	orr.w	r2, r2, #32768	; 0x8000
 8001348:	605a      	str	r2, [r3, #4]
 800134a:	6922      	ldr	r2, [r4, #16]
 800134c:	4311      	orrs	r1, r2
 800134e:	69a2      	ldr	r2, [r4, #24]
 8001350:	ea41 2202 	orr.w	r2, r1, r2, lsl #8
 8001354:	60da      	str	r2, [r3, #12]
 8001356:	6a21      	ldr	r1, [r4, #32]
 8001358:	69e2      	ldr	r2, [r4, #28]
 800135a:	430a      	orrs	r2, r1
 800135c:	601a      	str	r2, [r3, #0]
 800135e:	681a      	ldr	r2, [r3, #0]
 8001360:	f042 0201 	orr.w	r2, r2, #1
 8001364:	601a      	str	r2, [r3, #0]
 8001366:	2000      	movs	r0, #0
 8001368:	2301      	movs	r3, #1
 800136a:	63a0      	str	r0, [r4, #56]	; 0x38
 800136c:	f884 3035 	strb.w	r3, [r4, #53]	; 0x35
 8001370:	bd10      	pop	{r4, pc}
 8001372:	2001      	movs	r0, #1
 8001374:	bd10      	pop	{r4, pc}
	...

08001378 <HAL_I2C_Mem_Write>:
 8001378:	e92d 47f3 	stmdb	sp!, {r0, r1, r4, r5, r6, r7, r8, r9, sl, lr}
 800137c:	f890 a035 	ldrb.w	sl, [r0, #53]	; 0x35
 8001380:	f8dd 8028 	ldr.w	r8, [sp, #40]	; 0x28
 8001384:	f8bd 502c 	ldrh.w	r5, [sp, #44]	; 0x2c
 8001388:	f8dd 9030 	ldr.w	r9, [sp, #48]	; 0x30
 800138c:	fa5f fa8a 	uxtb.w	sl, sl
 8001390:	f1ba 0f01 	cmp.w	sl, #1
 8001394:	4604      	mov	r4, r0
 8001396:	460f      	mov	r7, r1
 8001398:	d161      	bne.n	800145e <HAL_I2C_Mem_Write+0xe6>
 800139a:	f1b8 0f00 	cmp.w	r8, #0
 800139e:	d101      	bne.n	80013a4 <HAL_I2C_Mem_Write+0x2c>
 80013a0:	2001      	movs	r0, #1
 80013a2:	e05f      	b.n	8001464 <HAL_I2C_Mem_Write+0xec>
 80013a4:	2d00      	cmp	r5, #0
 80013a6:	d0fb      	beq.n	80013a0 <HAL_I2C_Mem_Write+0x28>
 80013a8:	6806      	ldr	r6, [r0, #0]
 80013aa:	69b6      	ldr	r6, [r6, #24]
 80013ac:	f416 4600 	ands.w	r6, r6, #32768	; 0x8000
 80013b0:	d155      	bne.n	800145e <HAL_I2C_Mem_Write+0xe6>
 80013b2:	f890 c034 	ldrb.w	ip, [r0, #52]	; 0x34
 80013b6:	f1bc 0f01 	cmp.w	ip, #1
 80013ba:	d050      	beq.n	800145e <HAL_I2C_Mem_Write+0xe6>
 80013bc:	f04f 0e52 	mov.w	lr, #82	; 0x52
 80013c0:	f880 e035 	strb.w	lr, [r0, #53]	; 0x35
 80013c4:	f880 a034 	strb.w	sl, [r0, #52]	; 0x34
 80013c8:	6386      	str	r6, [r0, #56]	; 0x38
 80013ca:	f8cd 9000 	str.w	r9, [sp]
 80013ce:	f7ff fefd 	bl	80011cc <I2C_RequestMemoryWrite>
 80013d2:	b118      	cbz	r0, 80013dc <HAL_I2C_Mem_Write+0x64>
 80013d4:	6ba3      	ldr	r3, [r4, #56]	; 0x38
 80013d6:	f884 6034 	strb.w	r6, [r4, #52]	; 0x34
 80013da:	e030      	b.n	800143e <HAL_I2C_Mem_Write+0xc6>
 80013dc:	9000      	str	r0, [sp, #0]
 80013de:	2dff      	cmp	r5, #255	; 0xff
 80013e0:	4620      	mov	r0, r4
 80013e2:	4639      	mov	r1, r7
 80013e4:	d81c      	bhi.n	8001420 <HAL_I2C_Mem_Write+0xa8>
 80013e6:	b2ea      	uxtb	r2, r5
 80013e8:	f04f 7300 	mov.w	r3, #33554432	; 0x2000000
 80013ec:	f7ff fe30 	bl	8001050 <I2C_TransferConfig>
 80013f0:	462e      	mov	r6, r5
 80013f2:	4620      	mov	r0, r4
 80013f4:	4649      	mov	r1, r9
 80013f6:	f7ff fec1 	bl	800117c <I2C_WaitOnTXISFlagUntilTimeout>
 80013fa:	b9f8      	cbnz	r0, 800143c <HAL_I2C_Mem_Write+0xc4>
 80013fc:	6823      	ldr	r3, [r4, #0]
 80013fe:	f818 2b01 	ldrb.w	r2, [r8], #1
 8001402:	629a      	str	r2, [r3, #40]	; 0x28
 8001404:	3d01      	subs	r5, #1
 8001406:	3e01      	subs	r6, #1
 8001408:	b2ad      	uxth	r5, r5
 800140a:	d110      	bne.n	800142e <HAL_I2C_Mem_Write+0xb6>
 800140c:	b18d      	cbz	r5, 8001432 <HAL_I2C_Mem_Write+0xba>
 800140e:	4620      	mov	r0, r4
 8001410:	2180      	movs	r1, #128	; 0x80
 8001412:	4632      	mov	r2, r6
 8001414:	464b      	mov	r3, r9
 8001416:	f7ff fe79 	bl	800110c <I2C_WaitOnFlagUntilTimeout>
 800141a:	bb10      	cbnz	r0, 8001462 <HAL_I2C_Mem_Write+0xea>
 800141c:	9600      	str	r6, [sp, #0]
 800141e:	e7de      	b.n	80013de <HAL_I2C_Mem_Write+0x66>
 8001420:	22ff      	movs	r2, #255	; 0xff
 8001422:	f04f 7380 	mov.w	r3, #16777216	; 0x1000000
 8001426:	f7ff fe13 	bl	8001050 <I2C_TransferConfig>
 800142a:	26ff      	movs	r6, #255	; 0xff
 800142c:	e7e1      	b.n	80013f2 <HAL_I2C_Mem_Write+0x7a>
 800142e:	2d00      	cmp	r5, #0
 8001430:	d1df      	bne.n	80013f2 <HAL_I2C_Mem_Write+0x7a>
 8001432:	4620      	mov	r0, r4
 8001434:	2119      	movs	r1, #25
 8001436:	f7ff ff2c 	bl	8001292 <I2C_WaitOnSTOPFlagUntilTimeout>
 800143a:	b118      	cbz	r0, 8001444 <HAL_I2C_Mem_Write+0xcc>
 800143c:	6ba3      	ldr	r3, [r4, #56]	; 0x38
 800143e:	2b04      	cmp	r3, #4
 8001440:	d10f      	bne.n	8001462 <HAL_I2C_Mem_Write+0xea>
 8001442:	e7ad      	b.n	80013a0 <HAL_I2C_Mem_Write+0x28>
 8001444:	6823      	ldr	r3, [r4, #0]
 8001446:	2220      	movs	r2, #32
 8001448:	61da      	str	r2, [r3, #28]
 800144a:	6859      	ldr	r1, [r3, #4]
 800144c:	4a07      	ldr	r2, [pc, #28]	; (800146c <HAL_I2C_Mem_Write+0xf4>)
 800144e:	400a      	ands	r2, r1
 8001450:	605a      	str	r2, [r3, #4]
 8001452:	2301      	movs	r3, #1
 8001454:	f884 3035 	strb.w	r3, [r4, #53]	; 0x35
 8001458:	f884 0034 	strb.w	r0, [r4, #52]	; 0x34
 800145c:	e002      	b.n	8001464 <HAL_I2C_Mem_Write+0xec>
 800145e:	2002      	movs	r0, #2
 8001460:	e000      	b.n	8001464 <HAL_I2C_Mem_Write+0xec>
 8001462:	2003      	movs	r0, #3
 8001464:	b002      	add	sp, #8
 8001466:	e8bd 87f0 	ldmia.w	sp!, {r4, r5, r6, r7, r8, r9, sl, pc}
 800146a:	bf00      	nop
 800146c:	fe00e800 	.word	0xfe00e800

08001470 <HAL_I2C_Mem_Read>:
 8001470:	e92d 47f3 	stmdb	sp!, {r0, r1, r4, r5, r6, r7, r8, r9, sl, lr}
 8001474:	f890 a035 	ldrb.w	sl, [r0, #53]	; 0x35
 8001478:	f8dd 8028 	ldr.w	r8, [sp, #40]	; 0x28
 800147c:	f8bd 502c 	ldrh.w	r5, [sp, #44]	; 0x2c
 8001480:	f8dd 9030 	ldr.w	r9, [sp, #48]	; 0x30
 8001484:	fa5f fa8a 	uxtb.w	sl, sl
 8001488:	f1ba 0f01 	cmp.w	sl, #1
 800148c:	4604      	mov	r4, r0
 800148e:	460f      	mov	r7, r1
 8001490:	d169      	bne.n	8001566 <HAL_I2C_Mem_Read+0xf6>
 8001492:	f1b8 0f00 	cmp.w	r8, #0
 8001496:	d101      	bne.n	800149c <HAL_I2C_Mem_Read+0x2c>
 8001498:	2001      	movs	r0, #1
 800149a:	e065      	b.n	8001568 <HAL_I2C_Mem_Read+0xf8>
 800149c:	2d00      	cmp	r5, #0
 800149e:	d0fb      	beq.n	8001498 <HAL_I2C_Mem_Read+0x28>
 80014a0:	6806      	ldr	r6, [r0, #0]
 80014a2:	69b6      	ldr	r6, [r6, #24]
 80014a4:	f416 4600 	ands.w	r6, r6, #32768	; 0x8000
 80014a8:	d15d      	bne.n	8001566 <HAL_I2C_Mem_Read+0xf6>
 80014aa:	f890 c034 	ldrb.w	ip, [r0, #52]	; 0x34
 80014ae:	f1bc 0f01 	cmp.w	ip, #1
 80014b2:	d058      	beq.n	8001566 <HAL_I2C_Mem_Read+0xf6>
 80014b4:	f04f 0e62 	mov.w	lr, #98	; 0x62
 80014b8:	f880 e035 	strb.w	lr, [r0, #53]	; 0x35
 80014bc:	f880 a034 	strb.w	sl, [r0, #52]	; 0x34
 80014c0:	6386      	str	r6, [r0, #56]	; 0x38
 80014c2:	f8cd 9000 	str.w	r9, [sp]
 80014c6:	f7ff feb3 	bl	8001230 <I2C_RequestMemoryRead>
 80014ca:	b118      	cbz	r0, 80014d4 <HAL_I2C_Mem_Read+0x64>
 80014cc:	6ba3      	ldr	r3, [r4, #56]	; 0x38
 80014ce:	f884 6034 	strb.w	r6, [r4, #52]	; 0x34
 80014d2:	e037      	b.n	8001544 <HAL_I2C_Mem_Read+0xd4>
 80014d4:	f44f 5310 	mov.w	r3, #9216	; 0x2400
 80014d8:	2dff      	cmp	r5, #255	; 0xff
 80014da:	9300      	str	r3, [sp, #0]
 80014dc:	4620      	mov	r0, r4
 80014de:	4639      	mov	r1, r7
 80014e0:	d821      	bhi.n	8001526 <HAL_I2C_Mem_Read+0xb6>
 80014e2:	b2ea      	uxtb	r2, r5
 80014e4:	f04f 7300 	mov.w	r3, #33554432	; 0x2000000
 80014e8:	f7ff fdb2 	bl	8001050 <I2C_TransferConfig>
 80014ec:	462e      	mov	r6, r5
 80014ee:	4620      	mov	r0, r4
 80014f0:	2104      	movs	r1, #4
 80014f2:	2200      	movs	r2, #0
 80014f4:	464b      	mov	r3, r9
 80014f6:	f7ff fe09 	bl	800110c <I2C_WaitOnFlagUntilTimeout>
 80014fa:	bb28      	cbnz	r0, 8001548 <HAL_I2C_Mem_Read+0xd8>
 80014fc:	6823      	ldr	r3, [r4, #0]
 80014fe:	3d01      	subs	r5, #1
 8001500:	6a5b      	ldr	r3, [r3, #36]	; 0x24
 8001502:	f808 3b01 	strb.w	r3, [r8], #1
 8001506:	3e01      	subs	r6, #1
 8001508:	b2ad      	uxth	r5, r5
 800150a:	d113      	bne.n	8001534 <HAL_I2C_Mem_Read+0xc4>
 800150c:	b1a5      	cbz	r5, 8001538 <HAL_I2C_Mem_Read+0xc8>
 800150e:	4620      	mov	r0, r4
 8001510:	2180      	movs	r1, #128	; 0x80
 8001512:	4632      	mov	r2, r6
 8001514:	464b      	mov	r3, r9
 8001516:	f7ff fdf9 	bl	800110c <I2C_WaitOnFlagUntilTimeout>
 800151a:	b9a8      	cbnz	r0, 8001548 <HAL_I2C_Mem_Read+0xd8>
 800151c:	9600      	str	r6, [sp, #0]
 800151e:	4620      	mov	r0, r4
 8001520:	4639      	mov	r1, r7
 8001522:	2dff      	cmp	r5, #255	; 0xff
 8001524:	e7dc      	b.n	80014e0 <HAL_I2C_Mem_Read+0x70>
 8001526:	22ff      	movs	r2, #255	; 0xff
 8001528:	f04f 7380 	mov.w	r3, #16777216	; 0x1000000
 800152c:	f7ff fd90 	bl	8001050 <I2C_TransferConfig>
 8001530:	26ff      	movs	r6, #255	; 0xff
 8001532:	e7dc      	b.n	80014ee <HAL_I2C_Mem_Read+0x7e>
 8001534:	2d00      	cmp	r5, #0
 8001536:	d1da      	bne.n	80014ee <HAL_I2C_Mem_Read+0x7e>
 8001538:	4620      	mov	r0, r4
 800153a:	2119      	movs	r1, #25
 800153c:	f7ff fea9 	bl	8001292 <I2C_WaitOnSTOPFlagUntilTimeout>
 8001540:	b120      	cbz	r0, 800154c <HAL_I2C_Mem_Read+0xdc>
 8001542:	6ba3      	ldr	r3, [r4, #56]	; 0x38
 8001544:	2b04      	cmp	r3, #4
 8001546:	d0a7      	beq.n	8001498 <HAL_I2C_Mem_Read+0x28>
 8001548:	2003      	movs	r0, #3
 800154a:	e00d      	b.n	8001568 <HAL_I2C_Mem_Read+0xf8>
 800154c:	6823      	ldr	r3, [r4, #0]
 800154e:	2220      	movs	r2, #32
 8001550:	61da      	str	r2, [r3, #28]
 8001552:	6859      	ldr	r1, [r3, #4]
 8001554:	4a06      	ldr	r2, [pc, #24]	; (8001570 <HAL_I2C_Mem_Read+0x100>)
 8001556:	400a      	ands	r2, r1
 8001558:	605a      	str	r2, [r3, #4]
 800155a:	2301      	movs	r3, #1
 800155c:	f884 3035 	strb.w	r3, [r4, #53]	; 0x35
 8001560:	f884 0034 	strb.w	r0, [r4, #52]	; 0x34
 8001564:	e000      	b.n	8001568 <HAL_I2C_Mem_Read+0xf8>
 8001566:	2002      	movs	r0, #2
 8001568:	b002      	add	sp, #8
 800156a:	e8bd 87f0 	ldmia.w	sp!, {r4, r5, r6, r7, r8, r9, sl, pc}
 800156e:	bf00      	nop
 8001570:	fe00e800 	.word	0xfe00e800

08001574 <HAL_PCD_IRQHandler>:
 8001574:	e92d 4ff0 	stmdb	sp!, {r4, r5, r6, r7, r8, r9, sl, fp, lr}
 8001578:	6807      	ldr	r7, [r0, #0]
 800157a:	b087      	sub	sp, #28
 800157c:	4604      	mov	r4, r0
 800157e:	4638      	mov	r0, r7
 8001580:	f002 fdbf 	bl	8004102 <USB_GetMode>
 8001584:	2800      	cmp	r0, #0
 8001586:	f040 8256 	bne.w	8001a36 <HAL_PCD_IRQHandler+0x4c2>
 800158a:	6820      	ldr	r0, [r4, #0]
 800158c:	f002 fd8c 	bl	80040a8 <USB_ReadInterrupts>
 8001590:	2800      	cmp	r0, #0
 8001592:	f000 8250 	beq.w	8001a36 <HAL_PCD_IRQHandler+0x4c2>
 8001596:	6820      	ldr	r0, [r4, #0]
 8001598:	f002 fd86 	bl	80040a8 <USB_ReadInterrupts>
 800159c:	0780      	lsls	r0, r0, #30
 800159e:	d504      	bpl.n	80015aa <HAL_PCD_IRQHandler+0x36>
 80015a0:	6823      	ldr	r3, [r4, #0]
 80015a2:	695a      	ldr	r2, [r3, #20]
 80015a4:	f002 0202 	and.w	r2, r2, #2
 80015a8:	615a      	str	r2, [r3, #20]
 80015aa:	6820      	ldr	r0, [r4, #0]
 80015ac:	f002 fd7c 	bl	80040a8 <USB_ReadInterrupts>
 80015b0:	f410 2000 	ands.w	r0, r0, #524288	; 0x80000
 80015b4:	d05b      	beq.n	800166e <HAL_PCD_IRQHandler+0xfa>
 80015b6:	6820      	ldr	r0, [r4, #0]
 80015b8:	f002 fd7a 	bl	80040b0 <USB_ReadDevAllOutEpInterrupt>
 80015bc:	f507 6a30 	add.w	sl, r7, #2816	; 0xb00
 80015c0:	4681      	mov	r9, r0
 80015c2:	46a0      	mov	r8, r4
 80015c4:	4655      	mov	r5, sl
 80015c6:	2600      	movs	r6, #0
 80015c8:	f1b9 0f00 	cmp.w	r9, #0
 80015cc:	d050      	beq.n	8001670 <HAL_PCD_IRQHandler+0xfc>
 80015ce:	f019 0f01 	tst.w	r9, #1
 80015d2:	d045      	beq.n	8001660 <HAL_PCD_IRQHandler+0xec>
 80015d4:	b2f3      	uxtb	r3, r6
 80015d6:	4619      	mov	r1, r3
 80015d8:	6820      	ldr	r0, [r4, #0]
 80015da:	9303      	str	r3, [sp, #12]
 80015dc:	f002 fd78 	bl	80040d0 <USB_ReadDevOutEPInterrupt>
 80015e0:	f010 0f01 	tst.w	r0, #1
 80015e4:	4683      	mov	fp, r0
 80015e6:	9b03      	ldr	r3, [sp, #12]
 80015e8:	d02d      	beq.n	8001646 <HAL_PCD_IRQHandler+0xd2>
 80015ea:	2201      	movs	r2, #1
 80015ec:	60aa      	str	r2, [r5, #8]
 80015ee:	f8da 2008 	ldr.w	r2, [sl, #8]
 80015f2:	0411      	lsls	r1, r2, #16
 80015f4:	d41f      	bmi.n	8001636 <HAL_PCD_IRQHandler+0xc2>
 80015f6:	6922      	ldr	r2, [r4, #16]
 80015f8:	2a01      	cmp	r2, #1
 80015fa:	d10c      	bne.n	8001616 <HAL_PCD_IRQHandler+0xa2>
 80015fc:	6929      	ldr	r1, [r5, #16]
 80015fe:	f8d8 21e4 	ldr.w	r2, [r8, #484]	; 0x1e4
 8001602:	f3c1 0112 	ubfx	r1, r1, #0, #19
 8001606:	1a51      	subs	r1, r2, r1
 8001608:	f8c8 11f4 	str.w	r1, [r8, #500]	; 0x1f4
 800160c:	f8d8 11e8 	ldr.w	r1, [r8, #488]	; 0x1e8
 8001610:	440a      	add	r2, r1
 8001612:	f8c8 21e8 	str.w	r2, [r8, #488]	; 0x1e8
 8001616:	4619      	mov	r1, r3
 8001618:	4620      	mov	r0, r4
 800161a:	f004 fa04 	bl	8005a26 <HAL_PCD_DataOutStageCallback>
 800161e:	6921      	ldr	r1, [r4, #16]
 8001620:	2901      	cmp	r1, #1
 8001622:	d108      	bne.n	8001636 <HAL_PCD_IRQHandler+0xc2>
 8001624:	b93e      	cbnz	r6, 8001636 <HAL_PCD_IRQHandler+0xc2>
 8001626:	f8d4 31f0 	ldr.w	r3, [r4, #496]	; 0x1f0
 800162a:	b923      	cbnz	r3, 8001636 <HAL_PCD_IRQHandler+0xc2>
 800162c:	6820      	ldr	r0, [r4, #0]
 800162e:	f504 7261 	add.w	r2, r4, #900	; 0x384
 8001632:	f002 fd85 	bl	8004140 <USB_EP0_OutStart>
 8001636:	f8da 3008 	ldr.w	r3, [sl, #8]
 800163a:	f443 4300 	orr.w	r3, r3, #32768	; 0x8000
 800163e:	f043 0320 	orr.w	r3, r3, #32
 8001642:	f8ca 3008 	str.w	r3, [sl, #8]
 8001646:	f01b 0f08 	tst.w	fp, #8
 800164a:	d004      	beq.n	8001656 <HAL_PCD_IRQHandler+0xe2>
 800164c:	4620      	mov	r0, r4
 800164e:	f004 f9e3 	bl	8005a18 <HAL_PCD_SetupStageCallback>
 8001652:	2308      	movs	r3, #8
 8001654:	60ab      	str	r3, [r5, #8]
 8001656:	f01b 0f10 	tst.w	fp, #16
 800165a:	bf1c      	itt	ne
 800165c:	2310      	movne	r3, #16
 800165e:	60ab      	strne	r3, [r5, #8]
 8001660:	3601      	adds	r6, #1
 8001662:	ea4f 0959 	mov.w	r9, r9, lsr #1
 8001666:	3520      	adds	r5, #32
 8001668:	f108 081c 	add.w	r8, r8, #28
 800166c:	e7ac      	b.n	80015c8 <HAL_PCD_IRQHandler+0x54>
 800166e:	4606      	mov	r6, r0
 8001670:	6820      	ldr	r0, [r4, #0]
 8001672:	f002 fd19 	bl	80040a8 <USB_ReadInterrupts>
 8001676:	0342      	lsls	r2, r0, #13
 8001678:	f140 80aa 	bpl.w	80017d0 <HAL_PCD_IRQHandler+0x25c>
 800167c:	6820      	ldr	r0, [r4, #0]
 800167e:	f002 fd1f 	bl	80040c0 <USB_ReadDevAllInEpInterrupt>
 8001682:	4625      	mov	r5, r4
 8001684:	4682      	mov	sl, r0
 8001686:	f507 6810 	add.w	r8, r7, #2304	; 0x900
 800168a:	2600      	movs	r6, #0
 800168c:	f1ba 0f00 	cmp.w	sl, #0
 8001690:	f000 809e 	beq.w	80017d0 <HAL_PCD_IRQHandler+0x25c>
 8001694:	f01a 0f01 	tst.w	sl, #1
 8001698:	f000 8093 	beq.w	80017c2 <HAL_PCD_IRQHandler+0x24e>
 800169c:	fa5f fb86 	uxtb.w	fp, r6
 80016a0:	6820      	ldr	r0, [r4, #0]
 80016a2:	4659      	mov	r1, fp
 80016a4:	f002 fd1d 	bl	80040e2 <USB_ReadDevInEPInterrupt>
 80016a8:	f010 0f01 	tst.w	r0, #1
 80016ac:	4681      	mov	r9, r0
 80016ae:	d020      	beq.n	80016f2 <HAL_PCD_IRQHandler+0x17e>
 80016b0:	f8d7 1834 	ldr.w	r1, [r7, #2100]	; 0x834
 80016b4:	2301      	movs	r3, #1
 80016b6:	fa03 f006 	lsl.w	r0, r3, r6
 80016ba:	ea21 0100 	bic.w	r1, r1, r0
 80016be:	f8c7 1834 	str.w	r1, [r7, #2100]	; 0x834
 80016c2:	f8c8 3008 	str.w	r3, [r8, #8]
 80016c6:	6923      	ldr	r3, [r4, #16]
 80016c8:	2b01      	cmp	r3, #1
 80016ca:	d103      	bne.n	80016d4 <HAL_PCD_IRQHandler+0x160>
 80016cc:	6c6a      	ldr	r2, [r5, #68]	; 0x44
 80016ce:	6c2b      	ldr	r3, [r5, #64]	; 0x40
 80016d0:	4413      	add	r3, r2
 80016d2:	646b      	str	r3, [r5, #68]	; 0x44
 80016d4:	4659      	mov	r1, fp
 80016d6:	4620      	mov	r0, r4
 80016d8:	f004 f9ae 	bl	8005a38 <HAL_PCD_DataInStageCallback>
 80016dc:	6921      	ldr	r1, [r4, #16]
 80016de:	2901      	cmp	r1, #1
 80016e0:	d107      	bne.n	80016f2 <HAL_PCD_IRQHandler+0x17e>
 80016e2:	b936      	cbnz	r6, 80016f2 <HAL_PCD_IRQHandler+0x17e>
 80016e4:	6ce3      	ldr	r3, [r4, #76]	; 0x4c
 80016e6:	b923      	cbnz	r3, 80016f2 <HAL_PCD_IRQHandler+0x17e>
 80016e8:	6820      	ldr	r0, [r4, #0]
 80016ea:	f504 7261 	add.w	r2, r4, #900	; 0x384
 80016ee:	f002 fd27 	bl	8004140 <USB_EP0_OutStart>
 80016f2:	f019 0f08 	tst.w	r9, #8
 80016f6:	bf1c      	itt	ne
 80016f8:	2308      	movne	r3, #8
 80016fa:	f8c8 3008 	strne.w	r3, [r8, #8]
 80016fe:	f019 0f10 	tst.w	r9, #16
 8001702:	bf1c      	itt	ne
 8001704:	2310      	movne	r3, #16
 8001706:	f8c8 3008 	strne.w	r3, [r8, #8]
 800170a:	f019 0f40 	tst.w	r9, #64	; 0x40
 800170e:	bf1c      	itt	ne
 8001710:	2340      	movne	r3, #64	; 0x40
 8001712:	f8c8 3008 	strne.w	r3, [r8, #8]
 8001716:	f019 0f02 	tst.w	r9, #2
 800171a:	bf1c      	itt	ne
 800171c:	2302      	movne	r3, #2
 800171e:	f8c8 3008 	strne.w	r3, [r8, #8]
 8001722:	f019 0f80 	tst.w	r9, #128	; 0x80
 8001726:	d04c      	beq.n	80017c2 <HAL_PCD_IRQHandler+0x24e>
 8001728:	6d2b      	ldr	r3, [r5, #80]	; 0x50
 800172a:	6cea      	ldr	r2, [r5, #76]	; 0x4c
 800172c:	f8d4 c000 	ldr.w	ip, [r4]
 8001730:	1ad2      	subs	r2, r2, r3
 8001732:	6c2b      	ldr	r3, [r5, #64]	; 0x40
 8001734:	429a      	cmp	r2, r3
 8001736:	bf34      	ite	cc
 8001738:	4691      	movcc	r9, r2
 800173a:	4699      	movcs	r9, r3
 800173c:	f109 0203 	add.w	r2, r9, #3
 8001740:	2304      	movs	r3, #4
 8001742:	fb92 f3f3 	sdiv	r3, r2, r3
 8001746:	9304      	str	r3, [sp, #16]
 8001748:	f50c 6310 	add.w	r3, ip, #2304	; 0x900
 800174c:	eb03 1346 	add.w	r3, r3, r6, lsl #5
 8001750:	9305      	str	r3, [sp, #20]
 8001752:	9a05      	ldr	r2, [sp, #20]
 8001754:	6993      	ldr	r3, [r2, #24]
 8001756:	9a04      	ldr	r2, [sp, #16]
 8001758:	b29b      	uxth	r3, r3
 800175a:	4293      	cmp	r3, r2
 800175c:	d80b      	bhi.n	8001776 <HAL_PCD_IRQHandler+0x202>
 800175e:	f1b9 0f00 	cmp.w	r9, #0
 8001762:	dc2e      	bgt.n	80017c2 <HAL_PCD_IRQHandler+0x24e>
 8001764:	f8dc 1834 	ldr.w	r1, [ip, #2100]	; 0x834
 8001768:	2201      	movs	r2, #1
 800176a:	40b2      	lsls	r2, r6
 800176c:	ea21 0202 	bic.w	r2, r1, r2
 8001770:	f8cc 2834 	str.w	r2, [ip, #2100]	; 0x834
 8001774:	e025      	b.n	80017c2 <HAL_PCD_IRQHandler+0x24e>
 8001776:	6d2a      	ldr	r2, [r5, #80]	; 0x50
 8001778:	6ceb      	ldr	r3, [r5, #76]	; 0x4c
 800177a:	429a      	cmp	r2, r3
 800177c:	d2ef      	bcs.n	800175e <HAL_PCD_IRQHandler+0x1ea>
 800177e:	2b00      	cmp	r3, #0
 8001780:	d0ed      	beq.n	800175e <HAL_PCD_IRQHandler+0x1ea>
 8001782:	6c29      	ldr	r1, [r5, #64]	; 0x40
 8001784:	ebc2 0903 	rsb	r9, r2, r3
 8001788:	4589      	cmp	r9, r1
 800178a:	bf28      	it	cs
 800178c:	4689      	movcs	r9, r1
 800178e:	f109 0203 	add.w	r2, r9, #3
 8001792:	2304      	movs	r3, #4
 8001794:	fb92 f3f3 	sdiv	r3, r2, r3
 8001798:	9304      	str	r3, [sp, #16]
 800179a:	7c23      	ldrb	r3, [r4, #16]
 800179c:	9300      	str	r3, [sp, #0]
 800179e:	4660      	mov	r0, ip
 80017a0:	6c69      	ldr	r1, [r5, #68]	; 0x44
 80017a2:	f8cd c00c 	str.w	ip, [sp, #12]
 80017a6:	fa1f f389 	uxth.w	r3, r9
 80017aa:	465a      	mov	r2, fp
 80017ac:	f002 fae5 	bl	8003d7a <USB_WritePacket>
 80017b0:	6c6b      	ldr	r3, [r5, #68]	; 0x44
 80017b2:	444b      	add	r3, r9
 80017b4:	646b      	str	r3, [r5, #68]	; 0x44
 80017b6:	6d2b      	ldr	r3, [r5, #80]	; 0x50
 80017b8:	444b      	add	r3, r9
 80017ba:	652b      	str	r3, [r5, #80]	; 0x50
 80017bc:	f8dd c00c 	ldr.w	ip, [sp, #12]
 80017c0:	e7c7      	b.n	8001752 <HAL_PCD_IRQHandler+0x1de>
 80017c2:	3601      	adds	r6, #1
 80017c4:	ea4f 0a5a 	mov.w	sl, sl, lsr #1
 80017c8:	351c      	adds	r5, #28
 80017ca:	f108 0820 	add.w	r8, r8, #32
 80017ce:	e75d      	b.n	800168c <HAL_PCD_IRQHandler+0x118>
 80017d0:	6820      	ldr	r0, [r4, #0]
 80017d2:	f002 fc69 	bl	80040a8 <USB_ReadInterrupts>
 80017d6:	2800      	cmp	r0, #0
 80017d8:	da18      	bge.n	800180c <HAL_PCD_IRQHandler+0x298>
 80017da:	f8d7 2804 	ldr.w	r2, [r7, #2052]	; 0x804
 80017de:	f894 33b4 	ldrb.w	r3, [r4, #948]	; 0x3b4
 80017e2:	f022 0201 	bic.w	r2, r2, #1
 80017e6:	2b01      	cmp	r3, #1
 80017e8:	f8c7 2804 	str.w	r2, [r7, #2052]	; 0x804
 80017ec:	d106      	bne.n	80017fc <HAL_PCD_IRQHandler+0x288>
 80017ee:	2100      	movs	r1, #0
 80017f0:	f884 13b4 	strb.w	r1, [r4, #948]	; 0x3b4
 80017f4:	4620      	mov	r0, r4
 80017f6:	f000 fa06 	bl	8001c06 <HAL_PCDEx_LPM_Callback>
 80017fa:	e002      	b.n	8001802 <HAL_PCD_IRQHandler+0x28e>
 80017fc:	4620      	mov	r0, r4
 80017fe:	f004 f938 	bl	8005a72 <HAL_PCD_ResumeCallback>
 8001802:	6823      	ldr	r3, [r4, #0]
 8001804:	695a      	ldr	r2, [r3, #20]
 8001806:	f002 4200 	and.w	r2, r2, #2147483648	; 0x80000000
 800180a:	615a      	str	r2, [r3, #20]
 800180c:	6820      	ldr	r0, [r4, #0]
 800180e:	f002 fc4b 	bl	80040a8 <USB_ReadInterrupts>
 8001812:	0503      	lsls	r3, r0, #20
 8001814:	d50b      	bpl.n	800182e <HAL_PCD_IRQHandler+0x2ba>
 8001816:	f8d7 3808 	ldr.w	r3, [r7, #2056]	; 0x808
 800181a:	07dd      	lsls	r5, r3, #31
 800181c:	d502      	bpl.n	8001824 <HAL_PCD_IRQHandler+0x2b0>
 800181e:	4620      	mov	r0, r4
 8001820:	f004 f923 	bl	8005a6a <HAL_PCD_SuspendCallback>
 8001824:	6823      	ldr	r3, [r4, #0]
 8001826:	695a      	ldr	r2, [r3, #20]
 8001828:	f402 6200 	and.w	r2, r2, #2048	; 0x800
 800182c:	615a      	str	r2, [r3, #20]
 800182e:	6820      	ldr	r0, [r4, #0]
 8001830:	f002 fc3a 	bl	80040a8 <USB_ReadInterrupts>
 8001834:	0100      	lsls	r0, r0, #4
 8001836:	d516      	bpl.n	8001866 <HAL_PCD_IRQHandler+0x2f2>
 8001838:	6823      	ldr	r3, [r4, #0]
 800183a:	695a      	ldr	r2, [r3, #20]
 800183c:	f002 6200 	and.w	r2, r2, #134217728	; 0x8000000
 8001840:	615a      	str	r2, [r3, #20]
 8001842:	f894 23b4 	ldrb.w	r2, [r4, #948]	; 0x3b4
 8001846:	b95a      	cbnz	r2, 8001860 <HAL_PCD_IRQHandler+0x2ec>
 8001848:	6d5b      	ldr	r3, [r3, #84]	; 0x54
 800184a:	2101      	movs	r1, #1
 800184c:	f3c3 0383 	ubfx	r3, r3, #2, #4
 8001850:	f884 13b4 	strb.w	r1, [r4, #948]	; 0x3b4
 8001854:	f8c4 33b8 	str.w	r3, [r4, #952]	; 0x3b8
 8001858:	4620      	mov	r0, r4
 800185a:	f000 f9d4 	bl	8001c06 <HAL_PCDEx_LPM_Callback>
 800185e:	e002      	b.n	8001866 <HAL_PCD_IRQHandler+0x2f2>
 8001860:	4620      	mov	r0, r4
 8001862:	f004 f902 	bl	8005a6a <HAL_PCD_SuspendCallback>
 8001866:	6820      	ldr	r0, [r4, #0]
 8001868:	f002 fc1e 	bl	80040a8 <USB_ReadInterrupts>
 800186c:	04c1      	lsls	r1, r0, #19
 800186e:	d543      	bpl.n	80018f8 <HAL_PCD_IRQHandler+0x384>
 8001870:	f507 6500 	add.w	r5, r7, #2048	; 0x800
 8001874:	686b      	ldr	r3, [r5, #4]
 8001876:	6820      	ldr	r0, [r4, #0]
 8001878:	f023 0301 	bic.w	r3, r3, #1
 800187c:	606b      	str	r3, [r5, #4]
 800187e:	2100      	movs	r1, #0
 8001880:	f002 f97e 	bl	8003b80 <USB_FlushTxFifo>
 8001884:	6860      	ldr	r0, [r4, #4]
 8001886:	f507 6310 	add.w	r3, r7, #2304	; 0x900
 800188a:	2200      	movs	r2, #0
 800188c:	4282      	cmp	r2, r0
 800188e:	d006      	beq.n	800189e <HAL_PCD_IRQHandler+0x32a>
 8001890:	21ff      	movs	r1, #255	; 0xff
 8001892:	6099      	str	r1, [r3, #8]
 8001894:	3201      	adds	r2, #1
 8001896:	f8c3 1208 	str.w	r1, [r3, #520]	; 0x208
 800189a:	3320      	adds	r3, #32
 800189c:	e7f6      	b.n	800188c <HAL_PCD_IRQHandler+0x318>
 800189e:	f04f 33ff 	mov.w	r3, #4294967295
 80018a2:	61ab      	str	r3, [r5, #24]
 80018a4:	69eb      	ldr	r3, [r5, #28]
 80018a6:	f043 1301 	orr.w	r3, r3, #65537	; 0x10001
 80018aa:	61eb      	str	r3, [r5, #28]
 80018ac:	6b23      	ldr	r3, [r4, #48]	; 0x30
 80018ae:	b153      	cbz	r3, 80018c6 <HAL_PCD_IRQHandler+0x352>
 80018b0:	f8d5 3084 	ldr.w	r3, [r5, #132]	; 0x84
 80018b4:	f043 030b 	orr.w	r3, r3, #11
 80018b8:	f8c5 3084 	str.w	r3, [r5, #132]	; 0x84
 80018bc:	6c6b      	ldr	r3, [r5, #68]	; 0x44
 80018be:	f043 030b 	orr.w	r3, r3, #11
 80018c2:	646b      	str	r3, [r5, #68]	; 0x44
 80018c4:	e007      	b.n	80018d6 <HAL_PCD_IRQHandler+0x362>
 80018c6:	696b      	ldr	r3, [r5, #20]
 80018c8:	f043 030b 	orr.w	r3, r3, #11
 80018cc:	616b      	str	r3, [r5, #20]
 80018ce:	692b      	ldr	r3, [r5, #16]
 80018d0:	f043 030b 	orr.w	r3, r3, #11
 80018d4:	612b      	str	r3, [r5, #16]
 80018d6:	f8d7 3800 	ldr.w	r3, [r7, #2048]	; 0x800
 80018da:	6820      	ldr	r0, [r4, #0]
 80018dc:	7c21      	ldrb	r1, [r4, #16]
 80018de:	f423 63fe 	bic.w	r3, r3, #2032	; 0x7f0
 80018e2:	f8c7 3800 	str.w	r3, [r7, #2048]	; 0x800
 80018e6:	f504 7261 	add.w	r2, r4, #900	; 0x384
 80018ea:	f002 fc29 	bl	8004140 <USB_EP0_OutStart>
 80018ee:	6823      	ldr	r3, [r4, #0]
 80018f0:	695a      	ldr	r2, [r3, #20]
 80018f2:	f402 5280 	and.w	r2, r2, #4096	; 0x1000
 80018f6:	615a      	str	r2, [r3, #20]
 80018f8:	6820      	ldr	r0, [r4, #0]
 80018fa:	f002 fbd5 	bl	80040a8 <USB_ReadInterrupts>
 80018fe:	0482      	lsls	r2, r0, #18
 8001900:	d517      	bpl.n	8001932 <HAL_PCD_IRQHandler+0x3be>
 8001902:	6820      	ldr	r0, [r4, #0]
 8001904:	f002 fc01 	bl	800410a <USB_ActivateSetup>
 8001908:	6823      	ldr	r3, [r4, #0]
 800190a:	68da      	ldr	r2, [r3, #12]
 800190c:	f422 5270 	bic.w	r2, r2, #15360	; 0x3c00
 8001910:	60da      	str	r2, [r3, #12]
 8001912:	2203      	movs	r2, #3
 8001914:	60e2      	str	r2, [r4, #12]
 8001916:	2240      	movs	r2, #64	; 0x40
 8001918:	6162      	str	r2, [r4, #20]
 800191a:	68da      	ldr	r2, [r3, #12]
 800191c:	f442 52a0 	orr.w	r2, r2, #5120	; 0x1400
 8001920:	60da      	str	r2, [r3, #12]
 8001922:	4620      	mov	r0, r4
 8001924:	f004 f894 	bl	8005a50 <HAL_PCD_ResetCallback>
 8001928:	6823      	ldr	r3, [r4, #0]
 800192a:	695a      	ldr	r2, [r3, #20]
 800192c:	f402 5200 	and.w	r2, r2, #8192	; 0x2000
 8001930:	615a      	str	r2, [r3, #20]
 8001932:	6820      	ldr	r0, [r4, #0]
 8001934:	f002 fbb8 	bl	80040a8 <USB_ReadInterrupts>
 8001938:	06c3      	lsls	r3, r0, #27
 800193a:	d536      	bpl.n	80019aa <HAL_PCD_IRQHandler+0x436>
 800193c:	6823      	ldr	r3, [r4, #0]
 800193e:	699a      	ldr	r2, [r3, #24]
 8001940:	f022 0210 	bic.w	r2, r2, #16
 8001944:	619a      	str	r2, [r3, #24]
 8001946:	f8d7 8020 	ldr.w	r8, [r7, #32]
 800194a:	251c      	movs	r5, #28
 800194c:	f008 030f 	and.w	r3, r8, #15
 8001950:	fb05 4503 	mla	r5, r5, r3, r4
 8001954:	f3c8 4343 	ubfx	r3, r8, #17, #4
 8001958:	2b02      	cmp	r3, #2
 800195a:	f505 75ee 	add.w	r5, r5, #476	; 0x1dc
 800195e:	d112      	bne.n	8001986 <HAL_PCD_IRQHandler+0x412>
 8001960:	f647 72f0 	movw	r2, #32752	; 0x7ff0
 8001964:	ea08 0202 	and.w	r2, r8, r2
 8001968:	b1d2      	cbz	r2, 80019a0 <HAL_PCD_IRQHandler+0x42c>
 800196a:	ea4f 1812 	mov.w	r8, r2, lsr #4
 800196e:	4642      	mov	r2, r8
 8001970:	4638      	mov	r0, r7
 8001972:	68e9      	ldr	r1, [r5, #12]
 8001974:	f002 fb28 	bl	8003fc8 <USB_ReadPacket>
 8001978:	68eb      	ldr	r3, [r5, #12]
 800197a:	69aa      	ldr	r2, [r5, #24]
 800197c:	4443      	add	r3, r8
 800197e:	4442      	add	r2, r8
 8001980:	60eb      	str	r3, [r5, #12]
 8001982:	61aa      	str	r2, [r5, #24]
 8001984:	e00c      	b.n	80019a0 <HAL_PCD_IRQHandler+0x42c>
 8001986:	2b06      	cmp	r3, #6
 8001988:	d10a      	bne.n	80019a0 <HAL_PCD_IRQHandler+0x42c>
 800198a:	4638      	mov	r0, r7
 800198c:	f504 7161 	add.w	r1, r4, #900	; 0x384
 8001990:	2208      	movs	r2, #8
 8001992:	f002 fb19 	bl	8003fc8 <USB_ReadPacket>
 8001996:	69ab      	ldr	r3, [r5, #24]
 8001998:	f3c8 180a 	ubfx	r8, r8, #4, #11
 800199c:	4443      	add	r3, r8
 800199e:	61ab      	str	r3, [r5, #24]
 80019a0:	6823      	ldr	r3, [r4, #0]
 80019a2:	699a      	ldr	r2, [r3, #24]
 80019a4:	f042 0210 	orr.w	r2, r2, #16
 80019a8:	619a      	str	r2, [r3, #24]
 80019aa:	6820      	ldr	r0, [r4, #0]
 80019ac:	f002 fb7c 	bl	80040a8 <USB_ReadInterrupts>
 80019b0:	0707      	lsls	r7, r0, #28
 80019b2:	d507      	bpl.n	80019c4 <HAL_PCD_IRQHandler+0x450>
 80019b4:	4620      	mov	r0, r4
 80019b6:	f004 f847 	bl	8005a48 <HAL_PCD_SOFCallback>
 80019ba:	6823      	ldr	r3, [r4, #0]
 80019bc:	695a      	ldr	r2, [r3, #20]
 80019be:	f002 0208 	and.w	r2, r2, #8
 80019c2:	615a      	str	r2, [r3, #20]
 80019c4:	6820      	ldr	r0, [r4, #0]
 80019c6:	f002 fb6f 	bl	80040a8 <USB_ReadInterrupts>
 80019ca:	02c5      	lsls	r5, r0, #11
 80019cc:	d508      	bpl.n	80019e0 <HAL_PCD_IRQHandler+0x46c>
 80019ce:	4620      	mov	r0, r4
 80019d0:	b2f1      	uxtb	r1, r6
 80019d2:	f004 f856 	bl	8005a82 <HAL_PCD_ISOINIncompleteCallback>
 80019d6:	6823      	ldr	r3, [r4, #0]
 80019d8:	695a      	ldr	r2, [r3, #20]
 80019da:	f402 1280 	and.w	r2, r2, #1048576	; 0x100000
 80019de:	615a      	str	r2, [r3, #20]
 80019e0:	6820      	ldr	r0, [r4, #0]
 80019e2:	f002 fb61 	bl	80040a8 <USB_ReadInterrupts>
 80019e6:	0280      	lsls	r0, r0, #10
 80019e8:	d508      	bpl.n	80019fc <HAL_PCD_IRQHandler+0x488>
 80019ea:	4620      	mov	r0, r4
 80019ec:	b2f1      	uxtb	r1, r6
 80019ee:	f004 f844 	bl	8005a7a <HAL_PCD_ISOOUTIncompleteCallback>
 80019f2:	6823      	ldr	r3, [r4, #0]
 80019f4:	695a      	ldr	r2, [r3, #20]
 80019f6:	f402 1200 	and.w	r2, r2, #2097152	; 0x200000
 80019fa:	615a      	str	r2, [r3, #20]
 80019fc:	6820      	ldr	r0, [r4, #0]
 80019fe:	f002 fb53 	bl	80040a8 <USB_ReadInterrupts>
 8001a02:	0041      	lsls	r1, r0, #1
 8001a04:	d507      	bpl.n	8001a16 <HAL_PCD_IRQHandler+0x4a2>
 8001a06:	4620      	mov	r0, r4
 8001a08:	f004 f83f 	bl	8005a8a <HAL_PCD_ConnectCallback>
 8001a0c:	6823      	ldr	r3, [r4, #0]
 8001a0e:	695a      	ldr	r2, [r3, #20]
 8001a10:	f002 4280 	and.w	r2, r2, #1073741824	; 0x40000000
 8001a14:	615a      	str	r2, [r3, #20]
 8001a16:	6820      	ldr	r0, [r4, #0]
 8001a18:	f002 fb46 	bl	80040a8 <USB_ReadInterrupts>
 8001a1c:	0742      	lsls	r2, r0, #29
 8001a1e:	d50a      	bpl.n	8001a36 <HAL_PCD_IRQHandler+0x4c2>
 8001a20:	6823      	ldr	r3, [r4, #0]
 8001a22:	685d      	ldr	r5, [r3, #4]
 8001a24:	076b      	lsls	r3, r5, #29
 8001a26:	d502      	bpl.n	8001a2e <HAL_PCD_IRQHandler+0x4ba>
 8001a28:	4620      	mov	r0, r4
 8001a2a:	f004 f832 	bl	8005a92 <HAL_PCD_DisconnectCallback>
 8001a2e:	6823      	ldr	r3, [r4, #0]
 8001a30:	685a      	ldr	r2, [r3, #4]
 8001a32:	4315      	orrs	r5, r2
 8001a34:	605d      	str	r5, [r3, #4]
 8001a36:	b007      	add	sp, #28
 8001a38:	e8bd 8ff0 	ldmia.w	sp!, {r4, r5, r6, r7, r8, r9, sl, fp, pc}

08001a3c <HAL_PCD_SetAddress>:
 8001a3c:	f890 3380 	ldrb.w	r3, [r0, #896]	; 0x380
 8001a40:	2b01      	cmp	r3, #1
 8001a42:	b510      	push	{r4, lr}
 8001a44:	4604      	mov	r4, r0
 8001a46:	d009      	beq.n	8001a5c <HAL_PCD_SetAddress+0x20>
 8001a48:	2301      	movs	r3, #1
 8001a4a:	f880 3380 	strb.w	r3, [r0, #896]	; 0x380
 8001a4e:	6800      	ldr	r0, [r0, #0]
 8001a50:	f002 fb1a 	bl	8004088 <USB_SetDevAddress>
 8001a54:	2000      	movs	r0, #0
 8001a56:	f884 0380 	strb.w	r0, [r4, #896]	; 0x380
 8001a5a:	bd10      	pop	{r4, pc}
 8001a5c:	2002      	movs	r0, #2
 8001a5e:	bd10      	pop	{r4, pc}

08001a60 <HAL_PCD_EP_Open>:
 8001a60:	b570      	push	{r4, r5, r6, lr}
 8001a62:	b2cd      	uxtb	r5, r1
 8001a64:	f015 0f80 	tst.w	r5, #128	; 0x80
 8001a68:	4604      	mov	r4, r0
 8001a6a:	f04f 061c 	mov.w	r6, #28
 8001a6e:	f001 007f 	and.w	r0, r1, #127	; 0x7f
 8001a72:	bf15      	itete	ne
 8001a74:	fb06 4100 	mlane	r1, r6, r0, r4
 8001a78:	fb06 4101 	mlaeq	r1, r6, r1, r4
 8001a7c:	3138      	addne	r1, #56	; 0x38
 8001a7e:	f501 71ee 	addeq.w	r1, r1, #476	; 0x1dc
 8001a82:	b2c0      	uxtb	r0, r0
 8001a84:	09ed      	lsrs	r5, r5, #7
 8001a86:	7008      	strb	r0, [r1, #0]
 8001a88:	704d      	strb	r5, [r1, #1]
 8001a8a:	608a      	str	r2, [r1, #8]
 8001a8c:	70cb      	strb	r3, [r1, #3]
 8001a8e:	b105      	cbz	r5, 8001a92 <HAL_PCD_EP_Open+0x32>
 8001a90:	80c8      	strh	r0, [r1, #6]
 8001a92:	2b02      	cmp	r3, #2
 8001a94:	bf04      	itt	eq
 8001a96:	2300      	moveq	r3, #0
 8001a98:	710b      	strbeq	r3, [r1, #4]
 8001a9a:	f894 3380 	ldrb.w	r3, [r4, #896]	; 0x380
 8001a9e:	2b01      	cmp	r3, #1
 8001aa0:	d009      	beq.n	8001ab6 <HAL_PCD_EP_Open+0x56>
 8001aa2:	2301      	movs	r3, #1
 8001aa4:	f884 3380 	strb.w	r3, [r4, #896]	; 0x380
 8001aa8:	6820      	ldr	r0, [r4, #0]
 8001aaa:	f002 f87b 	bl	8003ba4 <USB_ActivateEndpoint>
 8001aae:	2000      	movs	r0, #0
 8001ab0:	f884 0380 	strb.w	r0, [r4, #896]	; 0x380
 8001ab4:	bd70      	pop	{r4, r5, r6, pc}
 8001ab6:	2002      	movs	r0, #2
 8001ab8:	bd70      	pop	{r4, r5, r6, pc}

08001aba <HAL_PCD_EP_Receive>:
 8001aba:	b538      	push	{r3, r4, r5, lr}
 8001abc:	4604      	mov	r4, r0
 8001abe:	251c      	movs	r5, #28
 8001ac0:	f001 007f 	and.w	r0, r1, #127	; 0x7f
 8001ac4:	fb05 4500 	mla	r5, r5, r0, r4
 8001ac8:	f505 71ee 	add.w	r1, r5, #476	; 0x1dc
 8001acc:	614b      	str	r3, [r1, #20]
 8001ace:	2300      	movs	r3, #0
 8001ad0:	704b      	strb	r3, [r1, #1]
 8001ad2:	60ca      	str	r2, [r1, #12]
 8001ad4:	618b      	str	r3, [r1, #24]
 8001ad6:	f885 01dc 	strb.w	r0, [r5, #476]	; 0x1dc
 8001ada:	6923      	ldr	r3, [r4, #16]
 8001adc:	2b01      	cmp	r3, #1
 8001ade:	bf08      	it	eq
 8001ae0:	610a      	streq	r2, [r1, #16]
 8001ae2:	f894 2380 	ldrb.w	r2, [r4, #896]	; 0x380
 8001ae6:	2a01      	cmp	r2, #1
 8001ae8:	d00f      	beq.n	8001b0a <HAL_PCD_EP_Receive+0x50>
 8001aea:	2201      	movs	r2, #1
 8001aec:	f884 2380 	strb.w	r2, [r4, #896]	; 0x380
 8001af0:	b2da      	uxtb	r2, r3
 8001af2:	b918      	cbnz	r0, 8001afc <HAL_PCD_EP_Receive+0x42>
 8001af4:	6820      	ldr	r0, [r4, #0]
 8001af6:	f002 f898 	bl	8003c2a <USB_EP0StartXfer>
 8001afa:	e002      	b.n	8001b02 <HAL_PCD_EP_Receive+0x48>
 8001afc:	6820      	ldr	r0, [r4, #0]
 8001afe:	f002 f94f 	bl	8003da0 <USB_EPStartXfer>
 8001b02:	2000      	movs	r0, #0
 8001b04:	f884 0380 	strb.w	r0, [r4, #896]	; 0x380
 8001b08:	bd38      	pop	{r3, r4, r5, pc}
 8001b0a:	2002      	movs	r0, #2
 8001b0c:	bd38      	pop	{r3, r4, r5, pc}

08001b0e <HAL_PCD_EP_Transmit>:
 8001b0e:	b538      	push	{r3, r4, r5, lr}
 8001b10:	4604      	mov	r4, r0
 8001b12:	251c      	movs	r5, #28
 8001b14:	f001 007f 	and.w	r0, r1, #127	; 0x7f
 8001b18:	4345      	muls	r5, r0
 8001b1a:	3538      	adds	r5, #56	; 0x38
 8001b1c:	1961      	adds	r1, r4, r5
 8001b1e:	614b      	str	r3, [r1, #20]
 8001b20:	2300      	movs	r3, #0
 8001b22:	618b      	str	r3, [r1, #24]
 8001b24:	2301      	movs	r3, #1
 8001b26:	704b      	strb	r3, [r1, #1]
 8001b28:	60ca      	str	r2, [r1, #12]
 8001b2a:	5560      	strb	r0, [r4, r5]
 8001b2c:	6923      	ldr	r3, [r4, #16]
 8001b2e:	2b01      	cmp	r3, #1
 8001b30:	bf08      	it	eq
 8001b32:	610a      	streq	r2, [r1, #16]
 8001b34:	f894 2380 	ldrb.w	r2, [r4, #896]	; 0x380
 8001b38:	2a01      	cmp	r2, #1
 8001b3a:	d00f      	beq.n	8001b5c <HAL_PCD_EP_Transmit+0x4e>
 8001b3c:	2201      	movs	r2, #1
 8001b3e:	f884 2380 	strb.w	r2, [r4, #896]	; 0x380
 8001b42:	b2da      	uxtb	r2, r3
 8001b44:	b918      	cbnz	r0, 8001b4e <HAL_PCD_EP_Transmit+0x40>
 8001b46:	6820      	ldr	r0, [r4, #0]
 8001b48:	f002 f86f 	bl	8003c2a <USB_EP0StartXfer>
 8001b4c:	e002      	b.n	8001b54 <HAL_PCD_EP_Transmit+0x46>
 8001b4e:	6820      	ldr	r0, [r4, #0]
 8001b50:	f002 f926 	bl	8003da0 <USB_EPStartXfer>
 8001b54:	2000      	movs	r0, #0
 8001b56:	f884 0380 	strb.w	r0, [r4, #896]	; 0x380
 8001b5a:	bd38      	pop	{r3, r4, r5, pc}
 8001b5c:	2002      	movs	r0, #2
 8001b5e:	bd38      	pop	{r3, r4, r5, pc}

08001b60 <HAL_PCD_EP_SetStall>:
 8001b60:	b2ca      	uxtb	r2, r1
 8001b62:	b538      	push	{r3, r4, r5, lr}
 8001b64:	f012 0f80 	tst.w	r2, #128	; 0x80
 8001b68:	f001 057f 	and.w	r5, r1, #127	; 0x7f
 8001b6c:	f04f 031c 	mov.w	r3, #28
 8001b70:	bf15      	itete	ne
 8001b72:	fb03 0105 	mlane	r1, r3, r5, r0
 8001b76:	fb03 0101 	mlaeq	r1, r3, r1, r0
 8001b7a:	3138      	addne	r1, #56	; 0x38
 8001b7c:	f501 71ee 	addeq.w	r1, r1, #476	; 0x1dc
 8001b80:	2301      	movs	r3, #1
 8001b82:	09d2      	lsrs	r2, r2, #7
 8001b84:	b2ed      	uxtb	r5, r5
 8001b86:	708b      	strb	r3, [r1, #2]
 8001b88:	700d      	strb	r5, [r1, #0]
 8001b8a:	704a      	strb	r2, [r1, #1]
 8001b8c:	f890 2380 	ldrb.w	r2, [r0, #896]	; 0x380
 8001b90:	429a      	cmp	r2, r3
 8001b92:	4604      	mov	r4, r0
 8001b94:	d00f      	beq.n	8001bb6 <HAL_PCD_EP_SetStall+0x56>
 8001b96:	f880 3380 	strb.w	r3, [r0, #896]	; 0x380
 8001b9a:	6800      	ldr	r0, [r0, #0]
 8001b9c:	f002 fa25 	bl	8003fea <USB_EPSetStall>
 8001ba0:	b92d      	cbnz	r5, 8001bae <HAL_PCD_EP_SetStall+0x4e>
 8001ba2:	6820      	ldr	r0, [r4, #0]
 8001ba4:	7c21      	ldrb	r1, [r4, #16]
 8001ba6:	f504 7261 	add.w	r2, r4, #900	; 0x384
 8001baa:	f002 fac9 	bl	8004140 <USB_EP0_OutStart>
 8001bae:	2000      	movs	r0, #0
 8001bb0:	f884 0380 	strb.w	r0, [r4, #896]	; 0x380
 8001bb4:	bd38      	pop	{r3, r4, r5, pc}
 8001bb6:	2002      	movs	r0, #2
 8001bb8:	bd38      	pop	{r3, r4, r5, pc}

08001bba <HAL_PCD_EP_ClrStall>:
 8001bba:	b538      	push	{r3, r4, r5, lr}
 8001bbc:	b2cb      	uxtb	r3, r1
 8001bbe:	f013 0f80 	tst.w	r3, #128	; 0x80
 8001bc2:	f001 027f 	and.w	r2, r1, #127	; 0x7f
 8001bc6:	4604      	mov	r4, r0
 8001bc8:	f04f 001c 	mov.w	r0, #28
 8001bcc:	bf15      	itete	ne
 8001bce:	fb00 4102 	mlane	r1, r0, r2, r4
 8001bd2:	fb00 4101 	mlaeq	r1, r0, r1, r4
 8001bd6:	3138      	addne	r1, #56	; 0x38
 8001bd8:	f501 71ee 	addeq.w	r1, r1, #476	; 0x1dc
 8001bdc:	09db      	lsrs	r3, r3, #7
 8001bde:	2500      	movs	r5, #0
 8001be0:	708d      	strb	r5, [r1, #2]
 8001be2:	700a      	strb	r2, [r1, #0]
 8001be4:	704b      	strb	r3, [r1, #1]
 8001be6:	f894 3380 	ldrb.w	r3, [r4, #896]	; 0x380
 8001bea:	2b01      	cmp	r3, #1
 8001bec:	d009      	beq.n	8001c02 <HAL_PCD_EP_ClrStall+0x48>
 8001bee:	2301      	movs	r3, #1
 8001bf0:	f884 3380 	strb.w	r3, [r4, #896]	; 0x380
 8001bf4:	6820      	ldr	r0, [r4, #0]
 8001bf6:	f002 fa2a 	bl	800404e <USB_EPClearStall>
 8001bfa:	f884 5380 	strb.w	r5, [r4, #896]	; 0x380
 8001bfe:	4628      	mov	r0, r5
 8001c00:	bd38      	pop	{r3, r4, r5, pc}
 8001c02:	2002      	movs	r0, #2
 8001c04:	bd38      	pop	{r3, r4, r5, pc}

08001c06 <HAL_PCDEx_LPM_Callback>:
 8001c06:	4770      	bx	lr

08001c08 <HAL_PWREx_GetVoltageRange>:
 8001c08:	4b02      	ldr	r3, [pc, #8]	; (8001c14 <HAL_PWREx_GetVoltageRange+0xc>)
 8001c0a:	6818      	ldr	r0, [r3, #0]
 8001c0c:	f400 60c0 	and.w	r0, r0, #1536	; 0x600
 8001c10:	4770      	bx	lr
 8001c12:	bf00      	nop
 8001c14:	40007000 	.word	0x40007000

08001c18 <HAL_PWREx_ControlVoltageScaling>:
 8001c18:	4b17      	ldr	r3, [pc, #92]	; (8001c78 <HAL_PWREx_ControlVoltageScaling+0x60>)
 8001c1a:	681a      	ldr	r2, [r3, #0]
 8001c1c:	f5b0 7f00 	cmp.w	r0, #512	; 0x200
 8001c20:	f402 62c0 	and.w	r2, r2, #1536	; 0x600
 8001c24:	d11d      	bne.n	8001c62 <HAL_PWREx_ControlVoltageScaling+0x4a>
 8001c26:	f5b2 7f00 	cmp.w	r2, #512	; 0x200
 8001c2a:	d023      	beq.n	8001c74 <HAL_PWREx_ControlVoltageScaling+0x5c>
 8001c2c:	681a      	ldr	r2, [r3, #0]
 8001c2e:	f422 62c0 	bic.w	r2, r2, #1536	; 0x600
 8001c32:	f442 7200 	orr.w	r2, r2, #512	; 0x200
 8001c36:	601a      	str	r2, [r3, #0]
 8001c38:	4b10      	ldr	r3, [pc, #64]	; (8001c7c <HAL_PWREx_ControlVoltageScaling+0x64>)
 8001c3a:	681a      	ldr	r2, [r3, #0]
 8001c3c:	4b10      	ldr	r3, [pc, #64]	; (8001c80 <HAL_PWREx_ControlVoltageScaling+0x68>)
 8001c3e:	fbb2 f3f3 	udiv	r3, r2, r3
 8001c42:	2232      	movs	r2, #50	; 0x32
 8001c44:	4353      	muls	r3, r2
 8001c46:	4a0c      	ldr	r2, [pc, #48]	; (8001c78 <HAL_PWREx_ControlVoltageScaling+0x60>)
 8001c48:	b123      	cbz	r3, 8001c54 <HAL_PWREx_ControlVoltageScaling+0x3c>
 8001c4a:	6951      	ldr	r1, [r2, #20]
 8001c4c:	0549      	lsls	r1, r1, #21
 8001c4e:	d501      	bpl.n	8001c54 <HAL_PWREx_ControlVoltageScaling+0x3c>
 8001c50:	3b01      	subs	r3, #1
 8001c52:	e7f8      	b.n	8001c46 <HAL_PWREx_ControlVoltageScaling+0x2e>
 8001c54:	6953      	ldr	r3, [r2, #20]
 8001c56:	f413 6f80 	tst.w	r3, #1024	; 0x400
 8001c5a:	bf0c      	ite	eq
 8001c5c:	2000      	moveq	r0, #0
 8001c5e:	2003      	movne	r0, #3
 8001c60:	4770      	bx	lr
 8001c62:	f5b2 6f80 	cmp.w	r2, #1024	; 0x400
 8001c66:	d005      	beq.n	8001c74 <HAL_PWREx_ControlVoltageScaling+0x5c>
 8001c68:	681a      	ldr	r2, [r3, #0]
 8001c6a:	f422 62c0 	bic.w	r2, r2, #1536	; 0x600
 8001c6e:	f442 6280 	orr.w	r2, r2, #1024	; 0x400
 8001c72:	601a      	str	r2, [r3, #0]
 8001c74:	2000      	movs	r0, #0
 8001c76:	4770      	bx	lr
 8001c78:	40007000 	.word	0x40007000
 8001c7c:	20000000 	.word	0x20000000
 8001c80:	000f4240 	.word	0x000f4240

08001c84 <RCC_SetFlashLatencyFromMSIRange>:
 8001c84:	b537      	push	{r0, r1, r2, r4, r5, lr}
 8001c86:	4c1e      	ldr	r4, [pc, #120]	; (8001d00 <RCC_SetFlashLatencyFromMSIRange+0x7c>)
 8001c88:	6da3      	ldr	r3, [r4, #88]	; 0x58
 8001c8a:	00da      	lsls	r2, r3, #3
 8001c8c:	4605      	mov	r5, r0
 8001c8e:	d502      	bpl.n	8001c96 <RCC_SetFlashLatencyFromMSIRange+0x12>
 8001c90:	f7ff ffba 	bl	8001c08 <HAL_PWREx_GetVoltageRange>
 8001c94:	e00e      	b.n	8001cb4 <RCC_SetFlashLatencyFromMSIRange+0x30>
 8001c96:	6da3      	ldr	r3, [r4, #88]	; 0x58
 8001c98:	f043 5380 	orr.w	r3, r3, #268435456	; 0x10000000
 8001c9c:	65a3      	str	r3, [r4, #88]	; 0x58
 8001c9e:	6da3      	ldr	r3, [r4, #88]	; 0x58
 8001ca0:	f003 5380 	and.w	r3, r3, #268435456	; 0x10000000
 8001ca4:	9301      	str	r3, [sp, #4]
 8001ca6:	9b01      	ldr	r3, [sp, #4]
 8001ca8:	f7ff ffae 	bl	8001c08 <HAL_PWREx_GetVoltageRange>
 8001cac:	6da3      	ldr	r3, [r4, #88]	; 0x58
 8001cae:	f023 5380 	bic.w	r3, r3, #268435456	; 0x10000000
 8001cb2:	65a3      	str	r3, [r4, #88]	; 0x58
 8001cb4:	f5b0 7f00 	cmp.w	r0, #512	; 0x200
 8001cb8:	d106      	bne.n	8001cc8 <RCC_SetFlashLatencyFromMSIRange+0x44>
 8001cba:	2d80      	cmp	r5, #128	; 0x80
 8001cbc:	d90c      	bls.n	8001cd8 <RCC_SetFlashLatencyFromMSIRange+0x54>
 8001cbe:	2da1      	cmp	r5, #161	; 0xa1
 8001cc0:	bf34      	ite	cc
 8001cc2:	2001      	movcc	r0, #1
 8001cc4:	2002      	movcs	r0, #2
 8001cc6:	e00c      	b.n	8001ce2 <RCC_SetFlashLatencyFromMSIRange+0x5e>
 8001cc8:	2d80      	cmp	r5, #128	; 0x80
 8001cca:	d807      	bhi.n	8001cdc <RCC_SetFlashLatencyFromMSIRange+0x58>
 8001ccc:	d008      	beq.n	8001ce0 <RCC_SetFlashLatencyFromMSIRange+0x5c>
 8001cce:	f1b5 0370 	subs.w	r3, r5, #112	; 0x70
 8001cd2:	4258      	negs	r0, r3
 8001cd4:	4158      	adcs	r0, r3
 8001cd6:	e004      	b.n	8001ce2 <RCC_SetFlashLatencyFromMSIRange+0x5e>
 8001cd8:	2000      	movs	r0, #0
 8001cda:	e002      	b.n	8001ce2 <RCC_SetFlashLatencyFromMSIRange+0x5e>
 8001cdc:	2003      	movs	r0, #3
 8001cde:	e000      	b.n	8001ce2 <RCC_SetFlashLatencyFromMSIRange+0x5e>
 8001ce0:	2002      	movs	r0, #2
 8001ce2:	4b08      	ldr	r3, [pc, #32]	; (8001d04 <RCC_SetFlashLatencyFromMSIRange+0x80>)
 8001ce4:	681a      	ldr	r2, [r3, #0]
 8001ce6:	f022 0207 	bic.w	r2, r2, #7
 8001cea:	4302      	orrs	r2, r0
 8001cec:	601a      	str	r2, [r3, #0]
 8001cee:	681b      	ldr	r3, [r3, #0]
 8001cf0:	f003 0307 	and.w	r3, r3, #7
 8001cf4:	1a18      	subs	r0, r3, r0
 8001cf6:	bf18      	it	ne
 8001cf8:	2001      	movne	r0, #1
 8001cfa:	b003      	add	sp, #12
 8001cfc:	bd30      	pop	{r4, r5, pc}
 8001cfe:	bf00      	nop
 8001d00:	40021000 	.word	0x40021000
 8001d04:	40022000 	.word	0x40022000

08001d08 <HAL_RCC_OscConfig>:
 8001d08:	6803      	ldr	r3, [r0, #0]
 8001d0a:	b5f7      	push	{r0, r1, r2, r4, r5, r6, r7, lr}
 8001d0c:	06dc      	lsls	r4, r3, #27
 8001d0e:	4605      	mov	r5, r0
 8001d10:	f140 80a3 	bpl.w	8001e5a <HAL_RCC_OscConfig+0x152>
 8001d14:	4cb6      	ldr	r4, [pc, #728]	; (8001ff0 <HAL_RCC_OscConfig+0x2e8>)
 8001d16:	68a3      	ldr	r3, [r4, #8]
 8001d18:	f013 0f0c 	tst.w	r3, #12
 8001d1c:	d150      	bne.n	8001dc0 <HAL_RCC_OscConfig+0xb8>
 8001d1e:	2302      	movs	r3, #2
 8001d20:	fa93 f3a3 	rbit	r3, r3
 8001d24:	2302      	movs	r3, #2
 8001d26:	6822      	ldr	r2, [r4, #0]
 8001d28:	fa93 f3a3 	rbit	r3, r3
 8001d2c:	fab3 f383 	clz	r3, r3
 8001d30:	f003 031f 	and.w	r3, r3, #31
 8001d34:	fa22 f303 	lsr.w	r3, r2, r3
 8001d38:	07d8      	lsls	r0, r3, #31
 8001d3a:	d503      	bpl.n	8001d44 <HAL_RCC_OscConfig+0x3c>
 8001d3c:	69ab      	ldr	r3, [r5, #24]
 8001d3e:	b90b      	cbnz	r3, 8001d44 <HAL_RCC_OscConfig+0x3c>
 8001d40:	2001      	movs	r0, #1
 8001d42:	e36f      	b.n	8002424 <HAL_RCC_OscConfig+0x71c>
 8001d44:	6822      	ldr	r2, [r4, #0]
 8001d46:	6a28      	ldr	r0, [r5, #32]
 8001d48:	4ba9      	ldr	r3, [pc, #676]	; (8001ff0 <HAL_RCC_OscConfig+0x2e8>)
 8001d4a:	0711      	lsls	r1, r2, #28
 8001d4c:	d503      	bpl.n	8001d56 <HAL_RCC_OscConfig+0x4e>
 8001d4e:	681b      	ldr	r3, [r3, #0]
 8001d50:	f003 03f0 	and.w	r3, r3, #240	; 0xf0
 8001d54:	e004      	b.n	8001d60 <HAL_RCC_OscConfig+0x58>
 8001d56:	f8d3 3094 	ldr.w	r3, [r3, #148]	; 0x94
 8001d5a:	f403 6370 	and.w	r3, r3, #3840	; 0xf00
 8001d5e:	091b      	lsrs	r3, r3, #4
 8001d60:	4298      	cmp	r0, r3
 8001d62:	d915      	bls.n	8001d90 <HAL_RCC_OscConfig+0x88>
 8001d64:	f7ff ff8e 	bl	8001c84 <RCC_SetFlashLatencyFromMSIRange>
 8001d68:	2800      	cmp	r0, #0
 8001d6a:	d1e9      	bne.n	8001d40 <HAL_RCC_OscConfig+0x38>
 8001d6c:	6823      	ldr	r3, [r4, #0]
 8001d6e:	f043 0308 	orr.w	r3, r3, #8
 8001d72:	6023      	str	r3, [r4, #0]
 8001d74:	6822      	ldr	r2, [r4, #0]
 8001d76:	6a2b      	ldr	r3, [r5, #32]
 8001d78:	f022 02f0 	bic.w	r2, r2, #240	; 0xf0
 8001d7c:	4313      	orrs	r3, r2
 8001d7e:	6023      	str	r3, [r4, #0]
 8001d80:	6862      	ldr	r2, [r4, #4]
 8001d82:	69eb      	ldr	r3, [r5, #28]
 8001d84:	f422 427f 	bic.w	r2, r2, #65280	; 0xff00
 8001d88:	ea42 2303 	orr.w	r3, r2, r3, lsl #8
 8001d8c:	6063      	str	r3, [r4, #4]
 8001d8e:	e013      	b.n	8001db8 <HAL_RCC_OscConfig+0xb0>
 8001d90:	6823      	ldr	r3, [r4, #0]
 8001d92:	f043 0308 	orr.w	r3, r3, #8
 8001d96:	6023      	str	r3, [r4, #0]
 8001d98:	6823      	ldr	r3, [r4, #0]
 8001d9a:	f023 03f0 	bic.w	r3, r3, #240	; 0xf0
 8001d9e:	4303      	orrs	r3, r0
 8001da0:	6023      	str	r3, [r4, #0]
 8001da2:	6862      	ldr	r2, [r4, #4]
 8001da4:	69eb      	ldr	r3, [r5, #28]
 8001da6:	f422 427f 	bic.w	r2, r2, #65280	; 0xff00
 8001daa:	ea42 2303 	orr.w	r3, r2, r3, lsl #8
 8001dae:	6063      	str	r3, [r4, #4]
 8001db0:	f7ff ff68 	bl	8001c84 <RCC_SetFlashLatencyFromMSIRange>
 8001db4:	2800      	cmp	r0, #0
 8001db6:	d1c3      	bne.n	8001d40 <HAL_RCC_OscConfig+0x38>
 8001db8:	200f      	movs	r0, #15
 8001dba:	f7fe ffc9 	bl	8000d50 <HAL_InitTick>
 8001dbe:	e04c      	b.n	8001e5a <HAL_RCC_OscConfig+0x152>
 8001dc0:	6983      	ldr	r3, [r0, #24]
 8001dc2:	b373      	cbz	r3, 8001e22 <HAL_RCC_OscConfig+0x11a>
 8001dc4:	6823      	ldr	r3, [r4, #0]
 8001dc6:	f043 0301 	orr.w	r3, r3, #1
 8001dca:	6023      	str	r3, [r4, #0]
 8001dcc:	f7fe ffda 	bl	8000d84 <HAL_GetTick>
 8001dd0:	4606      	mov	r6, r0
 8001dd2:	2302      	movs	r3, #2
 8001dd4:	fa93 f3a3 	rbit	r3, r3
 8001dd8:	2302      	movs	r3, #2
 8001dda:	6822      	ldr	r2, [r4, #0]
 8001ddc:	fa93 f3a3 	rbit	r3, r3
 8001de0:	fab3 f383 	clz	r3, r3
 8001de4:	f003 031f 	and.w	r3, r3, #31
 8001de8:	fa22 f303 	lsr.w	r3, r2, r3
 8001dec:	07da      	lsls	r2, r3, #31
 8001dee:	d406      	bmi.n	8001dfe <HAL_RCC_OscConfig+0xf6>
 8001df0:	f7fe ffc8 	bl	8000d84 <HAL_GetTick>
 8001df4:	1b80      	subs	r0, r0, r6
 8001df6:	2864      	cmp	r0, #100	; 0x64
 8001df8:	d9eb      	bls.n	8001dd2 <HAL_RCC_OscConfig+0xca>
 8001dfa:	2003      	movs	r0, #3
 8001dfc:	e312      	b.n	8002424 <HAL_RCC_OscConfig+0x71c>
 8001dfe:	6823      	ldr	r3, [r4, #0]
 8001e00:	f043 0308 	orr.w	r3, r3, #8
 8001e04:	6023      	str	r3, [r4, #0]
 8001e06:	6822      	ldr	r2, [r4, #0]
 8001e08:	6a2b      	ldr	r3, [r5, #32]
 8001e0a:	f022 02f0 	bic.w	r2, r2, #240	; 0xf0
 8001e0e:	4313      	orrs	r3, r2
 8001e10:	6023      	str	r3, [r4, #0]
 8001e12:	6862      	ldr	r2, [r4, #4]
 8001e14:	69eb      	ldr	r3, [r5, #28]
 8001e16:	f422 427f 	bic.w	r2, r2, #65280	; 0xff00
 8001e1a:	ea42 2303 	orr.w	r3, r2, r3, lsl #8
 8001e1e:	6063      	str	r3, [r4, #4]
 8001e20:	e01b      	b.n	8001e5a <HAL_RCC_OscConfig+0x152>
 8001e22:	6823      	ldr	r3, [r4, #0]
 8001e24:	f023 0301 	bic.w	r3, r3, #1
 8001e28:	6023      	str	r3, [r4, #0]
 8001e2a:	f7fe ffab 	bl	8000d84 <HAL_GetTick>
 8001e2e:	4606      	mov	r6, r0
 8001e30:	2302      	movs	r3, #2
 8001e32:	fa93 f3a3 	rbit	r3, r3
 8001e36:	2302      	movs	r3, #2
 8001e38:	6822      	ldr	r2, [r4, #0]
 8001e3a:	fa93 f3a3 	rbit	r3, r3
 8001e3e:	fab3 f383 	clz	r3, r3
 8001e42:	f003 031f 	and.w	r3, r3, #31
 8001e46:	fa22 f303 	lsr.w	r3, r2, r3
 8001e4a:	07db      	lsls	r3, r3, #31
 8001e4c:	d505      	bpl.n	8001e5a <HAL_RCC_OscConfig+0x152>
 8001e4e:	f7fe ff99 	bl	8000d84 <HAL_GetTick>
 8001e52:	1b80      	subs	r0, r0, r6
 8001e54:	2864      	cmp	r0, #100	; 0x64
 8001e56:	d9eb      	bls.n	8001e30 <HAL_RCC_OscConfig+0x128>
 8001e58:	e7cf      	b.n	8001dfa <HAL_RCC_OscConfig+0xf2>
 8001e5a:	682b      	ldr	r3, [r5, #0]
 8001e5c:	07df      	lsls	r7, r3, #31
 8001e5e:	d404      	bmi.n	8001e6a <HAL_RCC_OscConfig+0x162>
 8001e60:	682b      	ldr	r3, [r5, #0]
 8001e62:	079e      	lsls	r6, r3, #30
 8001e64:	f100 80a0 	bmi.w	8001fa8 <HAL_RCC_OscConfig+0x2a0>
 8001e68:	e110      	b.n	800208c <HAL_RCC_OscConfig+0x384>
 8001e6a:	4c61      	ldr	r4, [pc, #388]	; (8001ff0 <HAL_RCC_OscConfig+0x2e8>)
 8001e6c:	68a3      	ldr	r3, [r4, #8]
 8001e6e:	f003 030c 	and.w	r3, r3, #12
 8001e72:	2b08      	cmp	r3, #8
 8001e74:	d009      	beq.n	8001e8a <HAL_RCC_OscConfig+0x182>
 8001e76:	68a3      	ldr	r3, [r4, #8]
 8001e78:	f003 030c 	and.w	r3, r3, #12
 8001e7c:	2b0c      	cmp	r3, #12
 8001e7e:	d119      	bne.n	8001eb4 <HAL_RCC_OscConfig+0x1ac>
 8001e80:	68e3      	ldr	r3, [r4, #12]
 8001e82:	f003 0303 	and.w	r3, r3, #3
 8001e86:	2b03      	cmp	r3, #3
 8001e88:	d114      	bne.n	8001eb4 <HAL_RCC_OscConfig+0x1ac>
 8001e8a:	f44f 3300 	mov.w	r3, #131072	; 0x20000
 8001e8e:	fa93 f3a3 	rbit	r3, r3
 8001e92:	f44f 3300 	mov.w	r3, #131072	; 0x20000
 8001e96:	6822      	ldr	r2, [r4, #0]
 8001e98:	fa93 f3a3 	rbit	r3, r3
 8001e9c:	fab3 f383 	clz	r3, r3
 8001ea0:	f003 031f 	and.w	r3, r3, #31
 8001ea4:	fa22 f303 	lsr.w	r3, r2, r3
 8001ea8:	07dc      	lsls	r4, r3, #31
 8001eaa:	d5d9      	bpl.n	8001e60 <HAL_RCC_OscConfig+0x158>
 8001eac:	686b      	ldr	r3, [r5, #4]
 8001eae:	2b00      	cmp	r3, #0
 8001eb0:	d1d6      	bne.n	8001e60 <HAL_RCC_OscConfig+0x158>
 8001eb2:	e745      	b.n	8001d40 <HAL_RCC_OscConfig+0x38>
 8001eb4:	6823      	ldr	r3, [r4, #0]
 8001eb6:	f423 3380 	bic.w	r3, r3, #65536	; 0x10000
 8001eba:	6023      	str	r3, [r4, #0]
 8001ebc:	6823      	ldr	r3, [r4, #0]
 8001ebe:	f423 2380 	bic.w	r3, r3, #262144	; 0x40000
 8001ec2:	6023      	str	r3, [r4, #0]
 8001ec4:	f7fe ff5e 	bl	8000d84 <HAL_GetTick>
 8001ec8:	4606      	mov	r6, r0
 8001eca:	f44f 3300 	mov.w	r3, #131072	; 0x20000
 8001ece:	fa93 f3a3 	rbit	r3, r3
 8001ed2:	f44f 3300 	mov.w	r3, #131072	; 0x20000
 8001ed6:	6822      	ldr	r2, [r4, #0]
 8001ed8:	fa93 f3a3 	rbit	r3, r3
 8001edc:	fab3 f383 	clz	r3, r3
 8001ee0:	f003 031f 	and.w	r3, r3, #31
 8001ee4:	fa22 f303 	lsr.w	r3, r2, r3
 8001ee8:	07d8      	lsls	r0, r3, #31
 8001eea:	d507      	bpl.n	8001efc <HAL_RCC_OscConfig+0x1f4>
 8001eec:	f7fe ff4a 	bl	8000d84 <HAL_GetTick>
 8001ef0:	f241 3388 	movw	r3, #5000	; 0x1388
 8001ef4:	1b80      	subs	r0, r0, r6
 8001ef6:	4298      	cmp	r0, r3
 8001ef8:	d9e7      	bls.n	8001eca <HAL_RCC_OscConfig+0x1c2>
 8001efa:	e77e      	b.n	8001dfa <HAL_RCC_OscConfig+0xf2>
 8001efc:	686b      	ldr	r3, [r5, #4]
 8001efe:	f5b3 3f80 	cmp.w	r3, #65536	; 0x10000
 8001f02:	d00a      	beq.n	8001f1a <HAL_RCC_OscConfig+0x212>
 8001f04:	f5b3 2fa0 	cmp.w	r3, #327680	; 0x50000
 8001f08:	d10c      	bne.n	8001f24 <HAL_RCC_OscConfig+0x21c>
 8001f0a:	6823      	ldr	r3, [r4, #0]
 8001f0c:	f423 3380 	bic.w	r3, r3, #65536	; 0x10000
 8001f10:	6023      	str	r3, [r4, #0]
 8001f12:	6823      	ldr	r3, [r4, #0]
 8001f14:	f443 2380 	orr.w	r3, r3, #262144	; 0x40000
 8001f18:	6023      	str	r3, [r4, #0]
 8001f1a:	6823      	ldr	r3, [r4, #0]
 8001f1c:	f443 3380 	orr.w	r3, r3, #65536	; 0x10000
 8001f20:	6023      	str	r3, [r4, #0]
 8001f22:	e008      	b.n	8001f36 <HAL_RCC_OscConfig+0x22e>
 8001f24:	6822      	ldr	r2, [r4, #0]
 8001f26:	f422 3280 	bic.w	r2, r2, #65536	; 0x10000
 8001f2a:	6022      	str	r2, [r4, #0]
 8001f2c:	6822      	ldr	r2, [r4, #0]
 8001f2e:	f422 2280 	bic.w	r2, r2, #262144	; 0x40000
 8001f32:	6022      	str	r2, [r4, #0]
 8001f34:	b1db      	cbz	r3, 8001f6e <HAL_RCC_OscConfig+0x266>
 8001f36:	f7fe ff25 	bl	8000d84 <HAL_GetTick>
 8001f3a:	4606      	mov	r6, r0
 8001f3c:	f44f 3300 	mov.w	r3, #131072	; 0x20000
 8001f40:	fa93 f3a3 	rbit	r3, r3
 8001f44:	f44f 3300 	mov.w	r3, #131072	; 0x20000
 8001f48:	6822      	ldr	r2, [r4, #0]
 8001f4a:	fa93 f3a3 	rbit	r3, r3
 8001f4e:	fab3 f383 	clz	r3, r3
 8001f52:	f003 031f 	and.w	r3, r3, #31
 8001f56:	fa22 f303 	lsr.w	r3, r2, r3
 8001f5a:	07d9      	lsls	r1, r3, #31
 8001f5c:	d480      	bmi.n	8001e60 <HAL_RCC_OscConfig+0x158>
 8001f5e:	f7fe ff11 	bl	8000d84 <HAL_GetTick>
 8001f62:	f241 3388 	movw	r3, #5000	; 0x1388
 8001f66:	1b80      	subs	r0, r0, r6
 8001f68:	4298      	cmp	r0, r3
 8001f6a:	d9e7      	bls.n	8001f3c <HAL_RCC_OscConfig+0x234>
 8001f6c:	e745      	b.n	8001dfa <HAL_RCC_OscConfig+0xf2>
 8001f6e:	f7fe ff09 	bl	8000d84 <HAL_GetTick>
 8001f72:	4606      	mov	r6, r0
 8001f74:	f44f 3300 	mov.w	r3, #131072	; 0x20000
 8001f78:	fa93 f3a3 	rbit	r3, r3
 8001f7c:	f44f 3300 	mov.w	r3, #131072	; 0x20000
 8001f80:	6822      	ldr	r2, [r4, #0]
 8001f82:	fa93 f3a3 	rbit	r3, r3
 8001f86:	fab3 f383 	clz	r3, r3
 8001f8a:	f003 031f 	and.w	r3, r3, #31
 8001f8e:	fa22 f303 	lsr.w	r3, r2, r3
 8001f92:	07da      	lsls	r2, r3, #31
 8001f94:	f57f af64 	bpl.w	8001e60 <HAL_RCC_OscConfig+0x158>
 8001f98:	f7fe fef4 	bl	8000d84 <HAL_GetTick>
 8001f9c:	f241 3388 	movw	r3, #5000	; 0x1388
 8001fa0:	1b80      	subs	r0, r0, r6
 8001fa2:	4298      	cmp	r0, r3
 8001fa4:	d9e6      	bls.n	8001f74 <HAL_RCC_OscConfig+0x26c>
 8001fa6:	e728      	b.n	8001dfa <HAL_RCC_OscConfig+0xf2>
 8001fa8:	4c11      	ldr	r4, [pc, #68]	; (8001ff0 <HAL_RCC_OscConfig+0x2e8>)
 8001faa:	68a3      	ldr	r3, [r4, #8]
 8001fac:	f003 030c 	and.w	r3, r3, #12
 8001fb0:	2b04      	cmp	r3, #4
 8001fb2:	d009      	beq.n	8001fc8 <HAL_RCC_OscConfig+0x2c0>
 8001fb4:	68a3      	ldr	r3, [r4, #8]
 8001fb6:	f003 030c 	and.w	r3, r3, #12
 8001fba:	2b0c      	cmp	r3, #12
 8001fbc:	d11a      	bne.n	8001ff4 <HAL_RCC_OscConfig+0x2ec>
 8001fbe:	68e3      	ldr	r3, [r4, #12]
 8001fc0:	f003 0303 	and.w	r3, r3, #3
 8001fc4:	2b02      	cmp	r3, #2
 8001fc6:	d115      	bne.n	8001ff4 <HAL_RCC_OscConfig+0x2ec>
 8001fc8:	f44f 6380 	mov.w	r3, #1024	; 0x400
 8001fcc:	fa93 f3a3 	rbit	r3, r3
 8001fd0:	f44f 6380 	mov.w	r3, #1024	; 0x400
 8001fd4:	6822      	ldr	r2, [r4, #0]
 8001fd6:	fa93 f3a3 	rbit	r3, r3
 8001fda:	fab3 f383 	clz	r3, r3
 8001fde:	f003 031f 	and.w	r3, r3, #31
 8001fe2:	fa22 f303 	lsr.w	r3, r2, r3
 8001fe6:	07db      	lsls	r3, r3, #31
 8001fe8:	d524      	bpl.n	8002034 <HAL_RCC_OscConfig+0x32c>
 8001fea:	68eb      	ldr	r3, [r5, #12]
 8001fec:	bb13      	cbnz	r3, 8002034 <HAL_RCC_OscConfig+0x32c>
 8001fee:	e6a7      	b.n	8001d40 <HAL_RCC_OscConfig+0x38>
 8001ff0:	40021000 	.word	0x40021000
 8001ff4:	68eb      	ldr	r3, [r5, #12]
 8001ff6:	b35b      	cbz	r3, 8002050 <HAL_RCC_OscConfig+0x348>
 8001ff8:	6823      	ldr	r3, [r4, #0]
 8001ffa:	f443 7380 	orr.w	r3, r3, #256	; 0x100
 8001ffe:	6023      	str	r3, [r4, #0]
 8002000:	f7fe fec0 	bl	8000d84 <HAL_GetTick>
 8002004:	4606      	mov	r6, r0
 8002006:	f44f 6380 	mov.w	r3, #1024	; 0x400
 800200a:	fa93 f3a3 	rbit	r3, r3
 800200e:	f44f 6380 	mov.w	r3, #1024	; 0x400
 8002012:	6822      	ldr	r2, [r4, #0]
 8002014:	fa93 f3a3 	rbit	r3, r3
 8002018:	fab3 f383 	clz	r3, r3
 800201c:	f003 031f 	and.w	r3, r3, #31
 8002020:	fa22 f303 	lsr.w	r3, r2, r3
 8002024:	07df      	lsls	r7, r3, #31
 8002026:	d405      	bmi.n	8002034 <HAL_RCC_OscConfig+0x32c>
 8002028:	f7fe feac 	bl	8000d84 <HAL_GetTick>
 800202c:	1b80      	subs	r0, r0, r6
 800202e:	2864      	cmp	r0, #100	; 0x64
 8002030:	d9e9      	bls.n	8002006 <HAL_RCC_OscConfig+0x2fe>
 8002032:	e6e2      	b.n	8001dfa <HAL_RCC_OscConfig+0xf2>
 8002034:	6862      	ldr	r2, [r4, #4]
 8002036:	f04f 51f8 	mov.w	r1, #520093696	; 0x1f000000
 800203a:	fa91 f1a1 	rbit	r1, r1
 800203e:	692b      	ldr	r3, [r5, #16]
 8002040:	fab1 f181 	clz	r1, r1
 8002044:	408b      	lsls	r3, r1
 8002046:	f022 52f8 	bic.w	r2, r2, #520093696	; 0x1f000000
 800204a:	4313      	orrs	r3, r2
 800204c:	6063      	str	r3, [r4, #4]
 800204e:	e01d      	b.n	800208c <HAL_RCC_OscConfig+0x384>
 8002050:	6823      	ldr	r3, [r4, #0]
 8002052:	f423 7380 	bic.w	r3, r3, #256	; 0x100
 8002056:	6023      	str	r3, [r4, #0]
 8002058:	f7fe fe94 	bl	8000d84 <HAL_GetTick>
 800205c:	4606      	mov	r6, r0
 800205e:	f44f 6380 	mov.w	r3, #1024	; 0x400
 8002062:	fa93 f3a3 	rbit	r3, r3
 8002066:	f44f 6380 	mov.w	r3, #1024	; 0x400
 800206a:	6822      	ldr	r2, [r4, #0]
 800206c:	fa93 f3a3 	rbit	r3, r3
 8002070:	fab3 f383 	clz	r3, r3
 8002074:	f003 031f 	and.w	r3, r3, #31
 8002078:	fa22 f303 	lsr.w	r3, r2, r3
 800207c:	07d8      	lsls	r0, r3, #31
 800207e:	d505      	bpl.n	800208c <HAL_RCC_OscConfig+0x384>
 8002080:	f7fe fe80 	bl	8000d84 <HAL_GetTick>
 8002084:	1b80      	subs	r0, r0, r6
 8002086:	2864      	cmp	r0, #100	; 0x64
 8002088:	d9e9      	bls.n	800205e <HAL_RCC_OscConfig+0x356>
 800208a:	e6b6      	b.n	8001dfa <HAL_RCC_OscConfig+0xf2>
 800208c:	682b      	ldr	r3, [r5, #0]
 800208e:	0719      	lsls	r1, r3, #28
 8002090:	d403      	bmi.n	800209a <HAL_RCC_OscConfig+0x392>
 8002092:	682b      	ldr	r3, [r5, #0]
 8002094:	075a      	lsls	r2, r3, #29
 8002096:	d447      	bmi.n	8002128 <HAL_RCC_OscConfig+0x420>
 8002098:	e136      	b.n	8002308 <HAL_RCC_OscConfig+0x600>
 800209a:	696b      	ldr	r3, [r5, #20]
 800209c:	4cb0      	ldr	r4, [pc, #704]	; (8002360 <HAL_RCC_OscConfig+0x658>)
 800209e:	b30b      	cbz	r3, 80020e4 <HAL_RCC_OscConfig+0x3dc>
 80020a0:	f8d4 3094 	ldr.w	r3, [r4, #148]	; 0x94
 80020a4:	f043 0301 	orr.w	r3, r3, #1
 80020a8:	f8c4 3094 	str.w	r3, [r4, #148]	; 0x94
 80020ac:	f7fe fe6a 	bl	8000d84 <HAL_GetTick>
 80020b0:	4606      	mov	r6, r0
 80020b2:	2302      	movs	r3, #2
 80020b4:	fa93 f2a3 	rbit	r2, r3
 80020b8:	fa93 f2a3 	rbit	r2, r3
 80020bc:	fa93 f2a3 	rbit	r2, r3
 80020c0:	f8d4 2094 	ldr.w	r2, [r4, #148]	; 0x94
 80020c4:	fa93 f3a3 	rbit	r3, r3
 80020c8:	fab3 f383 	clz	r3, r3
 80020cc:	f003 031f 	and.w	r3, r3, #31
 80020d0:	fa22 f303 	lsr.w	r3, r2, r3
 80020d4:	07db      	lsls	r3, r3, #31
 80020d6:	d4dc      	bmi.n	8002092 <HAL_RCC_OscConfig+0x38a>
 80020d8:	f7fe fe54 	bl	8000d84 <HAL_GetTick>
 80020dc:	1b80      	subs	r0, r0, r6
 80020de:	2864      	cmp	r0, #100	; 0x64
 80020e0:	d9e7      	bls.n	80020b2 <HAL_RCC_OscConfig+0x3aa>
 80020e2:	e68a      	b.n	8001dfa <HAL_RCC_OscConfig+0xf2>
 80020e4:	f8d4 3094 	ldr.w	r3, [r4, #148]	; 0x94
 80020e8:	f023 0301 	bic.w	r3, r3, #1
 80020ec:	f8c4 3094 	str.w	r3, [r4, #148]	; 0x94
 80020f0:	f7fe fe48 	bl	8000d84 <HAL_GetTick>
 80020f4:	4606      	mov	r6, r0
 80020f6:	2302      	movs	r3, #2
 80020f8:	fa93 f2a3 	rbit	r2, r3
 80020fc:	fa93 f2a3 	rbit	r2, r3
 8002100:	fa93 f2a3 	rbit	r2, r3
 8002104:	f8d4 2094 	ldr.w	r2, [r4, #148]	; 0x94
 8002108:	fa93 f3a3 	rbit	r3, r3
 800210c:	fab3 f383 	clz	r3, r3
 8002110:	f003 031f 	and.w	r3, r3, #31
 8002114:	fa22 f303 	lsr.w	r3, r2, r3
 8002118:	07df      	lsls	r7, r3, #31
 800211a:	d5ba      	bpl.n	8002092 <HAL_RCC_OscConfig+0x38a>
 800211c:	f7fe fe32 	bl	8000d84 <HAL_GetTick>
 8002120:	1b80      	subs	r0, r0, r6
 8002122:	2864      	cmp	r0, #100	; 0x64
 8002124:	d9e7      	bls.n	80020f6 <HAL_RCC_OscConfig+0x3ee>
 8002126:	e668      	b.n	8001dfa <HAL_RCC_OscConfig+0xf2>
 8002128:	4c8d      	ldr	r4, [pc, #564]	; (8002360 <HAL_RCC_OscConfig+0x658>)
 800212a:	6da3      	ldr	r3, [r4, #88]	; 0x58
 800212c:	00de      	lsls	r6, r3, #3
 800212e:	d40a      	bmi.n	8002146 <HAL_RCC_OscConfig+0x43e>
 8002130:	6da3      	ldr	r3, [r4, #88]	; 0x58
 8002132:	f043 5380 	orr.w	r3, r3, #268435456	; 0x10000000
 8002136:	65a3      	str	r3, [r4, #88]	; 0x58
 8002138:	6da3      	ldr	r3, [r4, #88]	; 0x58
 800213a:	f003 5380 	and.w	r3, r3, #268435456	; 0x10000000
 800213e:	9301      	str	r3, [sp, #4]
 8002140:	9b01      	ldr	r3, [sp, #4]
 8002142:	2601      	movs	r6, #1
 8002144:	e000      	b.n	8002148 <HAL_RCC_OscConfig+0x440>
 8002146:	2600      	movs	r6, #0
 8002148:	4b86      	ldr	r3, [pc, #536]	; (8002364 <HAL_RCC_OscConfig+0x65c>)
 800214a:	681a      	ldr	r2, [r3, #0]
 800214c:	05d0      	lsls	r0, r2, #23
 800214e:	d50f      	bpl.n	8002170 <HAL_RCC_OscConfig+0x468>
 8002150:	f8d4 3090 	ldr.w	r3, [r4, #144]	; 0x90
 8002154:	f023 0301 	bic.w	r3, r3, #1
 8002158:	f8c4 3090 	str.w	r3, [r4, #144]	; 0x90
 800215c:	f8d4 3090 	ldr.w	r3, [r4, #144]	; 0x90
 8002160:	f023 0304 	bic.w	r3, r3, #4
 8002164:	f8c4 3090 	str.w	r3, [r4, #144]	; 0x90
 8002168:	f7fe fe0c 	bl	8000d84 <HAL_GetTick>
 800216c:	4607      	mov	r7, r0
 800216e:	e02e      	b.n	80021ce <HAL_RCC_OscConfig+0x4c6>
 8002170:	681a      	ldr	r2, [r3, #0]
 8002172:	f442 7280 	orr.w	r2, r2, #256	; 0x100
 8002176:	601a      	str	r2, [r3, #0]
 8002178:	f7fe fe04 	bl	8000d84 <HAL_GetTick>
 800217c:	4607      	mov	r7, r0
 800217e:	4b79      	ldr	r3, [pc, #484]	; (8002364 <HAL_RCC_OscConfig+0x65c>)
 8002180:	681b      	ldr	r3, [r3, #0]
 8002182:	05d9      	lsls	r1, r3, #23
 8002184:	d4e4      	bmi.n	8002150 <HAL_RCC_OscConfig+0x448>
 8002186:	f7fe fdfd 	bl	8000d84 <HAL_GetTick>
 800218a:	1bc0      	subs	r0, r0, r7
 800218c:	2864      	cmp	r0, #100	; 0x64
 800218e:	d9f6      	bls.n	800217e <HAL_RCC_OscConfig+0x476>
 8002190:	e633      	b.n	8001dfa <HAL_RCC_OscConfig+0xf2>
 8002192:	fa93 f3a3 	rbit	r3, r3
 8002196:	fab3 f383 	clz	r3, r3
 800219a:	f043 0340 	orr.w	r3, r3, #64	; 0x40
 800219e:	095b      	lsrs	r3, r3, #5
 80021a0:	2b03      	cmp	r3, #3
 80021a2:	bf0c      	ite	eq
 80021a4:	f8d4 3094 	ldreq.w	r3, [r4, #148]	; 0x94
 80021a8:	69e3      	ldrne	r3, [r4, #28]
 80021aa:	2202      	movs	r2, #2
 80021ac:	fa92 f2a2 	rbit	r2, r2
 80021b0:	fab2 f282 	clz	r2, r2
 80021b4:	f002 021f 	and.w	r2, r2, #31
 80021b8:	40d3      	lsrs	r3, r2
 80021ba:	07da      	lsls	r2, r3, #31
 80021bc:	d516      	bpl.n	80021ec <HAL_RCC_OscConfig+0x4e4>
 80021be:	f7fe fde1 	bl	8000d84 <HAL_GetTick>
 80021c2:	f241 3388 	movw	r3, #5000	; 0x1388
 80021c6:	1bc0      	subs	r0, r0, r7
 80021c8:	4298      	cmp	r0, r3
 80021ca:	f63f ae16 	bhi.w	8001dfa <HAL_RCC_OscConfig+0xf2>
 80021ce:	2302      	movs	r3, #2
 80021d0:	fa93 f2a3 	rbit	r2, r3
 80021d4:	fa93 f2a3 	rbit	r2, r3
 80021d8:	fab2 f282 	clz	r2, r2
 80021dc:	f042 0240 	orr.w	r2, r2, #64	; 0x40
 80021e0:	0952      	lsrs	r2, r2, #5
 80021e2:	429a      	cmp	r2, r3
 80021e4:	d1d5      	bne.n	8002192 <HAL_RCC_OscConfig+0x48a>
 80021e6:	f8d4 3090 	ldr.w	r3, [r4, #144]	; 0x90
 80021ea:	e7de      	b.n	80021aa <HAL_RCC_OscConfig+0x4a2>
 80021ec:	68ab      	ldr	r3, [r5, #8]
 80021ee:	2b01      	cmp	r3, #1
 80021f0:	d01e      	beq.n	8002230 <HAL_RCC_OscConfig+0x528>
 80021f2:	b97b      	cbnz	r3, 8002214 <HAL_RCC_OscConfig+0x50c>
 80021f4:	f8d4 3090 	ldr.w	r3, [r4, #144]	; 0x90
 80021f8:	f023 0301 	bic.w	r3, r3, #1
 80021fc:	f8c4 3090 	str.w	r3, [r4, #144]	; 0x90
 8002200:	f8d4 3090 	ldr.w	r3, [r4, #144]	; 0x90
 8002204:	f023 0304 	bic.w	r3, r3, #4
 8002208:	f8c4 3090 	str.w	r3, [r4, #144]	; 0x90
 800220c:	f7fe fdba 	bl	8000d84 <HAL_GetTick>
 8002210:	4607      	mov	r7, r0
 8002212:	e04e      	b.n	80022b2 <HAL_RCC_OscConfig+0x5aa>
 8002214:	2b05      	cmp	r3, #5
 8002216:	f8d4 3090 	ldr.w	r3, [r4, #144]	; 0x90
 800221a:	f023 0301 	bic.w	r3, r3, #1
 800221e:	f8c4 3090 	str.w	r3, [r4, #144]	; 0x90
 8002222:	f8d4 3090 	ldr.w	r3, [r4, #144]	; 0x90
 8002226:	d108      	bne.n	800223a <HAL_RCC_OscConfig+0x532>
 8002228:	f043 0304 	orr.w	r3, r3, #4
 800222c:	f8c4 3090 	str.w	r3, [r4, #144]	; 0x90
 8002230:	f8d4 3090 	ldr.w	r3, [r4, #144]	; 0x90
 8002234:	f043 0301 	orr.w	r3, r3, #1
 8002238:	e001      	b.n	800223e <HAL_RCC_OscConfig+0x536>
 800223a:	f023 0304 	bic.w	r3, r3, #4
 800223e:	f8c4 3090 	str.w	r3, [r4, #144]	; 0x90
 8002242:	f7fe fd9f 	bl	8000d84 <HAL_GetTick>
 8002246:	4607      	mov	r7, r0
 8002248:	2302      	movs	r3, #2
 800224a:	fa93 f2a3 	rbit	r2, r3
 800224e:	fa93 f2a3 	rbit	r2, r3
 8002252:	fab2 f282 	clz	r2, r2
 8002256:	f042 0240 	orr.w	r2, r2, #64	; 0x40
 800225a:	0952      	lsrs	r2, r2, #5
 800225c:	429a      	cmp	r2, r3
 800225e:	d102      	bne.n	8002266 <HAL_RCC_OscConfig+0x55e>
 8002260:	f8d4 3090 	ldr.w	r3, [r4, #144]	; 0x90
 8002264:	e00b      	b.n	800227e <HAL_RCC_OscConfig+0x576>
 8002266:	fa93 f3a3 	rbit	r3, r3
 800226a:	fab3 f383 	clz	r3, r3
 800226e:	f043 0340 	orr.w	r3, r3, #64	; 0x40
 8002272:	095b      	lsrs	r3, r3, #5
 8002274:	2b03      	cmp	r3, #3
 8002276:	bf0c      	ite	eq
 8002278:	f8d4 3094 	ldreq.w	r3, [r4, #148]	; 0x94
 800227c:	69e3      	ldrne	r3, [r4, #28]
 800227e:	2202      	movs	r2, #2
 8002280:	fa92 f2a2 	rbit	r2, r2
 8002284:	fab2 f282 	clz	r2, r2
 8002288:	f002 021f 	and.w	r2, r2, #31
 800228c:	40d3      	lsrs	r3, r2
 800228e:	07db      	lsls	r3, r3, #31
 8002290:	d427      	bmi.n	80022e2 <HAL_RCC_OscConfig+0x5da>
 8002292:	f7fe fd77 	bl	8000d84 <HAL_GetTick>
 8002296:	f241 3388 	movw	r3, #5000	; 0x1388
 800229a:	1bc0      	subs	r0, r0, r7
 800229c:	4298      	cmp	r0, r3
 800229e:	d9d3      	bls.n	8002248 <HAL_RCC_OscConfig+0x540>
 80022a0:	e5ab      	b.n	8001dfa <HAL_RCC_OscConfig+0xf2>
 80022a2:	f7fe fd6f 	bl	8000d84 <HAL_GetTick>
 80022a6:	f241 3388 	movw	r3, #5000	; 0x1388
 80022aa:	1bc0      	subs	r0, r0, r7
 80022ac:	4298      	cmp	r0, r3
 80022ae:	f63f ada4 	bhi.w	8001dfa <HAL_RCC_OscConfig+0xf2>
 80022b2:	2302      	movs	r3, #2
 80022b4:	fa93 f2a3 	rbit	r2, r3
 80022b8:	fa93 f2a3 	rbit	r2, r3
 80022bc:	fab2 f282 	clz	r2, r2
 80022c0:	f042 0240 	orr.w	r2, r2, #64	; 0x40
 80022c4:	0952      	lsrs	r2, r2, #5
 80022c6:	429a      	cmp	r2, r3
 80022c8:	d111      	bne.n	80022ee <HAL_RCC_OscConfig+0x5e6>
 80022ca:	f8d4 3090 	ldr.w	r3, [r4, #144]	; 0x90
 80022ce:	2202      	movs	r2, #2
 80022d0:	fa92 f2a2 	rbit	r2, r2
 80022d4:	fab2 f282 	clz	r2, r2
 80022d8:	f002 021f 	and.w	r2, r2, #31
 80022dc:	40d3      	lsrs	r3, r2
 80022de:	07d8      	lsls	r0, r3, #31
 80022e0:	d4df      	bmi.n	80022a2 <HAL_RCC_OscConfig+0x59a>
 80022e2:	b18e      	cbz	r6, 8002308 <HAL_RCC_OscConfig+0x600>
 80022e4:	6da3      	ldr	r3, [r4, #88]	; 0x58
 80022e6:	f023 5380 	bic.w	r3, r3, #268435456	; 0x10000000
 80022ea:	65a3      	str	r3, [r4, #88]	; 0x58
 80022ec:	e00c      	b.n	8002308 <HAL_RCC_OscConfig+0x600>
 80022ee:	fa93 f3a3 	rbit	r3, r3
 80022f2:	fab3 f383 	clz	r3, r3
 80022f6:	f043 0340 	orr.w	r3, r3, #64	; 0x40
 80022fa:	095b      	lsrs	r3, r3, #5
 80022fc:	2b03      	cmp	r3, #3
 80022fe:	bf0c      	ite	eq
 8002300:	f8d4 3094 	ldreq.w	r3, [r4, #148]	; 0x94
 8002304:	69e3      	ldrne	r3, [r4, #28]
 8002306:	e7e2      	b.n	80022ce <HAL_RCC_OscConfig+0x5c6>
 8002308:	6a6b      	ldr	r3, [r5, #36]	; 0x24
 800230a:	b90b      	cbnz	r3, 8002310 <HAL_RCC_OscConfig+0x608>
 800230c:	2000      	movs	r0, #0
 800230e:	e089      	b.n	8002424 <HAL_RCC_OscConfig+0x71c>
 8002310:	4c13      	ldr	r4, [pc, #76]	; (8002360 <HAL_RCC_OscConfig+0x658>)
 8002312:	68a2      	ldr	r2, [r4, #8]
 8002314:	f002 020c 	and.w	r2, r2, #12
 8002318:	2a0c      	cmp	r2, #12
 800231a:	f43f ad11 	beq.w	8001d40 <HAL_RCC_OscConfig+0x38>
 800231e:	2b02      	cmp	r3, #2
 8002320:	6823      	ldr	r3, [r4, #0]
 8002322:	f023 7380 	bic.w	r3, r3, #16777216	; 0x1000000
 8002326:	6023      	str	r3, [r4, #0]
 8002328:	d157      	bne.n	80023da <HAL_RCC_OscConfig+0x6d2>
 800232a:	f7fe fd2b 	bl	8000d84 <HAL_GetTick>
 800232e:	4606      	mov	r6, r0
 8002330:	f04f 7300 	mov.w	r3, #33554432	; 0x2000000
 8002334:	fa93 f3a3 	rbit	r3, r3
 8002338:	f04f 7300 	mov.w	r3, #33554432	; 0x2000000
 800233c:	6822      	ldr	r2, [r4, #0]
 800233e:	fa93 f3a3 	rbit	r3, r3
 8002342:	fab3 f383 	clz	r3, r3
 8002346:	f003 031f 	and.w	r3, r3, #31
 800234a:	fa22 f303 	lsr.w	r3, r2, r3
 800234e:	07d9      	lsls	r1, r3, #31
 8002350:	d50a      	bpl.n	8002368 <HAL_RCC_OscConfig+0x660>
 8002352:	f7fe fd17 	bl	8000d84 <HAL_GetTick>
 8002356:	1b80      	subs	r0, r0, r6
 8002358:	2864      	cmp	r0, #100	; 0x64
 800235a:	d9e9      	bls.n	8002330 <HAL_RCC_OscConfig+0x628>
 800235c:	e54d      	b.n	8001dfa <HAL_RCC_OscConfig+0xf2>
 800235e:	bf00      	nop
 8002360:	40021000 	.word	0x40021000
 8002364:	40007000 	.word	0x40007000
 8002368:	6b2a      	ldr	r2, [r5, #48]	; 0x30
 800236a:	6aab      	ldr	r3, [r5, #40]	; 0x28
 800236c:	ea43 2302 	orr.w	r3, r3, r2, lsl #8
 8002370:	6aea      	ldr	r2, [r5, #44]	; 0x2c
 8002372:	3a01      	subs	r2, #1
 8002374:	ea43 1202 	orr.w	r2, r3, r2, lsl #4
 8002378:	6b6b      	ldr	r3, [r5, #52]	; 0x34
 800237a:	091b      	lsrs	r3, r3, #4
 800237c:	ea42 4143 	orr.w	r1, r2, r3, lsl #17
 8002380:	6bab      	ldr	r3, [r5, #56]	; 0x38
 8002382:	085a      	lsrs	r2, r3, #1
 8002384:	6beb      	ldr	r3, [r5, #60]	; 0x3c
 8002386:	3a01      	subs	r2, #1
 8002388:	085b      	lsrs	r3, r3, #1
 800238a:	ea41 5242 	orr.w	r2, r1, r2, lsl #21
 800238e:	3b01      	subs	r3, #1
 8002390:	ea42 6343 	orr.w	r3, r2, r3, lsl #25
 8002394:	60e3      	str	r3, [r4, #12]
 8002396:	6823      	ldr	r3, [r4, #0]
 8002398:	f043 7380 	orr.w	r3, r3, #16777216	; 0x1000000
 800239c:	6023      	str	r3, [r4, #0]
 800239e:	68e3      	ldr	r3, [r4, #12]
 80023a0:	f043 7380 	orr.w	r3, r3, #16777216	; 0x1000000
 80023a4:	60e3      	str	r3, [r4, #12]
 80023a6:	f7fe fced 	bl	8000d84 <HAL_GetTick>
 80023aa:	4605      	mov	r5, r0
 80023ac:	f04f 7300 	mov.w	r3, #33554432	; 0x2000000
 80023b0:	fa93 f3a3 	rbit	r3, r3
 80023b4:	f04f 7300 	mov.w	r3, #33554432	; 0x2000000
 80023b8:	6822      	ldr	r2, [r4, #0]
 80023ba:	fa93 f3a3 	rbit	r3, r3
 80023be:	fab3 f383 	clz	r3, r3
 80023c2:	f003 031f 	and.w	r3, r3, #31
 80023c6:	fa22 f303 	lsr.w	r3, r2, r3
 80023ca:	07da      	lsls	r2, r3, #31
 80023cc:	d49e      	bmi.n	800230c <HAL_RCC_OscConfig+0x604>
 80023ce:	f7fe fcd9 	bl	8000d84 <HAL_GetTick>
 80023d2:	1b40      	subs	r0, r0, r5
 80023d4:	2864      	cmp	r0, #100	; 0x64
 80023d6:	d9e9      	bls.n	80023ac <HAL_RCC_OscConfig+0x6a4>
 80023d8:	e50f      	b.n	8001dfa <HAL_RCC_OscConfig+0xf2>
 80023da:	68e3      	ldr	r3, [r4, #12]
 80023dc:	f023 0303 	bic.w	r3, r3, #3
 80023e0:	60e3      	str	r3, [r4, #12]
 80023e2:	68e3      	ldr	r3, [r4, #12]
 80023e4:	f023 7388 	bic.w	r3, r3, #17825792	; 0x1100000
 80023e8:	f423 3380 	bic.w	r3, r3, #65536	; 0x10000
 80023ec:	60e3      	str	r3, [r4, #12]
 80023ee:	f7fe fcc9 	bl	8000d84 <HAL_GetTick>
 80023f2:	4605      	mov	r5, r0
 80023f4:	f04f 7300 	mov.w	r3, #33554432	; 0x2000000
 80023f8:	fa93 f3a3 	rbit	r3, r3
 80023fc:	f04f 7300 	mov.w	r3, #33554432	; 0x2000000
 8002400:	6822      	ldr	r2, [r4, #0]
 8002402:	fa93 f3a3 	rbit	r3, r3
 8002406:	fab3 f383 	clz	r3, r3
 800240a:	f003 031f 	and.w	r3, r3, #31
 800240e:	fa22 f303 	lsr.w	r3, r2, r3
 8002412:	07db      	lsls	r3, r3, #31
 8002414:	f57f af7a 	bpl.w	800230c <HAL_RCC_OscConfig+0x604>
 8002418:	f7fe fcb4 	bl	8000d84 <HAL_GetTick>
 800241c:	1b40      	subs	r0, r0, r5
 800241e:	2864      	cmp	r0, #100	; 0x64
 8002420:	d9e8      	bls.n	80023f4 <HAL_RCC_OscConfig+0x6ec>
 8002422:	e4ea      	b.n	8001dfa <HAL_RCC_OscConfig+0xf2>
 8002424:	b003      	add	sp, #12
 8002426:	bdf0      	pop	{r4, r5, r6, r7, pc}

08002428 <HAL_RCC_ClockConfig>:
 8002428:	b5f8      	push	{r3, r4, r5, r6, r7, lr}
 800242a:	4b9f      	ldr	r3, [pc, #636]	; (80026a8 <HAL_RCC_ClockConfig+0x280>)
 800242c:	681a      	ldr	r2, [r3, #0]
 800242e:	f002 0207 	and.w	r2, r2, #7
 8002432:	4291      	cmp	r1, r2
 8002434:	4604      	mov	r4, r0
 8002436:	460e      	mov	r6, r1
 8002438:	f240 8097 	bls.w	800256a <HAL_RCC_ClockConfig+0x142>
 800243c:	681a      	ldr	r2, [r3, #0]
 800243e:	2904      	cmp	r1, #4
 8002440:	bf9c      	itt	ls
 8002442:	f022 0207 	bicls.w	r2, r2, #7
 8002446:	430a      	orrls	r2, r1
 8002448:	601a      	str	r2, [r3, #0]
 800244a:	681b      	ldr	r3, [r3, #0]
 800244c:	f003 0307 	and.w	r3, r3, #7
 8002450:	428b      	cmp	r3, r1
 8002452:	d001      	beq.n	8002458 <HAL_RCC_ClockConfig+0x30>
 8002454:	2001      	movs	r0, #1
 8002456:	bdf8      	pop	{r3, r4, r5, r6, r7, pc}
 8002458:	6803      	ldr	r3, [r0, #0]
 800245a:	079a      	lsls	r2, r3, #30
 800245c:	d506      	bpl.n	800246c <HAL_RCC_ClockConfig+0x44>
 800245e:	4a93      	ldr	r2, [pc, #588]	; (80026ac <HAL_RCC_ClockConfig+0x284>)
 8002460:	68a1      	ldr	r1, [r4, #8]
 8002462:	6890      	ldr	r0, [r2, #8]
 8002464:	f020 00f0 	bic.w	r0, r0, #240	; 0xf0
 8002468:	4301      	orrs	r1, r0
 800246a:	6091      	str	r1, [r2, #8]
 800246c:	07db      	lsls	r3, r3, #31
 800246e:	d40b      	bmi.n	8002488 <HAL_RCC_ClockConfig+0x60>
 8002470:	6823      	ldr	r3, [r4, #0]
 8002472:	075f      	lsls	r7, r3, #29
 8002474:	f140 8108 	bpl.w	8002688 <HAL_RCC_ClockConfig+0x260>
 8002478:	4a8c      	ldr	r2, [pc, #560]	; (80026ac <HAL_RCC_ClockConfig+0x284>)
 800247a:	68e1      	ldr	r1, [r4, #12]
 800247c:	6890      	ldr	r0, [r2, #8]
 800247e:	f420 60e0 	bic.w	r0, r0, #1792	; 0x700
 8002482:	4301      	orrs	r1, r0
 8002484:	6091      	str	r1, [r2, #8]
 8002486:	e0ff      	b.n	8002688 <HAL_RCC_ClockConfig+0x260>
 8002488:	6863      	ldr	r3, [r4, #4]
 800248a:	4d88      	ldr	r5, [pc, #544]	; (80026ac <HAL_RCC_ClockConfig+0x284>)
 800248c:	2b02      	cmp	r3, #2
 800248e:	d107      	bne.n	80024a0 <HAL_RCC_ClockConfig+0x78>
 8002490:	f44f 3200 	mov.w	r2, #131072	; 0x20000
 8002494:	fa92 f2a2 	rbit	r2, r2
 8002498:	f44f 3200 	mov.w	r2, #131072	; 0x20000
 800249c:	6829      	ldr	r1, [r5, #0]
 800249e:	e017      	b.n	80024d0 <HAL_RCC_ClockConfig+0xa8>
 80024a0:	2b03      	cmp	r3, #3
 80024a2:	d107      	bne.n	80024b4 <HAL_RCC_ClockConfig+0x8c>
 80024a4:	f04f 7200 	mov.w	r2, #33554432	; 0x2000000
 80024a8:	fa92 f2a2 	rbit	r2, r2
 80024ac:	f04f 7200 	mov.w	r2, #33554432	; 0x2000000
 80024b0:	6829      	ldr	r1, [r5, #0]
 80024b2:	e00d      	b.n	80024d0 <HAL_RCC_ClockConfig+0xa8>
 80024b4:	b92b      	cbnz	r3, 80024c2 <HAL_RCC_ClockConfig+0x9a>
 80024b6:	2202      	movs	r2, #2
 80024b8:	fa92 f2a2 	rbit	r2, r2
 80024bc:	2202      	movs	r2, #2
 80024be:	6829      	ldr	r1, [r5, #0]
 80024c0:	e006      	b.n	80024d0 <HAL_RCC_ClockConfig+0xa8>
 80024c2:	f44f 6280 	mov.w	r2, #1024	; 0x400
 80024c6:	fa92 f2a2 	rbit	r2, r2
 80024ca:	6829      	ldr	r1, [r5, #0]
 80024cc:	f44f 6280 	mov.w	r2, #1024	; 0x400
 80024d0:	fa92 f2a2 	rbit	r2, r2
 80024d4:	fab2 f282 	clz	r2, r2
 80024d8:	f002 021f 	and.w	r2, r2, #31
 80024dc:	fa21 f202 	lsr.w	r2, r1, r2
 80024e0:	07d6      	lsls	r6, r2, #31
 80024e2:	d5b7      	bpl.n	8002454 <HAL_RCC_ClockConfig+0x2c>
 80024e4:	68aa      	ldr	r2, [r5, #8]
 80024e6:	f022 0203 	bic.w	r2, r2, #3
 80024ea:	4313      	orrs	r3, r2
 80024ec:	60ab      	str	r3, [r5, #8]
 80024ee:	f7fe fc49 	bl	8000d84 <HAL_GetTick>
 80024f2:	6863      	ldr	r3, [r4, #4]
 80024f4:	2b02      	cmp	r3, #2
 80024f6:	4606      	mov	r6, r0
 80024f8:	d10d      	bne.n	8002516 <HAL_RCC_ClockConfig+0xee>
 80024fa:	68ab      	ldr	r3, [r5, #8]
 80024fc:	f003 030c 	and.w	r3, r3, #12
 8002500:	2b08      	cmp	r3, #8
 8002502:	d0b5      	beq.n	8002470 <HAL_RCC_ClockConfig+0x48>
 8002504:	f7fe fc3e 	bl	8000d84 <HAL_GetTick>
 8002508:	f241 3388 	movw	r3, #5000	; 0x1388
 800250c:	1b80      	subs	r0, r0, r6
 800250e:	4298      	cmp	r0, r3
 8002510:	d9f3      	bls.n	80024fa <HAL_RCC_ClockConfig+0xd2>
 8002512:	2003      	movs	r0, #3
 8002514:	bdf8      	pop	{r3, r4, r5, r6, r7, pc}
 8002516:	2b03      	cmp	r3, #3
 8002518:	d10c      	bne.n	8002534 <HAL_RCC_ClockConfig+0x10c>
 800251a:	68ab      	ldr	r3, [r5, #8]
 800251c:	f003 030c 	and.w	r3, r3, #12
 8002520:	2b0c      	cmp	r3, #12
 8002522:	d0a5      	beq.n	8002470 <HAL_RCC_ClockConfig+0x48>
 8002524:	f7fe fc2e 	bl	8000d84 <HAL_GetTick>
 8002528:	f241 3388 	movw	r3, #5000	; 0x1388
 800252c:	1b80      	subs	r0, r0, r6
 800252e:	4298      	cmp	r0, r3
 8002530:	d9f3      	bls.n	800251a <HAL_RCC_ClockConfig+0xf2>
 8002532:	e7ee      	b.n	8002512 <HAL_RCC_ClockConfig+0xea>
 8002534:	b163      	cbz	r3, 8002550 <HAL_RCC_ClockConfig+0x128>
 8002536:	68ab      	ldr	r3, [r5, #8]
 8002538:	f003 030c 	and.w	r3, r3, #12
 800253c:	2b04      	cmp	r3, #4
 800253e:	d10c      	bne.n	800255a <HAL_RCC_ClockConfig+0x132>
 8002540:	e796      	b.n	8002470 <HAL_RCC_ClockConfig+0x48>
 8002542:	f7fe fc1f 	bl	8000d84 <HAL_GetTick>
 8002546:	f241 3388 	movw	r3, #5000	; 0x1388
 800254a:	1b80      	subs	r0, r0, r6
 800254c:	4298      	cmp	r0, r3
 800254e:	d8e0      	bhi.n	8002512 <HAL_RCC_ClockConfig+0xea>
 8002550:	68ab      	ldr	r3, [r5, #8]
 8002552:	f013 0f0c 	tst.w	r3, #12
 8002556:	d1f4      	bne.n	8002542 <HAL_RCC_ClockConfig+0x11a>
 8002558:	e78a      	b.n	8002470 <HAL_RCC_ClockConfig+0x48>
 800255a:	f7fe fc13 	bl	8000d84 <HAL_GetTick>
 800255e:	f241 3388 	movw	r3, #5000	; 0x1388
 8002562:	1b80      	subs	r0, r0, r6
 8002564:	4298      	cmp	r0, r3
 8002566:	d9e6      	bls.n	8002536 <HAL_RCC_ClockConfig+0x10e>
 8002568:	e7d3      	b.n	8002512 <HAL_RCC_ClockConfig+0xea>
 800256a:	6803      	ldr	r3, [r0, #0]
 800256c:	0798      	lsls	r0, r3, #30
 800256e:	d506      	bpl.n	800257e <HAL_RCC_ClockConfig+0x156>
 8002570:	4a4e      	ldr	r2, [pc, #312]	; (80026ac <HAL_RCC_ClockConfig+0x284>)
 8002572:	68a1      	ldr	r1, [r4, #8]
 8002574:	6890      	ldr	r0, [r2, #8]
 8002576:	f020 00f0 	bic.w	r0, r0, #240	; 0xf0
 800257a:	4301      	orrs	r1, r0
 800257c:	6091      	str	r1, [r2, #8]
 800257e:	07d9      	lsls	r1, r3, #31
 8002580:	d407      	bmi.n	8002592 <HAL_RCC_ClockConfig+0x16a>
 8002582:	2e04      	cmp	r6, #4
 8002584:	4b48      	ldr	r3, [pc, #288]	; (80026a8 <HAL_RCC_ClockConfig+0x280>)
 8002586:	d876      	bhi.n	8002676 <HAL_RCC_ClockConfig+0x24e>
 8002588:	681a      	ldr	r2, [r3, #0]
 800258a:	f022 0207 	bic.w	r2, r2, #7
 800258e:	4332      	orrs	r2, r6
 8002590:	e072      	b.n	8002678 <HAL_RCC_ClockConfig+0x250>
 8002592:	6863      	ldr	r3, [r4, #4]
 8002594:	4d45      	ldr	r5, [pc, #276]	; (80026ac <HAL_RCC_ClockConfig+0x284>)
 8002596:	2b02      	cmp	r3, #2
 8002598:	d107      	bne.n	80025aa <HAL_RCC_ClockConfig+0x182>
 800259a:	f44f 3200 	mov.w	r2, #131072	; 0x20000
 800259e:	fa92 f2a2 	rbit	r2, r2
 80025a2:	f44f 3200 	mov.w	r2, #131072	; 0x20000
 80025a6:	6829      	ldr	r1, [r5, #0]
 80025a8:	e017      	b.n	80025da <HAL_RCC_ClockConfig+0x1b2>
 80025aa:	b92b      	cbnz	r3, 80025b8 <HAL_RCC_ClockConfig+0x190>
 80025ac:	2202      	movs	r2, #2
 80025ae:	fa92 f2a2 	rbit	r2, r2
 80025b2:	2202      	movs	r2, #2
 80025b4:	6829      	ldr	r1, [r5, #0]
 80025b6:	e010      	b.n	80025da <HAL_RCC_ClockConfig+0x1b2>
 80025b8:	2b03      	cmp	r3, #3
 80025ba:	d107      	bne.n	80025cc <HAL_RCC_ClockConfig+0x1a4>
 80025bc:	f04f 7200 	mov.w	r2, #33554432	; 0x2000000
 80025c0:	fa92 f2a2 	rbit	r2, r2
 80025c4:	f04f 7200 	mov.w	r2, #33554432	; 0x2000000
 80025c8:	6829      	ldr	r1, [r5, #0]
 80025ca:	e006      	b.n	80025da <HAL_RCC_ClockConfig+0x1b2>
 80025cc:	f44f 6280 	mov.w	r2, #1024	; 0x400
 80025d0:	fa92 f2a2 	rbit	r2, r2
 80025d4:	6829      	ldr	r1, [r5, #0]
 80025d6:	f44f 6280 	mov.w	r2, #1024	; 0x400
 80025da:	fa92 f2a2 	rbit	r2, r2
 80025de:	fab2 f282 	clz	r2, r2
 80025e2:	f002 021f 	and.w	r2, r2, #31
 80025e6:	fa21 f202 	lsr.w	r2, r1, r2
 80025ea:	07d2      	lsls	r2, r2, #31
 80025ec:	f57f af32 	bpl.w	8002454 <HAL_RCC_ClockConfig+0x2c>
 80025f0:	68aa      	ldr	r2, [r5, #8]
 80025f2:	f022 0203 	bic.w	r2, r2, #3
 80025f6:	4313      	orrs	r3, r2
 80025f8:	60ab      	str	r3, [r5, #8]
 80025fa:	f7fe fbc3 	bl	8000d84 <HAL_GetTick>
 80025fe:	6863      	ldr	r3, [r4, #4]
 8002600:	2b02      	cmp	r3, #2
 8002602:	4607      	mov	r7, r0
 8002604:	d10c      	bne.n	8002620 <HAL_RCC_ClockConfig+0x1f8>
 8002606:	68ab      	ldr	r3, [r5, #8]
 8002608:	f003 030c 	and.w	r3, r3, #12
 800260c:	2b08      	cmp	r3, #8
 800260e:	d0b8      	beq.n	8002582 <HAL_RCC_ClockConfig+0x15a>
 8002610:	f7fe fbb8 	bl	8000d84 <HAL_GetTick>
 8002614:	f241 3388 	movw	r3, #5000	; 0x1388
 8002618:	1bc0      	subs	r0, r0, r7
 800261a:	4298      	cmp	r0, r3
 800261c:	d9f3      	bls.n	8002606 <HAL_RCC_ClockConfig+0x1de>
 800261e:	e778      	b.n	8002512 <HAL_RCC_ClockConfig+0xea>
 8002620:	2b03      	cmp	r3, #3
 8002622:	d10c      	bne.n	800263e <HAL_RCC_ClockConfig+0x216>
 8002624:	68ab      	ldr	r3, [r5, #8]
 8002626:	f003 030c 	and.w	r3, r3, #12
 800262a:	2b0c      	cmp	r3, #12
 800262c:	d0a9      	beq.n	8002582 <HAL_RCC_ClockConfig+0x15a>
 800262e:	f7fe fba9 	bl	8000d84 <HAL_GetTick>
 8002632:	f241 3388 	movw	r3, #5000	; 0x1388
 8002636:	1bc0      	subs	r0, r0, r7
 8002638:	4298      	cmp	r0, r3
 800263a:	d9f3      	bls.n	8002624 <HAL_RCC_ClockConfig+0x1fc>
 800263c:	e769      	b.n	8002512 <HAL_RCC_ClockConfig+0xea>
 800263e:	b16b      	cbz	r3, 800265c <HAL_RCC_ClockConfig+0x234>
 8002640:	68ab      	ldr	r3, [r5, #8]
 8002642:	f003 030c 	and.w	r3, r3, #12
 8002646:	2b04      	cmp	r3, #4
 8002648:	d10d      	bne.n	8002666 <HAL_RCC_ClockConfig+0x23e>
 800264a:	e79a      	b.n	8002582 <HAL_RCC_ClockConfig+0x15a>
 800264c:	f7fe fb9a 	bl	8000d84 <HAL_GetTick>
 8002650:	f241 3387 	movw	r3, #4999	; 0x1387
 8002654:	1bc0      	subs	r0, r0, r7
 8002656:	4298      	cmp	r0, r3
 8002658:	f63f af5b 	bhi.w	8002512 <HAL_RCC_ClockConfig+0xea>
 800265c:	68ab      	ldr	r3, [r5, #8]
 800265e:	f013 0f0c 	tst.w	r3, #12
 8002662:	d1f3      	bne.n	800264c <HAL_RCC_ClockConfig+0x224>
 8002664:	e78d      	b.n	8002582 <HAL_RCC_ClockConfig+0x15a>
 8002666:	f7fe fb8d 	bl	8000d84 <HAL_GetTick>
 800266a:	f241 3388 	movw	r3, #5000	; 0x1388
 800266e:	1bc0      	subs	r0, r0, r7
 8002670:	4298      	cmp	r0, r3
 8002672:	d9e5      	bls.n	8002640 <HAL_RCC_ClockConfig+0x218>
 8002674:	e74d      	b.n	8002512 <HAL_RCC_ClockConfig+0xea>
 8002676:	681a      	ldr	r2, [r3, #0]
 8002678:	601a      	str	r2, [r3, #0]
 800267a:	681b      	ldr	r3, [r3, #0]
 800267c:	f003 0307 	and.w	r3, r3, #7
 8002680:	42b3      	cmp	r3, r6
 8002682:	f47f aee7 	bne.w	8002454 <HAL_RCC_ClockConfig+0x2c>
 8002686:	e6f3      	b.n	8002470 <HAL_RCC_ClockConfig+0x48>
 8002688:	071b      	lsls	r3, r3, #28
 800268a:	d507      	bpl.n	800269c <HAL_RCC_ClockConfig+0x274>
 800268c:	4b07      	ldr	r3, [pc, #28]	; (80026ac <HAL_RCC_ClockConfig+0x284>)
 800268e:	6921      	ldr	r1, [r4, #16]
 8002690:	689a      	ldr	r2, [r3, #8]
 8002692:	f422 5260 	bic.w	r2, r2, #14336	; 0x3800
 8002696:	ea42 02c1 	orr.w	r2, r2, r1, lsl #3
 800269a:	609a      	str	r2, [r3, #8]
 800269c:	200f      	movs	r0, #15
 800269e:	f7fe fb57 	bl	8000d50 <HAL_InitTick>
 80026a2:	2000      	movs	r0, #0
 80026a4:	bdf8      	pop	{r3, r4, r5, r6, r7, pc}
 80026a6:	bf00      	nop
 80026a8:	40022000 	.word	0x40022000
 80026ac:	40021000 	.word	0x40021000

080026b0 <HAL_RCC_GetSysClockFreq>:
 80026b0:	4b30      	ldr	r3, [pc, #192]	; (8002774 <HAL_RCC_GetSysClockFreq+0xc4>)
 80026b2:	689a      	ldr	r2, [r3, #8]
 80026b4:	f002 020c 	and.w	r2, r2, #12
 80026b8:	2a04      	cmp	r2, #4
 80026ba:	b510      	push	{r4, lr}
 80026bc:	d028      	beq.n	8002710 <HAL_RCC_GetSysClockFreq+0x60>
 80026be:	689a      	ldr	r2, [r3, #8]
 80026c0:	f002 020c 	and.w	r2, r2, #12
 80026c4:	2a08      	cmp	r2, #8
 80026c6:	d025      	beq.n	8002714 <HAL_RCC_GetSysClockFreq+0x64>
 80026c8:	689a      	ldr	r2, [r3, #8]
 80026ca:	f012 0f0c 	tst.w	r2, #12
 80026ce:	d009      	beq.n	80026e4 <HAL_RCC_GetSysClockFreq+0x34>
 80026d0:	689a      	ldr	r2, [r3, #8]
 80026d2:	f002 020c 	and.w	r2, r2, #12
 80026d6:	2a0c      	cmp	r2, #12
 80026d8:	d11f      	bne.n	800271a <HAL_RCC_GetSysClockFreq+0x6a>
 80026da:	68da      	ldr	r2, [r3, #12]
 80026dc:	f002 0203 	and.w	r2, r2, #3
 80026e0:	2a01      	cmp	r2, #1
 80026e2:	d11a      	bne.n	800271a <HAL_RCC_GetSysClockFreq+0x6a>
 80026e4:	6819      	ldr	r1, [r3, #0]
 80026e6:	4a23      	ldr	r2, [pc, #140]	; (8002774 <HAL_RCC_GetSysClockFreq+0xc4>)
 80026e8:	0709      	lsls	r1, r1, #28
 80026ea:	bf54      	ite	pl
 80026ec:	f8d2 2094 	ldrpl.w	r2, [r2, #148]	; 0x94
 80026f0:	6812      	ldrmi	r2, [r2, #0]
 80026f2:	4921      	ldr	r1, [pc, #132]	; (8002778 <HAL_RCC_GetSysClockFreq+0xc8>)
 80026f4:	bf54      	ite	pl
 80026f6:	f3c2 2203 	ubfxpl	r2, r2, #8, #4
 80026fa:	f3c2 1203 	ubfxmi	r2, r2, #4, #4
 80026fe:	f851 2022 	ldr.w	r2, [r1, r2, lsl #2]
 8002702:	6899      	ldr	r1, [r3, #8]
 8002704:	f011 0f0c 	tst.w	r1, #12
 8002708:	bf0c      	ite	eq
 800270a:	4610      	moveq	r0, r2
 800270c:	2000      	movne	r0, #0
 800270e:	e006      	b.n	800271e <HAL_RCC_GetSysClockFreq+0x6e>
 8002710:	481a      	ldr	r0, [pc, #104]	; (800277c <HAL_RCC_GetSysClockFreq+0xcc>)
 8002712:	e000      	b.n	8002716 <HAL_RCC_GetSysClockFreq+0x66>
 8002714:	481a      	ldr	r0, [pc, #104]	; (8002780 <HAL_RCC_GetSysClockFreq+0xd0>)
 8002716:	2200      	movs	r2, #0
 8002718:	e001      	b.n	800271e <HAL_RCC_GetSysClockFreq+0x6e>
 800271a:	2000      	movs	r0, #0
 800271c:	4602      	mov	r2, r0
 800271e:	689c      	ldr	r4, [r3, #8]
 8002720:	4914      	ldr	r1, [pc, #80]	; (8002774 <HAL_RCC_GetSysClockFreq+0xc4>)
 8002722:	f004 040c 	and.w	r4, r4, #12
 8002726:	2c0c      	cmp	r4, #12
 8002728:	d122      	bne.n	8002770 <HAL_RCC_GetSysClockFreq+0xc0>
 800272a:	68c8      	ldr	r0, [r1, #12]
 800272c:	68cc      	ldr	r4, [r1, #12]
 800272e:	f000 0003 	and.w	r0, r0, #3
 8002732:	f3c4 1402 	ubfx	r4, r4, #4, #3
 8002736:	2802      	cmp	r0, #2
 8002738:	f104 0401 	add.w	r4, r4, #1
 800273c:	d004      	beq.n	8002748 <HAL_RCC_GetSysClockFreq+0x98>
 800273e:	2803      	cmp	r0, #3
 8002740:	d109      	bne.n	8002756 <HAL_RCC_GetSysClockFreq+0xa6>
 8002742:	68ca      	ldr	r2, [r1, #12]
 8002744:	480e      	ldr	r0, [pc, #56]	; (8002780 <HAL_RCC_GetSysClockFreq+0xd0>)
 8002746:	e001      	b.n	800274c <HAL_RCC_GetSysClockFreq+0x9c>
 8002748:	68ca      	ldr	r2, [r1, #12]
 800274a:	480c      	ldr	r0, [pc, #48]	; (800277c <HAL_RCC_GetSysClockFreq+0xcc>)
 800274c:	fbb0 f4f4 	udiv	r4, r0, r4
 8002750:	f3c2 2206 	ubfx	r2, r2, #8, #7
 8002754:	e004      	b.n	8002760 <HAL_RCC_GetSysClockFreq+0xb0>
 8002756:	68c8      	ldr	r0, [r1, #12]
 8002758:	fbb2 f4f4 	udiv	r4, r2, r4
 800275c:	f3c0 2206 	ubfx	r2, r0, #8, #7
 8002760:	68d8      	ldr	r0, [r3, #12]
 8002762:	f3c0 6041 	ubfx	r0, r0, #25, #2
 8002766:	3001      	adds	r0, #1
 8002768:	4362      	muls	r2, r4
 800276a:	0040      	lsls	r0, r0, #1
 800276c:	fbb2 f0f0 	udiv	r0, r2, r0
 8002770:	bd10      	pop	{r4, pc}
 8002772:	bf00      	nop
 8002774:	40021000 	.word	0x40021000
 8002778:	0800b200 	.word	0x0800b200
 800277c:	00f42400 	.word	0x00f42400
 8002780:	007a1200 	.word	0x007a1200

08002784 <HAL_RCC_GetHCLKFreq>:
 8002784:	b508      	push	{r3, lr}
 8002786:	f7ff ff93 	bl	80026b0 <HAL_RCC_GetSysClockFreq>
 800278a:	4b08      	ldr	r3, [pc, #32]	; (80027ac <HAL_RCC_GetHCLKFreq+0x28>)
 800278c:	22f0      	movs	r2, #240	; 0xf0
 800278e:	689b      	ldr	r3, [r3, #8]
 8002790:	fa92 f2a2 	rbit	r2, r2
 8002794:	fab2 f282 	clz	r2, r2
 8002798:	f003 03f0 	and.w	r3, r3, #240	; 0xf0
 800279c:	40d3      	lsrs	r3, r2
 800279e:	4a04      	ldr	r2, [pc, #16]	; (80027b0 <HAL_RCC_GetHCLKFreq+0x2c>)
 80027a0:	5cd3      	ldrb	r3, [r2, r3]
 80027a2:	40d8      	lsrs	r0, r3
 80027a4:	4b03      	ldr	r3, [pc, #12]	; (80027b4 <HAL_RCC_GetHCLKFreq+0x30>)
 80027a6:	6018      	str	r0, [r3, #0]
 80027a8:	bd08      	pop	{r3, pc}
 80027aa:	bf00      	nop
 80027ac:	40021000 	.word	0x40021000
 80027b0:	0800b1f0 	.word	0x0800b1f0
 80027b4:	20000000 	.word	0x20000000

080027b8 <HAL_RCC_GetPCLK1Freq>:
 80027b8:	b508      	push	{r3, lr}
 80027ba:	f7ff ffe3 	bl	8002784 <HAL_RCC_GetHCLKFreq>
 80027be:	4b07      	ldr	r3, [pc, #28]	; (80027dc <HAL_RCC_GetPCLK1Freq+0x24>)
 80027c0:	f44f 62e0 	mov.w	r2, #1792	; 0x700
 80027c4:	689b      	ldr	r3, [r3, #8]
 80027c6:	fa92 f2a2 	rbit	r2, r2
 80027ca:	fab2 f282 	clz	r2, r2
 80027ce:	f403 63e0 	and.w	r3, r3, #1792	; 0x700
 80027d2:	40d3      	lsrs	r3, r2
 80027d4:	4a02      	ldr	r2, [pc, #8]	; (80027e0 <HAL_RCC_GetPCLK1Freq+0x28>)
 80027d6:	5cd3      	ldrb	r3, [r2, r3]
 80027d8:	40d8      	lsrs	r0, r3
 80027da:	bd08      	pop	{r3, pc}
 80027dc:	40021000 	.word	0x40021000
 80027e0:	0800b258 	.word	0x0800b258

080027e4 <HAL_RCC_GetPCLK2Freq>:
 80027e4:	b508      	push	{r3, lr}
 80027e6:	f7ff ffcd 	bl	8002784 <HAL_RCC_GetHCLKFreq>
 80027ea:	4b07      	ldr	r3, [pc, #28]	; (8002808 <HAL_RCC_GetPCLK2Freq+0x24>)
 80027ec:	f44f 5260 	mov.w	r2, #14336	; 0x3800
 80027f0:	689b      	ldr	r3, [r3, #8]
 80027f2:	fa92 f2a2 	rbit	r2, r2
 80027f6:	fab2 f282 	clz	r2, r2
 80027fa:	f403 5360 	and.w	r3, r3, #14336	; 0x3800
 80027fe:	40d3      	lsrs	r3, r2
 8002800:	4a02      	ldr	r2, [pc, #8]	; (800280c <HAL_RCC_GetPCLK2Freq+0x28>)
 8002802:	5cd3      	ldrb	r3, [r2, r3]
 8002804:	40d8      	lsrs	r0, r3
 8002806:	bd08      	pop	{r3, pc}
 8002808:	40021000 	.word	0x40021000
 800280c:	0800b258 	.word	0x0800b258

08002810 <RCCEx_PLLSAI1_ConfigNP>:
 8002810:	b570      	push	{r4, r5, r6, lr}
 8002812:	4c2b      	ldr	r4, [pc, #172]	; (80028c0 <RCCEx_PLLSAI1_ConfigNP+0xb0>)
 8002814:	6823      	ldr	r3, [r4, #0]
 8002816:	f023 6380 	bic.w	r3, r3, #67108864	; 0x4000000
 800281a:	6023      	str	r3, [r4, #0]
 800281c:	4605      	mov	r5, r0
 800281e:	f7fe fab1 	bl	8000d84 <HAL_GetTick>
 8002822:	4606      	mov	r6, r0
 8002824:	f04f 6300 	mov.w	r3, #134217728	; 0x8000000
 8002828:	fa93 f3a3 	rbit	r3, r3
 800282c:	f04f 6300 	mov.w	r3, #134217728	; 0x8000000
 8002830:	6822      	ldr	r2, [r4, #0]
 8002832:	fa93 f3a3 	rbit	r3, r3
 8002836:	fab3 f383 	clz	r3, r3
 800283a:	f003 031f 	and.w	r3, r3, #31
 800283e:	fa22 f303 	lsr.w	r3, r2, r3
 8002842:	07da      	lsls	r2, r3, #31
 8002844:	d506      	bpl.n	8002854 <RCCEx_PLLSAI1_ConfigNP+0x44>
 8002846:	f7fe fa9d 	bl	8000d84 <HAL_GetTick>
 800284a:	1b80      	subs	r0, r0, r6
 800284c:	f5b0 7f7a 	cmp.w	r0, #1000	; 0x3e8
 8002850:	d9e8      	bls.n	8002824 <RCCEx_PLLSAI1_ConfigNP+0x14>
 8002852:	e02c      	b.n	80028ae <RCCEx_PLLSAI1_ConfigNP+0x9e>
 8002854:	6922      	ldr	r2, [r4, #16]
 8002856:	682b      	ldr	r3, [r5, #0]
 8002858:	f422 42fe 	bic.w	r2, r2, #32512	; 0x7f00
 800285c:	ea42 2303 	orr.w	r3, r2, r3, lsl #8
 8002860:	6123      	str	r3, [r4, #16]
 8002862:	6922      	ldr	r2, [r4, #16]
 8002864:	686b      	ldr	r3, [r5, #4]
 8002866:	f422 3200 	bic.w	r2, r2, #131072	; 0x20000
 800286a:	091b      	lsrs	r3, r3, #4
 800286c:	ea42 4343 	orr.w	r3, r2, r3, lsl #17
 8002870:	6123      	str	r3, [r4, #16]
 8002872:	6823      	ldr	r3, [r4, #0]
 8002874:	f043 6380 	orr.w	r3, r3, #67108864	; 0x4000000
 8002878:	6023      	str	r3, [r4, #0]
 800287a:	f7fe fa83 	bl	8000d84 <HAL_GetTick>
 800287e:	4606      	mov	r6, r0
 8002880:	f04f 6300 	mov.w	r3, #134217728	; 0x8000000
 8002884:	fa93 f3a3 	rbit	r3, r3
 8002888:	f04f 6300 	mov.w	r3, #134217728	; 0x8000000
 800288c:	6822      	ldr	r2, [r4, #0]
 800288e:	fa93 f3a3 	rbit	r3, r3
 8002892:	fab3 f383 	clz	r3, r3
 8002896:	f003 031f 	and.w	r3, r3, #31
 800289a:	fa22 f303 	lsr.w	r3, r2, r3
 800289e:	07db      	lsls	r3, r3, #31
 80028a0:	d407      	bmi.n	80028b2 <RCCEx_PLLSAI1_ConfigNP+0xa2>
 80028a2:	f7fe fa6f 	bl	8000d84 <HAL_GetTick>
 80028a6:	1b80      	subs	r0, r0, r6
 80028a8:	f5b0 7f7a 	cmp.w	r0, #1000	; 0x3e8
 80028ac:	d9e8      	bls.n	8002880 <RCCEx_PLLSAI1_ConfigNP+0x70>
 80028ae:	2003      	movs	r0, #3
 80028b0:	bd70      	pop	{r4, r5, r6, pc}
 80028b2:	6922      	ldr	r2, [r4, #16]
 80028b4:	692b      	ldr	r3, [r5, #16]
 80028b6:	4313      	orrs	r3, r2
 80028b8:	6123      	str	r3, [r4, #16]
 80028ba:	2000      	movs	r0, #0
 80028bc:	bd70      	pop	{r4, r5, r6, pc}
 80028be:	bf00      	nop
 80028c0:	40021000 	.word	0x40021000

080028c4 <RCCEx_PLLSAI2_ConfigNP>:
 80028c4:	b570      	push	{r4, r5, r6, lr}
 80028c6:	4c2b      	ldr	r4, [pc, #172]	; (8002974 <RCCEx_PLLSAI2_ConfigNP+0xb0>)
 80028c8:	6823      	ldr	r3, [r4, #0]
 80028ca:	f023 5380 	bic.w	r3, r3, #268435456	; 0x10000000
 80028ce:	6023      	str	r3, [r4, #0]
 80028d0:	4605      	mov	r5, r0
 80028d2:	f7fe fa57 	bl	8000d84 <HAL_GetTick>
 80028d6:	4606      	mov	r6, r0
 80028d8:	f04f 5300 	mov.w	r3, #536870912	; 0x20000000
 80028dc:	fa93 f3a3 	rbit	r3, r3
 80028e0:	f04f 5300 	mov.w	r3, #536870912	; 0x20000000
 80028e4:	6822      	ldr	r2, [r4, #0]
 80028e6:	fa93 f3a3 	rbit	r3, r3
 80028ea:	fab3 f383 	clz	r3, r3
 80028ee:	f003 031f 	and.w	r3, r3, #31
 80028f2:	fa22 f303 	lsr.w	r3, r2, r3
 80028f6:	07da      	lsls	r2, r3, #31
 80028f8:	d506      	bpl.n	8002908 <RCCEx_PLLSAI2_ConfigNP+0x44>
 80028fa:	f7fe fa43 	bl	8000d84 <HAL_GetTick>
 80028fe:	1b80      	subs	r0, r0, r6
 8002900:	f5b0 7f7a 	cmp.w	r0, #1000	; 0x3e8
 8002904:	d9e8      	bls.n	80028d8 <RCCEx_PLLSAI2_ConfigNP+0x14>
 8002906:	e02c      	b.n	8002962 <RCCEx_PLLSAI2_ConfigNP+0x9e>
 8002908:	6962      	ldr	r2, [r4, #20]
 800290a:	682b      	ldr	r3, [r5, #0]
 800290c:	f422 42fe 	bic.w	r2, r2, #32512	; 0x7f00
 8002910:	ea42 2303 	orr.w	r3, r2, r3, lsl #8
 8002914:	6163      	str	r3, [r4, #20]
 8002916:	6962      	ldr	r2, [r4, #20]
 8002918:	686b      	ldr	r3, [r5, #4]
 800291a:	f422 3200 	bic.w	r2, r2, #131072	; 0x20000
 800291e:	091b      	lsrs	r3, r3, #4
 8002920:	ea42 4343 	orr.w	r3, r2, r3, lsl #17
 8002924:	6163      	str	r3, [r4, #20]
 8002926:	6823      	ldr	r3, [r4, #0]
 8002928:	f043 5380 	orr.w	r3, r3, #268435456	; 0x10000000
 800292c:	6023      	str	r3, [r4, #0]
 800292e:	f7fe fa29 	bl	8000d84 <HAL_GetTick>
 8002932:	4606      	mov	r6, r0
 8002934:	f04f 5300 	mov.w	r3, #536870912	; 0x20000000
 8002938:	fa93 f3a3 	rbit	r3, r3
 800293c:	f04f 5300 	mov.w	r3, #536870912	; 0x20000000
 8002940:	6822      	ldr	r2, [r4, #0]
 8002942:	fa93 f3a3 	rbit	r3, r3
 8002946:	fab3 f383 	clz	r3, r3
 800294a:	f003 031f 	and.w	r3, r3, #31
 800294e:	fa22 f303 	lsr.w	r3, r2, r3
 8002952:	07db      	lsls	r3, r3, #31
 8002954:	d407      	bmi.n	8002966 <RCCEx_PLLSAI2_ConfigNP+0xa2>
 8002956:	f7fe fa15 	bl	8000d84 <HAL_GetTick>
 800295a:	1b80      	subs	r0, r0, r6
 800295c:	f5b0 7f7a 	cmp.w	r0, #1000	; 0x3e8
 8002960:	d9e8      	bls.n	8002934 <RCCEx_PLLSAI2_ConfigNP+0x70>
 8002962:	2003      	movs	r0, #3
 8002964:	bd70      	pop	{r4, r5, r6, pc}
 8002966:	6962      	ldr	r2, [r4, #20]
 8002968:	68eb      	ldr	r3, [r5, #12]
 800296a:	4313      	orrs	r3, r2
 800296c:	6163      	str	r3, [r4, #20]
 800296e:	2000      	movs	r0, #0
 8002970:	bd70      	pop	{r4, r5, r6, pc}
 8002972:	bf00      	nop
 8002974:	40021000 	.word	0x40021000

08002978 <RCCEx_PLLSAI1_ConfigNQ>:
 8002978:	b570      	push	{r4, r5, r6, lr}
 800297a:	4c2b      	ldr	r4, [pc, #172]	; (8002a28 <RCCEx_PLLSAI1_ConfigNQ+0xb0>)
 800297c:	6823      	ldr	r3, [r4, #0]
 800297e:	f023 6380 	bic.w	r3, r3, #67108864	; 0x4000000
 8002982:	6023      	str	r3, [r4, #0]
 8002984:	4605      	mov	r5, r0
 8002986:	f7fe f9fd 	bl	8000d84 <HAL_GetTick>
 800298a:	4606      	mov	r6, r0
 800298c:	f04f 6300 	mov.w	r3, #134217728	; 0x8000000
 8002990:	fa93 f3a3 	rbit	r3, r3
 8002994:	f04f 6300 	mov.w	r3, #134217728	; 0x8000000
 8002998:	6822      	ldr	r2, [r4, #0]
 800299a:	fa93 f3a3 	rbit	r3, r3
 800299e:	fab3 f383 	clz	r3, r3
 80029a2:	f003 031f 	and.w	r3, r3, #31
 80029a6:	fa22 f303 	lsr.w	r3, r2, r3
 80029aa:	07da      	lsls	r2, r3, #31
 80029ac:	d506      	bpl.n	80029bc <RCCEx_PLLSAI1_ConfigNQ+0x44>
 80029ae:	f7fe f9e9 	bl	8000d84 <HAL_GetTick>
 80029b2:	1b80      	subs	r0, r0, r6
 80029b4:	f5b0 7f7a 	cmp.w	r0, #1000	; 0x3e8
 80029b8:	d9e8      	bls.n	800298c <RCCEx_PLLSAI1_ConfigNQ+0x14>
 80029ba:	e02d      	b.n	8002a18 <RCCEx_PLLSAI1_ConfigNQ+0xa0>
 80029bc:	6922      	ldr	r2, [r4, #16]
 80029be:	682b      	ldr	r3, [r5, #0]
 80029c0:	f422 42fe 	bic.w	r2, r2, #32512	; 0x7f00
 80029c4:	ea42 2303 	orr.w	r3, r2, r3, lsl #8
 80029c8:	6123      	str	r3, [r4, #16]
 80029ca:	68ab      	ldr	r3, [r5, #8]
 80029cc:	6922      	ldr	r2, [r4, #16]
 80029ce:	085b      	lsrs	r3, r3, #1
 80029d0:	f422 02c0 	bic.w	r2, r2, #6291456	; 0x600000
 80029d4:	3b01      	subs	r3, #1
 80029d6:	ea42 5343 	orr.w	r3, r2, r3, lsl #21
 80029da:	6123      	str	r3, [r4, #16]
 80029dc:	6823      	ldr	r3, [r4, #0]
 80029de:	f043 6380 	orr.w	r3, r3, #67108864	; 0x4000000
 80029e2:	6023      	str	r3, [r4, #0]
 80029e4:	f7fe f9ce 	bl	8000d84 <HAL_GetTick>
 80029e8:	4606      	mov	r6, r0
 80029ea:	f04f 6300 	mov.w	r3, #134217728	; 0x8000000
 80029ee:	fa93 f3a3 	rbit	r3, r3
 80029f2:	f04f 6300 	mov.w	r3, #134217728	; 0x8000000
 80029f6:	6822      	ldr	r2, [r4, #0]
 80029f8:	fa93 f3a3 	rbit	r3, r3
 80029fc:	fab3 f383 	clz	r3, r3
 8002a00:	f003 031f 	and.w	r3, r3, #31
 8002a04:	fa22 f303 	lsr.w	r3, r2, r3
 8002a08:	07db      	lsls	r3, r3, #31
 8002a0a:	d407      	bmi.n	8002a1c <RCCEx_PLLSAI1_ConfigNQ+0xa4>
 8002a0c:	f7fe f9ba 	bl	8000d84 <HAL_GetTick>
 8002a10:	1b80      	subs	r0, r0, r6
 8002a12:	f5b0 7f7a 	cmp.w	r0, #1000	; 0x3e8
 8002a16:	d9e8      	bls.n	80029ea <RCCEx_PLLSAI1_ConfigNQ+0x72>
 8002a18:	2003      	movs	r0, #3
 8002a1a:	bd70      	pop	{r4, r5, r6, pc}
 8002a1c:	6922      	ldr	r2, [r4, #16]
 8002a1e:	692b      	ldr	r3, [r5, #16]
 8002a20:	4313      	orrs	r3, r2
 8002a22:	6123      	str	r3, [r4, #16]
 8002a24:	2000      	movs	r0, #0
 8002a26:	bd70      	pop	{r4, r5, r6, pc}
 8002a28:	40021000 	.word	0x40021000

08002a2c <HAL_RCCEx_PeriphCLKConfig>:
 8002a2c:	e92d 43f7 	stmdb	sp!, {r0, r1, r2, r4, r5, r6, r7, r8, r9, lr}
 8002a30:	6805      	ldr	r5, [r0, #0]
 8002a32:	f415 6500 	ands.w	r5, r5, #2048	; 0x800
 8002a36:	4604      	mov	r4, r0
 8002a38:	d027      	beq.n	8002a8a <HAL_RCCEx_PeriphCLKConfig+0x5e>
 8002a3a:	6d43      	ldr	r3, [r0, #84]	; 0x54
 8002a3c:	f5b3 0f80 	cmp.w	r3, #4194304	; 0x400000
 8002a40:	d012      	beq.n	8002a68 <HAL_RCCEx_PeriphCLKConfig+0x3c>
 8002a42:	d804      	bhi.n	8002a4e <HAL_RCCEx_PeriphCLKConfig+0x22>
 8002a44:	bb03      	cbnz	r3, 8002a88 <HAL_RCCEx_PeriphCLKConfig+0x5c>
 8002a46:	3004      	adds	r0, #4
 8002a48:	f7ff fee2 	bl	8002810 <RCCEx_PLLSAI1_ConfigNP>
 8002a4c:	e00f      	b.n	8002a6e <HAL_RCCEx_PeriphCLKConfig+0x42>
 8002a4e:	f5b3 0f00 	cmp.w	r3, #8388608	; 0x800000
 8002a52:	d003      	beq.n	8002a5c <HAL_RCCEx_PeriphCLKConfig+0x30>
 8002a54:	f5b3 0f40 	cmp.w	r3, #12582912	; 0xc00000
 8002a58:	d00b      	beq.n	8002a72 <HAL_RCCEx_PeriphCLKConfig+0x46>
 8002a5a:	e015      	b.n	8002a88 <HAL_RCCEx_PeriphCLKConfig+0x5c>
 8002a5c:	4baa      	ldr	r3, [pc, #680]	; (8002d08 <HAL_RCCEx_PeriphCLKConfig+0x2dc>)
 8002a5e:	68da      	ldr	r2, [r3, #12]
 8002a60:	f442 3280 	orr.w	r2, r2, #65536	; 0x10000
 8002a64:	60da      	str	r2, [r3, #12]
 8002a66:	e004      	b.n	8002a72 <HAL_RCCEx_PeriphCLKConfig+0x46>
 8002a68:	3018      	adds	r0, #24
 8002a6a:	f7ff ff2b 	bl	80028c4 <RCCEx_PLLSAI2_ConfigNP>
 8002a6e:	4605      	mov	r5, r0
 8002a70:	b958      	cbnz	r0, 8002a8a <HAL_RCCEx_PeriphCLKConfig+0x5e>
 8002a72:	4ba5      	ldr	r3, [pc, #660]	; (8002d08 <HAL_RCCEx_PeriphCLKConfig+0x2dc>)
 8002a74:	6d62      	ldr	r2, [r4, #84]	; 0x54
 8002a76:	f8d3 1088 	ldr.w	r1, [r3, #136]	; 0x88
 8002a7a:	f421 0140 	bic.w	r1, r1, #12582912	; 0xc00000
 8002a7e:	430a      	orrs	r2, r1
 8002a80:	f8c3 2088 	str.w	r2, [r3, #136]	; 0x88
 8002a84:	2500      	movs	r5, #0
 8002a86:	e000      	b.n	8002a8a <HAL_RCCEx_PeriphCLKConfig+0x5e>
 8002a88:	2501      	movs	r5, #1
 8002a8a:	6823      	ldr	r3, [r4, #0]
 8002a8c:	04d8      	lsls	r0, r3, #19
 8002a8e:	d529      	bpl.n	8002ae4 <HAL_RCCEx_PeriphCLKConfig+0xb8>
 8002a90:	6da3      	ldr	r3, [r4, #88]	; 0x58
 8002a92:	f1b3 7f80 	cmp.w	r3, #16777216	; 0x1000000
 8002a96:	d012      	beq.n	8002abe <HAL_RCCEx_PeriphCLKConfig+0x92>
 8002a98:	d804      	bhi.n	8002aa4 <HAL_RCCEx_PeriphCLKConfig+0x78>
 8002a9a:	bb13      	cbnz	r3, 8002ae2 <HAL_RCCEx_PeriphCLKConfig+0xb6>
 8002a9c:	1d20      	adds	r0, r4, #4
 8002a9e:	f7ff feb7 	bl	8002810 <RCCEx_PLLSAI1_ConfigNP>
 8002aa2:	e010      	b.n	8002ac6 <HAL_RCCEx_PeriphCLKConfig+0x9a>
 8002aa4:	f1b3 7f00 	cmp.w	r3, #33554432	; 0x2000000
 8002aa8:	d003      	beq.n	8002ab2 <HAL_RCCEx_PeriphCLKConfig+0x86>
 8002aaa:	f1b3 7f40 	cmp.w	r3, #50331648	; 0x3000000
 8002aae:	d00c      	beq.n	8002aca <HAL_RCCEx_PeriphCLKConfig+0x9e>
 8002ab0:	e017      	b.n	8002ae2 <HAL_RCCEx_PeriphCLKConfig+0xb6>
 8002ab2:	4b95      	ldr	r3, [pc, #596]	; (8002d08 <HAL_RCCEx_PeriphCLKConfig+0x2dc>)
 8002ab4:	68da      	ldr	r2, [r3, #12]
 8002ab6:	f442 3280 	orr.w	r2, r2, #65536	; 0x10000
 8002aba:	60da      	str	r2, [r3, #12]
 8002abc:	e005      	b.n	8002aca <HAL_RCCEx_PeriphCLKConfig+0x9e>
 8002abe:	f104 0018 	add.w	r0, r4, #24
 8002ac2:	f7ff feff 	bl	80028c4 <RCCEx_PLLSAI2_ConfigNP>
 8002ac6:	4606      	mov	r6, r0
 8002ac8:	e000      	b.n	8002acc <HAL_RCCEx_PeriphCLKConfig+0xa0>
 8002aca:	462e      	mov	r6, r5
 8002acc:	b966      	cbnz	r6, 8002ae8 <HAL_RCCEx_PeriphCLKConfig+0xbc>
 8002ace:	4b8e      	ldr	r3, [pc, #568]	; (8002d08 <HAL_RCCEx_PeriphCLKConfig+0x2dc>)
 8002ad0:	6da2      	ldr	r2, [r4, #88]	; 0x58
 8002ad2:	f8d3 1088 	ldr.w	r1, [r3, #136]	; 0x88
 8002ad6:	f021 7140 	bic.w	r1, r1, #50331648	; 0x3000000
 8002ada:	430a      	orrs	r2, r1
 8002adc:	f8c3 2088 	str.w	r2, [r3, #136]	; 0x88
 8002ae0:	e003      	b.n	8002aea <HAL_RCCEx_PeriphCLKConfig+0xbe>
 8002ae2:	2501      	movs	r5, #1
 8002ae4:	462e      	mov	r6, r5
 8002ae6:	e000      	b.n	8002aea <HAL_RCCEx_PeriphCLKConfig+0xbe>
 8002ae8:	4635      	mov	r5, r6
 8002aea:	6823      	ldr	r3, [r4, #0]
 8002aec:	0399      	lsls	r1, r3, #14
 8002aee:	d57c      	bpl.n	8002bea <HAL_RCCEx_PeriphCLKConfig+0x1be>
 8002af0:	4f85      	ldr	r7, [pc, #532]	; (8002d08 <HAL_RCCEx_PeriphCLKConfig+0x2dc>)
 8002af2:	6dbb      	ldr	r3, [r7, #88]	; 0x58
 8002af4:	00da      	lsls	r2, r3, #3
 8002af6:	d40b      	bmi.n	8002b10 <HAL_RCCEx_PeriphCLKConfig+0xe4>
 8002af8:	6dbb      	ldr	r3, [r7, #88]	; 0x58
 8002afa:	f043 5380 	orr.w	r3, r3, #268435456	; 0x10000000
 8002afe:	65bb      	str	r3, [r7, #88]	; 0x58
 8002b00:	6dbb      	ldr	r3, [r7, #88]	; 0x58
 8002b02:	f003 5380 	and.w	r3, r3, #268435456	; 0x10000000
 8002b06:	9301      	str	r3, [sp, #4]
 8002b08:	9b01      	ldr	r3, [sp, #4]
 8002b0a:	f04f 0801 	mov.w	r8, #1
 8002b0e:	e001      	b.n	8002b14 <HAL_RCCEx_PeriphCLKConfig+0xe8>
 8002b10:	f04f 0800 	mov.w	r8, #0
 8002b14:	4b7d      	ldr	r3, [pc, #500]	; (8002d0c <HAL_RCCEx_PeriphCLKConfig+0x2e0>)
 8002b16:	681a      	ldr	r2, [r3, #0]
 8002b18:	f442 7280 	orr.w	r2, r2, #256	; 0x100
 8002b1c:	601a      	str	r2, [r3, #0]
 8002b1e:	f7fe f931 	bl	8000d84 <HAL_GetTick>
 8002b22:	4681      	mov	r9, r0
 8002b24:	4b79      	ldr	r3, [pc, #484]	; (8002d0c <HAL_RCCEx_PeriphCLKConfig+0x2e0>)
 8002b26:	681b      	ldr	r3, [r3, #0]
 8002b28:	05db      	lsls	r3, r3, #23
 8002b2a:	d406      	bmi.n	8002b3a <HAL_RCCEx_PeriphCLKConfig+0x10e>
 8002b2c:	f7fe f92a 	bl	8000d84 <HAL_GetTick>
 8002b30:	ebc9 0000 	rsb	r0, r9, r0
 8002b34:	2864      	cmp	r0, #100	; 0x64
 8002b36:	d9f5      	bls.n	8002b24 <HAL_RCCEx_PeriphCLKConfig+0xf8>
 8002b38:	e04e      	b.n	8002bd8 <HAL_RCCEx_PeriphCLKConfig+0x1ac>
 8002b3a:	2e00      	cmp	r6, #0
 8002b3c:	d14d      	bne.n	8002bda <HAL_RCCEx_PeriphCLKConfig+0x1ae>
 8002b3e:	f8d7 1090 	ldr.w	r1, [r7, #144]	; 0x90
 8002b42:	6f62      	ldr	r2, [r4, #116]	; 0x74
 8002b44:	4b70      	ldr	r3, [pc, #448]	; (8002d08 <HAL_RCCEx_PeriphCLKConfig+0x2dc>)
 8002b46:	f401 7140 	and.w	r1, r1, #768	; 0x300
 8002b4a:	4291      	cmp	r1, r2
 8002b4c:	d011      	beq.n	8002b72 <HAL_RCCEx_PeriphCLKConfig+0x146>
 8002b4e:	f8d3 6090 	ldr.w	r6, [r3, #144]	; 0x90
 8002b52:	f8d3 2090 	ldr.w	r2, [r3, #144]	; 0x90
 8002b56:	f442 3280 	orr.w	r2, r2, #65536	; 0x10000
 8002b5a:	f8c3 2090 	str.w	r2, [r3, #144]	; 0x90
 8002b5e:	f8d3 2090 	ldr.w	r2, [r3, #144]	; 0x90
 8002b62:	f426 7640 	bic.w	r6, r6, #768	; 0x300
 8002b66:	f422 3280 	bic.w	r2, r2, #65536	; 0x10000
 8002b6a:	f8c3 2090 	str.w	r2, [r3, #144]	; 0x90
 8002b6e:	f8c3 6090 	str.w	r6, [r3, #144]	; 0x90
 8002b72:	07b0      	lsls	r0, r6, #30
 8002b74:	f140 8193 	bpl.w	8002e9e <HAL_RCCEx_PeriphCLKConfig+0x472>
 8002b78:	f7fe f904 	bl	8000d84 <HAL_GetTick>
 8002b7c:	4606      	mov	r6, r0
 8002b7e:	2302      	movs	r3, #2
 8002b80:	fa93 f2a3 	rbit	r2, r3
 8002b84:	fa93 f2a3 	rbit	r2, r3
 8002b88:	fab2 f282 	clz	r2, r2
 8002b8c:	f042 0240 	orr.w	r2, r2, #64	; 0x40
 8002b90:	0952      	lsrs	r2, r2, #5
 8002b92:	429a      	cmp	r2, r3
 8002b94:	d102      	bne.n	8002b9c <HAL_RCCEx_PeriphCLKConfig+0x170>
 8002b96:	f8d7 3090 	ldr.w	r3, [r7, #144]	; 0x90
 8002b9a:	e00b      	b.n	8002bb4 <HAL_RCCEx_PeriphCLKConfig+0x188>
 8002b9c:	fa93 f3a3 	rbit	r3, r3
 8002ba0:	fab3 f383 	clz	r3, r3
 8002ba4:	f043 0340 	orr.w	r3, r3, #64	; 0x40
 8002ba8:	095b      	lsrs	r3, r3, #5
 8002baa:	2b03      	cmp	r3, #3
 8002bac:	bf0c      	ite	eq
 8002bae:	f8d7 3094 	ldreq.w	r3, [r7, #148]	; 0x94
 8002bb2:	69fb      	ldrne	r3, [r7, #28]
 8002bb4:	2202      	movs	r2, #2
 8002bb6:	fa92 f2a2 	rbit	r2, r2
 8002bba:	fab2 f282 	clz	r2, r2
 8002bbe:	f002 021f 	and.w	r2, r2, #31
 8002bc2:	40d3      	lsrs	r3, r2
 8002bc4:	07d9      	lsls	r1, r3, #31
 8002bc6:	f100 816a 	bmi.w	8002e9e <HAL_RCCEx_PeriphCLKConfig+0x472>
 8002bca:	f7fe f8db 	bl	8000d84 <HAL_GetTick>
 8002bce:	f241 3388 	movw	r3, #5000	; 0x1388
 8002bd2:	1b80      	subs	r0, r0, r6
 8002bd4:	4298      	cmp	r0, r3
 8002bd6:	d9d2      	bls.n	8002b7e <HAL_RCCEx_PeriphCLKConfig+0x152>
 8002bd8:	2603      	movs	r6, #3
 8002bda:	f1b8 0f00 	cmp.w	r8, #0
 8002bde:	d005      	beq.n	8002bec <HAL_RCCEx_PeriphCLKConfig+0x1c0>
 8002be0:	6dbb      	ldr	r3, [r7, #88]	; 0x58
 8002be2:	f023 5380 	bic.w	r3, r3, #268435456	; 0x10000000
 8002be6:	65bb      	str	r3, [r7, #88]	; 0x58
 8002be8:	e000      	b.n	8002bec <HAL_RCCEx_PeriphCLKConfig+0x1c0>
 8002bea:	462e      	mov	r6, r5
 8002bec:	6823      	ldr	r3, [r4, #0]
 8002bee:	07da      	lsls	r2, r3, #31
 8002bf0:	d508      	bpl.n	8002c04 <HAL_RCCEx_PeriphCLKConfig+0x1d8>
 8002bf2:	4a45      	ldr	r2, [pc, #276]	; (8002d08 <HAL_RCCEx_PeriphCLKConfig+0x2dc>)
 8002bf4:	6aa1      	ldr	r1, [r4, #40]	; 0x28
 8002bf6:	f8d2 0088 	ldr.w	r0, [r2, #136]	; 0x88
 8002bfa:	f020 0003 	bic.w	r0, r0, #3
 8002bfe:	4301      	orrs	r1, r0
 8002c00:	f8c2 1088 	str.w	r1, [r2, #136]	; 0x88
 8002c04:	079f      	lsls	r7, r3, #30
 8002c06:	d508      	bpl.n	8002c1a <HAL_RCCEx_PeriphCLKConfig+0x1ee>
 8002c08:	4a3f      	ldr	r2, [pc, #252]	; (8002d08 <HAL_RCCEx_PeriphCLKConfig+0x2dc>)
 8002c0a:	6ae1      	ldr	r1, [r4, #44]	; 0x2c
 8002c0c:	f8d2 0088 	ldr.w	r0, [r2, #136]	; 0x88
 8002c10:	f020 000c 	bic.w	r0, r0, #12
 8002c14:	4301      	orrs	r1, r0
 8002c16:	f8c2 1088 	str.w	r1, [r2, #136]	; 0x88
 8002c1a:	075d      	lsls	r5, r3, #29
 8002c1c:	d508      	bpl.n	8002c30 <HAL_RCCEx_PeriphCLKConfig+0x204>
 8002c1e:	4a3a      	ldr	r2, [pc, #232]	; (8002d08 <HAL_RCCEx_PeriphCLKConfig+0x2dc>)
 8002c20:	6b21      	ldr	r1, [r4, #48]	; 0x30
 8002c22:	f8d2 0088 	ldr.w	r0, [r2, #136]	; 0x88
 8002c26:	f020 0030 	bic.w	r0, r0, #48	; 0x30
 8002c2a:	4301      	orrs	r1, r0
 8002c2c:	f8c2 1088 	str.w	r1, [r2, #136]	; 0x88
 8002c30:	0718      	lsls	r0, r3, #28
 8002c32:	d508      	bpl.n	8002c46 <HAL_RCCEx_PeriphCLKConfig+0x21a>
 8002c34:	4a34      	ldr	r2, [pc, #208]	; (8002d08 <HAL_RCCEx_PeriphCLKConfig+0x2dc>)
 8002c36:	6b61      	ldr	r1, [r4, #52]	; 0x34
 8002c38:	f8d2 0088 	ldr.w	r0, [r2, #136]	; 0x88
 8002c3c:	f020 00c0 	bic.w	r0, r0, #192	; 0xc0
 8002c40:	4301      	orrs	r1, r0
 8002c42:	f8c2 1088 	str.w	r1, [r2, #136]	; 0x88
 8002c46:	06d9      	lsls	r1, r3, #27
 8002c48:	d508      	bpl.n	8002c5c <HAL_RCCEx_PeriphCLKConfig+0x230>
 8002c4a:	4a2f      	ldr	r2, [pc, #188]	; (8002d08 <HAL_RCCEx_PeriphCLKConfig+0x2dc>)
 8002c4c:	6ba1      	ldr	r1, [r4, #56]	; 0x38
 8002c4e:	f8d2 0088 	ldr.w	r0, [r2, #136]	; 0x88
 8002c52:	f420 7040 	bic.w	r0, r0, #768	; 0x300
 8002c56:	4301      	orrs	r1, r0
 8002c58:	f8c2 1088 	str.w	r1, [r2, #136]	; 0x88
 8002c5c:	069a      	lsls	r2, r3, #26
 8002c5e:	d508      	bpl.n	8002c72 <HAL_RCCEx_PeriphCLKConfig+0x246>
 8002c60:	4a29      	ldr	r2, [pc, #164]	; (8002d08 <HAL_RCCEx_PeriphCLKConfig+0x2dc>)
 8002c62:	6be1      	ldr	r1, [r4, #60]	; 0x3c
 8002c64:	f8d2 0088 	ldr.w	r0, [r2, #136]	; 0x88
 8002c68:	f420 6040 	bic.w	r0, r0, #3072	; 0xc00
 8002c6c:	4301      	orrs	r1, r0
 8002c6e:	f8c2 1088 	str.w	r1, [r2, #136]	; 0x88
 8002c72:	059f      	lsls	r7, r3, #22
 8002c74:	d508      	bpl.n	8002c88 <HAL_RCCEx_PeriphCLKConfig+0x25c>
 8002c76:	4a24      	ldr	r2, [pc, #144]	; (8002d08 <HAL_RCCEx_PeriphCLKConfig+0x2dc>)
 8002c78:	6ce1      	ldr	r1, [r4, #76]	; 0x4c
 8002c7a:	f8d2 0088 	ldr.w	r0, [r2, #136]	; 0x88
 8002c7e:	f420 2040 	bic.w	r0, r0, #786432	; 0xc0000
 8002c82:	4301      	orrs	r1, r0
 8002c84:	f8c2 1088 	str.w	r1, [r2, #136]	; 0x88
 8002c88:	055d      	lsls	r5, r3, #21
 8002c8a:	d508      	bpl.n	8002c9e <HAL_RCCEx_PeriphCLKConfig+0x272>
 8002c8c:	4a1e      	ldr	r2, [pc, #120]	; (8002d08 <HAL_RCCEx_PeriphCLKConfig+0x2dc>)
 8002c8e:	6d21      	ldr	r1, [r4, #80]	; 0x50
 8002c90:	f8d2 0088 	ldr.w	r0, [r2, #136]	; 0x88
 8002c94:	f420 1040 	bic.w	r0, r0, #3145728	; 0x300000
 8002c98:	4301      	orrs	r1, r0
 8002c9a:	f8c2 1088 	str.w	r1, [r2, #136]	; 0x88
 8002c9e:	0658      	lsls	r0, r3, #25
 8002ca0:	d508      	bpl.n	8002cb4 <HAL_RCCEx_PeriphCLKConfig+0x288>
 8002ca2:	4a19      	ldr	r2, [pc, #100]	; (8002d08 <HAL_RCCEx_PeriphCLKConfig+0x2dc>)
 8002ca4:	6c21      	ldr	r1, [r4, #64]	; 0x40
 8002ca6:	f8d2 0088 	ldr.w	r0, [r2, #136]	; 0x88
 8002caa:	f420 5040 	bic.w	r0, r0, #12288	; 0x3000
 8002cae:	4301      	orrs	r1, r0
 8002cb0:	f8c2 1088 	str.w	r1, [r2, #136]	; 0x88
 8002cb4:	0619      	lsls	r1, r3, #24
 8002cb6:	d508      	bpl.n	8002cca <HAL_RCCEx_PeriphCLKConfig+0x29e>
 8002cb8:	4a13      	ldr	r2, [pc, #76]	; (8002d08 <HAL_RCCEx_PeriphCLKConfig+0x2dc>)
 8002cba:	6c61      	ldr	r1, [r4, #68]	; 0x44
 8002cbc:	f8d2 0088 	ldr.w	r0, [r2, #136]	; 0x88
 8002cc0:	f420 4040 	bic.w	r0, r0, #49152	; 0xc000
 8002cc4:	4301      	orrs	r1, r0
 8002cc6:	f8c2 1088 	str.w	r1, [r2, #136]	; 0x88
 8002cca:	05da      	lsls	r2, r3, #23
 8002ccc:	d508      	bpl.n	8002ce0 <HAL_RCCEx_PeriphCLKConfig+0x2b4>
 8002cce:	4a0e      	ldr	r2, [pc, #56]	; (8002d08 <HAL_RCCEx_PeriphCLKConfig+0x2dc>)
 8002cd0:	6ca1      	ldr	r1, [r4, #72]	; 0x48
 8002cd2:	f8d2 0088 	ldr.w	r0, [r2, #136]	; 0x88
 8002cd6:	f420 3040 	bic.w	r0, r0, #196608	; 0x30000
 8002cda:	4301      	orrs	r1, r0
 8002cdc:	f8c2 1088 	str.w	r1, [r2, #136]	; 0x88
 8002ce0:	049f      	lsls	r7, r3, #18
 8002ce2:	d51e      	bpl.n	8002d22 <HAL_RCCEx_PeriphCLKConfig+0x2f6>
 8002ce4:	4b08      	ldr	r3, [pc, #32]	; (8002d08 <HAL_RCCEx_PeriphCLKConfig+0x2dc>)
 8002ce6:	6de2      	ldr	r2, [r4, #92]	; 0x5c
 8002ce8:	f8d3 1088 	ldr.w	r1, [r3, #136]	; 0x88
 8002cec:	f021 6140 	bic.w	r1, r1, #201326592	; 0xc000000
 8002cf0:	4311      	orrs	r1, r2
 8002cf2:	f1b2 6f00 	cmp.w	r2, #134217728	; 0x8000000
 8002cf6:	f8c3 1088 	str.w	r1, [r3, #136]	; 0x88
 8002cfa:	d109      	bne.n	8002d10 <HAL_RCCEx_PeriphCLKConfig+0x2e4>
 8002cfc:	68da      	ldr	r2, [r3, #12]
 8002cfe:	f442 1280 	orr.w	r2, r2, #1048576	; 0x100000
 8002d02:	60da      	str	r2, [r3, #12]
 8002d04:	e00d      	b.n	8002d22 <HAL_RCCEx_PeriphCLKConfig+0x2f6>
 8002d06:	bf00      	nop
 8002d08:	40021000 	.word	0x40021000
 8002d0c:	40007000 	.word	0x40007000
 8002d10:	f1b2 6f80 	cmp.w	r2, #67108864	; 0x4000000
 8002d14:	d105      	bne.n	8002d22 <HAL_RCCEx_PeriphCLKConfig+0x2f6>
 8002d16:	1d20      	adds	r0, r4, #4
 8002d18:	f7ff fe2e 	bl	8002978 <RCCEx_PLLSAI1_ConfigNQ>
 8002d1c:	2800      	cmp	r0, #0
 8002d1e:	bf18      	it	ne
 8002d20:	4606      	movne	r6, r0
 8002d22:	6823      	ldr	r3, [r4, #0]
 8002d24:	031d      	lsls	r5, r3, #12
 8002d26:	d519      	bpl.n	8002d5c <HAL_RCCEx_PeriphCLKConfig+0x330>
 8002d28:	4b8b      	ldr	r3, [pc, #556]	; (8002f58 <HAL_RCCEx_PeriphCLKConfig+0x52c>)
 8002d2a:	6e22      	ldr	r2, [r4, #96]	; 0x60
 8002d2c:	f8d3 1088 	ldr.w	r1, [r3, #136]	; 0x88
 8002d30:	f021 6140 	bic.w	r1, r1, #201326592	; 0xc000000
 8002d34:	4311      	orrs	r1, r2
 8002d36:	f1b2 6f00 	cmp.w	r2, #134217728	; 0x8000000
 8002d3a:	f8c3 1088 	str.w	r1, [r3, #136]	; 0x88
 8002d3e:	d104      	bne.n	8002d4a <HAL_RCCEx_PeriphCLKConfig+0x31e>
 8002d40:	68da      	ldr	r2, [r3, #12]
 8002d42:	f442 1280 	orr.w	r2, r2, #1048576	; 0x100000
 8002d46:	60da      	str	r2, [r3, #12]
 8002d48:	e008      	b.n	8002d5c <HAL_RCCEx_PeriphCLKConfig+0x330>
 8002d4a:	f1b2 6f80 	cmp.w	r2, #67108864	; 0x4000000
 8002d4e:	d105      	bne.n	8002d5c <HAL_RCCEx_PeriphCLKConfig+0x330>
 8002d50:	1d20      	adds	r0, r4, #4
 8002d52:	f7ff fe11 	bl	8002978 <RCCEx_PLLSAI1_ConfigNQ>
 8002d56:	2800      	cmp	r0, #0
 8002d58:	bf18      	it	ne
 8002d5a:	4606      	movne	r6, r0
 8002d5c:	6823      	ldr	r3, [r4, #0]
 8002d5e:	0358      	lsls	r0, r3, #13
 8002d60:	d519      	bpl.n	8002d96 <HAL_RCCEx_PeriphCLKConfig+0x36a>
 8002d62:	4b7d      	ldr	r3, [pc, #500]	; (8002f58 <HAL_RCCEx_PeriphCLKConfig+0x52c>)
 8002d64:	6e62      	ldr	r2, [r4, #100]	; 0x64
 8002d66:	f8d3 1088 	ldr.w	r1, [r3, #136]	; 0x88
 8002d6a:	f021 6140 	bic.w	r1, r1, #201326592	; 0xc000000
 8002d6e:	4311      	orrs	r1, r2
 8002d70:	f1b2 6f00 	cmp.w	r2, #134217728	; 0x8000000
 8002d74:	f8c3 1088 	str.w	r1, [r3, #136]	; 0x88
 8002d78:	d104      	bne.n	8002d84 <HAL_RCCEx_PeriphCLKConfig+0x358>
 8002d7a:	68da      	ldr	r2, [r3, #12]
 8002d7c:	f442 1280 	orr.w	r2, r2, #1048576	; 0x100000
 8002d80:	60da      	str	r2, [r3, #12]
 8002d82:	e008      	b.n	8002d96 <HAL_RCCEx_PeriphCLKConfig+0x36a>
 8002d84:	f1b2 6f80 	cmp.w	r2, #67108864	; 0x4000000
 8002d88:	d105      	bne.n	8002d96 <HAL_RCCEx_PeriphCLKConfig+0x36a>
 8002d8a:	1d20      	adds	r0, r4, #4
 8002d8c:	f7ff fdf4 	bl	8002978 <RCCEx_PLLSAI1_ConfigNQ>
 8002d90:	2800      	cmp	r0, #0
 8002d92:	bf18      	it	ne
 8002d94:	4606      	movne	r6, r0
 8002d96:	6823      	ldr	r3, [r4, #0]
 8002d98:	0459      	lsls	r1, r3, #17
 8002d9a:	d568      	bpl.n	8002e6e <HAL_RCCEx_PeriphCLKConfig+0x442>
 8002d9c:	4d6e      	ldr	r5, [pc, #440]	; (8002f58 <HAL_RCCEx_PeriphCLKConfig+0x52c>)
 8002d9e:	6ea3      	ldr	r3, [r4, #104]	; 0x68
 8002da0:	f8d5 2088 	ldr.w	r2, [r5, #136]	; 0x88
 8002da4:	f022 5240 	bic.w	r2, r2, #805306368	; 0x30000000
 8002da8:	431a      	orrs	r2, r3
 8002daa:	f1b3 5f80 	cmp.w	r3, #268435456	; 0x10000000
 8002dae:	f8c5 2088 	str.w	r2, [r5, #136]	; 0x88
 8002db2:	d11e      	bne.n	8002df2 <HAL_RCCEx_PeriphCLKConfig+0x3c6>
 8002db4:	682b      	ldr	r3, [r5, #0]
 8002db6:	f023 6380 	bic.w	r3, r3, #67108864	; 0x4000000
 8002dba:	602b      	str	r3, [r5, #0]
 8002dbc:	f7fd ffe2 	bl	8000d84 <HAL_GetTick>
 8002dc0:	4607      	mov	r7, r0
 8002dc2:	f04f 6300 	mov.w	r3, #134217728	; 0x8000000
 8002dc6:	fa93 f3a3 	rbit	r3, r3
 8002dca:	f04f 6300 	mov.w	r3, #134217728	; 0x8000000
 8002dce:	682a      	ldr	r2, [r5, #0]
 8002dd0:	fa93 f3a3 	rbit	r3, r3
 8002dd4:	fab3 f383 	clz	r3, r3
 8002dd8:	f003 031f 	and.w	r3, r3, #31
 8002ddc:	fa22 f303 	lsr.w	r3, r2, r3
 8002de0:	07da      	lsls	r2, r3, #31
 8002de2:	d566      	bpl.n	8002eb2 <HAL_RCCEx_PeriphCLKConfig+0x486>
 8002de4:	f7fd ffce 	bl	8000d84 <HAL_GetTick>
 8002de8:	1bc0      	subs	r0, r0, r7
 8002dea:	f5b0 7f7a 	cmp.w	r0, #1000	; 0x3e8
 8002dee:	d9e8      	bls.n	8002dc2 <HAL_RCCEx_PeriphCLKConfig+0x396>
 8002df0:	e0ab      	b.n	8002f4a <HAL_RCCEx_PeriphCLKConfig+0x51e>
 8002df2:	f1b3 5f00 	cmp.w	r3, #536870912	; 0x20000000
 8002df6:	d13a      	bne.n	8002e6e <HAL_RCCEx_PeriphCLKConfig+0x442>
 8002df8:	682b      	ldr	r3, [r5, #0]
 8002dfa:	f023 5380 	bic.w	r3, r3, #268435456	; 0x10000000
 8002dfe:	602b      	str	r3, [r5, #0]
 8002e00:	f7fd ffc0 	bl	8000d84 <HAL_GetTick>
 8002e04:	4607      	mov	r7, r0
 8002e06:	f04f 5300 	mov.w	r3, #536870912	; 0x20000000
 8002e0a:	fa93 f3a3 	rbit	r3, r3
 8002e0e:	f04f 5300 	mov.w	r3, #536870912	; 0x20000000
 8002e12:	682a      	ldr	r2, [r5, #0]
 8002e14:	fa93 f3a3 	rbit	r3, r3
 8002e18:	fab3 f383 	clz	r3, r3
 8002e1c:	f003 031f 	and.w	r3, r3, #31
 8002e20:	fa22 f303 	lsr.w	r3, r2, r3
 8002e24:	07d8      	lsls	r0, r3, #31
 8002e26:	d55c      	bpl.n	8002ee2 <HAL_RCCEx_PeriphCLKConfig+0x4b6>
 8002e28:	f7fd ffac 	bl	8000d84 <HAL_GetTick>
 8002e2c:	1bc0      	subs	r0, r0, r7
 8002e2e:	f5b0 7f7a 	cmp.w	r0, #1000	; 0x3e8
 8002e32:	d9e8      	bls.n	8002e06 <HAL_RCCEx_PeriphCLKConfig+0x3da>
 8002e34:	e089      	b.n	8002f4a <HAL_RCCEx_PeriphCLKConfig+0x51e>
 8002e36:	f7fd ffa5 	bl	8000d84 <HAL_GetTick>
 8002e3a:	1bc0      	subs	r0, r0, r7
 8002e3c:	f5b0 7f7a 	cmp.w	r0, #1000	; 0x3e8
 8002e40:	f200 8083 	bhi.w	8002f4a <HAL_RCCEx_PeriphCLKConfig+0x51e>
 8002e44:	f04f 6300 	mov.w	r3, #134217728	; 0x8000000
 8002e48:	fa93 f3a3 	rbit	r3, r3
 8002e4c:	f04f 6300 	mov.w	r3, #134217728	; 0x8000000
 8002e50:	682a      	ldr	r2, [r5, #0]
 8002e52:	fa93 f3a3 	rbit	r3, r3
 8002e56:	fab3 f383 	clz	r3, r3
 8002e5a:	f003 031f 	and.w	r3, r3, #31
 8002e5e:	fa22 f303 	lsr.w	r3, r2, r3
 8002e62:	07db      	lsls	r3, r3, #31
 8002e64:	d5e7      	bpl.n	8002e36 <HAL_RCCEx_PeriphCLKConfig+0x40a>
 8002e66:	692a      	ldr	r2, [r5, #16]
 8002e68:	6963      	ldr	r3, [r4, #20]
 8002e6a:	4313      	orrs	r3, r2
 8002e6c:	612b      	str	r3, [r5, #16]
 8002e6e:	6823      	ldr	r3, [r4, #0]
 8002e70:	041a      	lsls	r2, r3, #16
 8002e72:	d508      	bpl.n	8002e86 <HAL_RCCEx_PeriphCLKConfig+0x45a>
 8002e74:	4a38      	ldr	r2, [pc, #224]	; (8002f58 <HAL_RCCEx_PeriphCLKConfig+0x52c>)
 8002e76:	6ee1      	ldr	r1, [r4, #108]	; 0x6c
 8002e78:	f8d2 0088 	ldr.w	r0, [r2, #136]	; 0x88
 8002e7c:	f020 4080 	bic.w	r0, r0, #1073741824	; 0x40000000
 8002e80:	4301      	orrs	r1, r0
 8002e82:	f8c2 1088 	str.w	r1, [r2, #136]	; 0x88
 8002e86:	03db      	lsls	r3, r3, #15
 8002e88:	d561      	bpl.n	8002f4e <HAL_RCCEx_PeriphCLKConfig+0x522>
 8002e8a:	4b33      	ldr	r3, [pc, #204]	; (8002f58 <HAL_RCCEx_PeriphCLKConfig+0x52c>)
 8002e8c:	6f21      	ldr	r1, [r4, #112]	; 0x70
 8002e8e:	f8d3 2088 	ldr.w	r2, [r3, #136]	; 0x88
 8002e92:	f022 4200 	bic.w	r2, r2, #2147483648	; 0x80000000
 8002e96:	430a      	orrs	r2, r1
 8002e98:	f8c3 2088 	str.w	r2, [r3, #136]	; 0x88
 8002e9c:	e057      	b.n	8002f4e <HAL_RCCEx_PeriphCLKConfig+0x522>
 8002e9e:	f8d7 2090 	ldr.w	r2, [r7, #144]	; 0x90
 8002ea2:	6f63      	ldr	r3, [r4, #116]	; 0x74
 8002ea4:	f422 7240 	bic.w	r2, r2, #768	; 0x300
 8002ea8:	4313      	orrs	r3, r2
 8002eaa:	f8c7 3090 	str.w	r3, [r7, #144]	; 0x90
 8002eae:	462e      	mov	r6, r5
 8002eb0:	e693      	b.n	8002bda <HAL_RCCEx_PeriphCLKConfig+0x1ae>
 8002eb2:	692a      	ldr	r2, [r5, #16]
 8002eb4:	6863      	ldr	r3, [r4, #4]
 8002eb6:	f422 42fe 	bic.w	r2, r2, #32512	; 0x7f00
 8002eba:	ea42 2303 	orr.w	r3, r2, r3, lsl #8
 8002ebe:	612b      	str	r3, [r5, #16]
 8002ec0:	6923      	ldr	r3, [r4, #16]
 8002ec2:	692a      	ldr	r2, [r5, #16]
 8002ec4:	085b      	lsrs	r3, r3, #1
 8002ec6:	f022 62c0 	bic.w	r2, r2, #100663296	; 0x6000000
 8002eca:	3b01      	subs	r3, #1
 8002ecc:	ea42 6343 	orr.w	r3, r2, r3, lsl #25
 8002ed0:	612b      	str	r3, [r5, #16]
 8002ed2:	682b      	ldr	r3, [r5, #0]
 8002ed4:	f043 6380 	orr.w	r3, r3, #67108864	; 0x4000000
 8002ed8:	602b      	str	r3, [r5, #0]
 8002eda:	f7fd ff53 	bl	8000d84 <HAL_GetTick>
 8002ede:	4607      	mov	r7, r0
 8002ee0:	e7b0      	b.n	8002e44 <HAL_RCCEx_PeriphCLKConfig+0x418>
 8002ee2:	696a      	ldr	r2, [r5, #20]
 8002ee4:	69a3      	ldr	r3, [r4, #24]
 8002ee6:	f422 42fe 	bic.w	r2, r2, #32512	; 0x7f00
 8002eea:	ea42 2303 	orr.w	r3, r2, r3, lsl #8
 8002eee:	616b      	str	r3, [r5, #20]
 8002ef0:	6a23      	ldr	r3, [r4, #32]
 8002ef2:	696a      	ldr	r2, [r5, #20]
 8002ef4:	085b      	lsrs	r3, r3, #1
 8002ef6:	f022 62c0 	bic.w	r2, r2, #100663296	; 0x6000000
 8002efa:	3b01      	subs	r3, #1
 8002efc:	ea42 6343 	orr.w	r3, r2, r3, lsl #25
 8002f00:	616b      	str	r3, [r5, #20]
 8002f02:	682b      	ldr	r3, [r5, #0]
 8002f04:	f043 5380 	orr.w	r3, r3, #268435456	; 0x10000000
 8002f08:	602b      	str	r3, [r5, #0]
 8002f0a:	f7fd ff3b 	bl	8000d84 <HAL_GetTick>
 8002f0e:	4607      	mov	r7, r0
 8002f10:	f04f 5300 	mov.w	r3, #536870912	; 0x20000000
 8002f14:	fa93 f3a3 	rbit	r3, r3
 8002f18:	f04f 5300 	mov.w	r3, #536870912	; 0x20000000
 8002f1c:	682a      	ldr	r2, [r5, #0]
 8002f1e:	fa93 f3a3 	rbit	r3, r3
 8002f22:	fab3 f383 	clz	r3, r3
 8002f26:	f003 031f 	and.w	r3, r3, #31
 8002f2a:	fa22 f303 	lsr.w	r3, r2, r3
 8002f2e:	07d9      	lsls	r1, r3, #31
 8002f30:	d406      	bmi.n	8002f40 <HAL_RCCEx_PeriphCLKConfig+0x514>
 8002f32:	f7fd ff27 	bl	8000d84 <HAL_GetTick>
 8002f36:	1bc0      	subs	r0, r0, r7
 8002f38:	f5b0 7f7a 	cmp.w	r0, #1000	; 0x3e8
 8002f3c:	d9e8      	bls.n	8002f10 <HAL_RCCEx_PeriphCLKConfig+0x4e4>
 8002f3e:	e004      	b.n	8002f4a <HAL_RCCEx_PeriphCLKConfig+0x51e>
 8002f40:	696a      	ldr	r2, [r5, #20]
 8002f42:	6a63      	ldr	r3, [r4, #36]	; 0x24
 8002f44:	4313      	orrs	r3, r2
 8002f46:	616b      	str	r3, [r5, #20]
 8002f48:	e791      	b.n	8002e6e <HAL_RCCEx_PeriphCLKConfig+0x442>
 8002f4a:	2603      	movs	r6, #3
 8002f4c:	e78f      	b.n	8002e6e <HAL_RCCEx_PeriphCLKConfig+0x442>
 8002f4e:	4630      	mov	r0, r6
 8002f50:	b003      	add	sp, #12
 8002f52:	e8bd 83f0 	ldmia.w	sp!, {r4, r5, r6, r7, r8, r9, pc}
 8002f56:	bf00      	nop
 8002f58:	40021000 	.word	0x40021000

08002f5c <SPI_WaitFifoStateUntilTimeout>:
 8002f5c:	e92d 41f3 	stmdb	sp!, {r0, r1, r4, r5, r6, r7, r8, lr}
 8002f60:	4604      	mov	r4, r0
 8002f62:	460f      	mov	r7, r1
 8002f64:	4616      	mov	r6, r2
 8002f66:	461d      	mov	r5, r3
 8002f68:	f7fd ff0c 	bl	8000d84 <HAL_GetTick>
 8002f6c:	4680      	mov	r8, r0
 8002f6e:	6823      	ldr	r3, [r4, #0]
 8002f70:	689a      	ldr	r2, [r3, #8]
 8002f72:	403a      	ands	r2, r7
 8002f74:	42b2      	cmp	r2, r6
 8002f76:	d03d      	beq.n	8002ff4 <SPI_WaitFifoStateUntilTimeout+0x98>
 8002f78:	f5b7 6fc0 	cmp.w	r7, #1536	; 0x600
 8002f7c:	d106      	bne.n	8002f8c <SPI_WaitFifoStateUntilTimeout+0x30>
 8002f7e:	b92e      	cbnz	r6, 8002f8c <SPI_WaitFifoStateUntilTimeout+0x30>
 8002f80:	7b1a      	ldrb	r2, [r3, #12]
 8002f82:	b2d2      	uxtb	r2, r2
 8002f84:	f88d 2007 	strb.w	r2, [sp, #7]
 8002f88:	f89d 2007 	ldrb.w	r2, [sp, #7]
 8002f8c:	1c6a      	adds	r2, r5, #1
 8002f8e:	d0ef      	beq.n	8002f70 <SPI_WaitFifoStateUntilTimeout+0x14>
 8002f90:	b94d      	cbnz	r5, 8002fa6 <SPI_WaitFifoStateUntilTimeout+0x4a>
 8002f92:	6823      	ldr	r3, [r4, #0]
 8002f94:	685a      	ldr	r2, [r3, #4]
 8002f96:	f022 02e0 	bic.w	r2, r2, #224	; 0xe0
 8002f9a:	605a      	str	r2, [r3, #4]
 8002f9c:	6862      	ldr	r2, [r4, #4]
 8002f9e:	f5b2 7f82 	cmp.w	r2, #260	; 0x104
 8002fa2:	d112      	bne.n	8002fca <SPI_WaitFifoStateUntilTimeout+0x6e>
 8002fa4:	e006      	b.n	8002fb4 <SPI_WaitFifoStateUntilTimeout+0x58>
 8002fa6:	f7fd feed 	bl	8000d84 <HAL_GetTick>
 8002faa:	ebc8 0000 	rsb	r0, r8, r0
 8002fae:	42a8      	cmp	r0, r5
 8002fb0:	d3dd      	bcc.n	8002f6e <SPI_WaitFifoStateUntilTimeout+0x12>
 8002fb2:	e7ee      	b.n	8002f92 <SPI_WaitFifoStateUntilTimeout+0x36>
 8002fb4:	68a2      	ldr	r2, [r4, #8]
 8002fb6:	f5b2 4f00 	cmp.w	r2, #32768	; 0x8000
 8002fba:	d002      	beq.n	8002fc2 <SPI_WaitFifoStateUntilTimeout+0x66>
 8002fbc:	f5b2 6f80 	cmp.w	r2, #1024	; 0x400
 8002fc0:	d103      	bne.n	8002fca <SPI_WaitFifoStateUntilTimeout+0x6e>
 8002fc2:	681a      	ldr	r2, [r3, #0]
 8002fc4:	f022 0240 	bic.w	r2, r2, #64	; 0x40
 8002fc8:	601a      	str	r2, [r3, #0]
 8002fca:	6aa2      	ldr	r2, [r4, #40]	; 0x28
 8002fcc:	f5b2 5f00 	cmp.w	r2, #8192	; 0x2000
 8002fd0:	d108      	bne.n	8002fe4 <SPI_WaitFifoStateUntilTimeout+0x88>
 8002fd2:	6819      	ldr	r1, [r3, #0]
 8002fd4:	f64d 72ff 	movw	r2, #57343	; 0xdfff
 8002fd8:	400a      	ands	r2, r1
 8002fda:	601a      	str	r2, [r3, #0]
 8002fdc:	681a      	ldr	r2, [r3, #0]
 8002fde:	f442 5200 	orr.w	r2, r2, #8192	; 0x2000
 8002fe2:	601a      	str	r2, [r3, #0]
 8002fe4:	2301      	movs	r3, #1
 8002fe6:	f884 305d 	strb.w	r3, [r4, #93]	; 0x5d
 8002fea:	2300      	movs	r3, #0
 8002fec:	f884 305c 	strb.w	r3, [r4, #92]	; 0x5c
 8002ff0:	2003      	movs	r0, #3
 8002ff2:	e000      	b.n	8002ff6 <SPI_WaitFifoStateUntilTimeout+0x9a>
 8002ff4:	2000      	movs	r0, #0
 8002ff6:	b002      	add	sp, #8
 8002ff8:	e8bd 81f0 	ldmia.w	sp!, {r4, r5, r6, r7, r8, pc}

08002ffc <SPI_WaitFlagStateUntilTimeout>:
 8002ffc:	e92d 41f0 	stmdb	sp!, {r4, r5, r6, r7, r8, lr}
 8003000:	4604      	mov	r4, r0
 8003002:	460f      	mov	r7, r1
 8003004:	4616      	mov	r6, r2
 8003006:	461d      	mov	r5, r3
 8003008:	f7fd febc 	bl	8000d84 <HAL_GetTick>
 800300c:	4680      	mov	r8, r0
 800300e:	6822      	ldr	r2, [r4, #0]
 8003010:	6893      	ldr	r3, [r2, #8]
 8003012:	403b      	ands	r3, r7
 8003014:	42b3      	cmp	r3, r6
 8003016:	d034      	beq.n	8003082 <SPI_WaitFlagStateUntilTimeout+0x86>
 8003018:	1c6b      	adds	r3, r5, #1
 800301a:	d0f9      	beq.n	8003010 <SPI_WaitFlagStateUntilTimeout+0x14>
 800301c:	b94d      	cbnz	r5, 8003032 <SPI_WaitFlagStateUntilTimeout+0x36>
 800301e:	6823      	ldr	r3, [r4, #0]
 8003020:	685a      	ldr	r2, [r3, #4]
 8003022:	f022 02e0 	bic.w	r2, r2, #224	; 0xe0
 8003026:	605a      	str	r2, [r3, #4]
 8003028:	6862      	ldr	r2, [r4, #4]
 800302a:	f5b2 7f82 	cmp.w	r2, #260	; 0x104
 800302e:	d112      	bne.n	8003056 <SPI_WaitFlagStateUntilTimeout+0x5a>
 8003030:	e006      	b.n	8003040 <SPI_WaitFlagStateUntilTimeout+0x44>
 8003032:	f7fd fea7 	bl	8000d84 <HAL_GetTick>
 8003036:	ebc8 0000 	rsb	r0, r8, r0
 800303a:	42a8      	cmp	r0, r5
 800303c:	d3e7      	bcc.n	800300e <SPI_WaitFlagStateUntilTimeout+0x12>
 800303e:	e7ee      	b.n	800301e <SPI_WaitFlagStateUntilTimeout+0x22>
 8003040:	68a2      	ldr	r2, [r4, #8]
 8003042:	f5b2 4f00 	cmp.w	r2, #32768	; 0x8000
 8003046:	d002      	beq.n	800304e <SPI_WaitFlagStateUntilTimeout+0x52>
 8003048:	f5b2 6f80 	cmp.w	r2, #1024	; 0x400
 800304c:	d103      	bne.n	8003056 <SPI_WaitFlagStateUntilTimeout+0x5a>
 800304e:	681a      	ldr	r2, [r3, #0]
 8003050:	f022 0240 	bic.w	r2, r2, #64	; 0x40
 8003054:	601a      	str	r2, [r3, #0]
 8003056:	6aa2      	ldr	r2, [r4, #40]	; 0x28
 8003058:	f5b2 5f00 	cmp.w	r2, #8192	; 0x2000
 800305c:	d108      	bne.n	8003070 <SPI_WaitFlagStateUntilTimeout+0x74>
 800305e:	6819      	ldr	r1, [r3, #0]
 8003060:	f64d 72ff 	movw	r2, #57343	; 0xdfff
 8003064:	400a      	ands	r2, r1
 8003066:	601a      	str	r2, [r3, #0]
 8003068:	681a      	ldr	r2, [r3, #0]
 800306a:	f442 5200 	orr.w	r2, r2, #8192	; 0x2000
 800306e:	601a      	str	r2, [r3, #0]
 8003070:	2301      	movs	r3, #1
 8003072:	f884 305d 	strb.w	r3, [r4, #93]	; 0x5d
 8003076:	2300      	movs	r3, #0
 8003078:	f884 305c 	strb.w	r3, [r4, #92]	; 0x5c
 800307c:	2003      	movs	r0, #3
 800307e:	e8bd 81f0 	ldmia.w	sp!, {r4, r5, r6, r7, r8, pc}
 8003082:	2000      	movs	r0, #0
 8003084:	e8bd 81f0 	ldmia.w	sp!, {r4, r5, r6, r7, r8, pc}

08003088 <SPI_EndRxTxTransaction>:
 8003088:	b538      	push	{r3, r4, r5, lr}
 800308a:	460d      	mov	r5, r1
 800308c:	2200      	movs	r2, #0
 800308e:	f44f 51c0 	mov.w	r1, #6144	; 0x1800
 8003092:	462b      	mov	r3, r5
 8003094:	4604      	mov	r4, r0
 8003096:	f7ff ff61 	bl	8002f5c <SPI_WaitFifoStateUntilTimeout>
 800309a:	4602      	mov	r2, r0
 800309c:	b928      	cbnz	r0, 80030aa <SPI_EndRxTxTransaction+0x22>
 800309e:	4620      	mov	r0, r4
 80030a0:	2180      	movs	r1, #128	; 0x80
 80030a2:	462b      	mov	r3, r5
 80030a4:	f7ff ffaa 	bl	8002ffc <SPI_WaitFlagStateUntilTimeout>
 80030a8:	b120      	cbz	r0, 80030b4 <SPI_EndRxTxTransaction+0x2c>
 80030aa:	6e23      	ldr	r3, [r4, #96]	; 0x60
 80030ac:	f043 0320 	orr.w	r3, r3, #32
 80030b0:	6623      	str	r3, [r4, #96]	; 0x60
 80030b2:	2003      	movs	r0, #3
 80030b4:	bd38      	pop	{r3, r4, r5, pc}

080030b6 <HAL_SPI_MspInit>:
 80030b6:	4770      	bx	lr

080030b8 <HAL_SPI_Init>:
 80030b8:	b570      	push	{r4, r5, r6, lr}
 80030ba:	4604      	mov	r4, r0
 80030bc:	2800      	cmp	r0, #0
 80030be:	d04f      	beq.n	8003160 <HAL_SPI_Init+0xa8>
 80030c0:	f890 305d 	ldrb.w	r3, [r0, #93]	; 0x5d
 80030c4:	b91b      	cbnz	r3, 80030ce <HAL_SPI_Init+0x16>
 80030c6:	f880 305c 	strb.w	r3, [r0, #92]	; 0x5c
 80030ca:	f7ff fff4 	bl	80030b6 <HAL_SPI_MspInit>
 80030ce:	2302      	movs	r3, #2
 80030d0:	f884 305d 	strb.w	r3, [r4, #93]	; 0x5d
 80030d4:	6823      	ldr	r3, [r4, #0]
 80030d6:	68e1      	ldr	r1, [r4, #12]
 80030d8:	681a      	ldr	r2, [r3, #0]
 80030da:	f5b1 6fe0 	cmp.w	r1, #1792	; 0x700
 80030de:	f022 0240 	bic.w	r2, r2, #64	; 0x40
 80030e2:	601a      	str	r2, [r3, #0]
 80030e4:	f04f 0000 	mov.w	r0, #0
 80030e8:	d903      	bls.n	80030f2 <HAL_SPI_Init+0x3a>
 80030ea:	4602      	mov	r2, r0
 80030ec:	f5b1 6f70 	cmp.w	r1, #3840	; 0xf00
 80030f0:	e001      	b.n	80030f6 <HAL_SPI_Init+0x3e>
 80030f2:	f44f 5280 	mov.w	r2, #4096	; 0x1000
 80030f6:	bf18      	it	ne
 80030f8:	62a0      	strne	r0, [r4, #40]	; 0x28
 80030fa:	6b20      	ldr	r0, [r4, #48]	; 0x30
 80030fc:	b928      	cbnz	r0, 800310a <HAL_SPI_Init+0x52>
 80030fe:	f5b1 6fe0 	cmp.w	r1, #1792	; 0x700
 8003102:	bf8c      	ite	hi
 8003104:	2002      	movhi	r0, #2
 8003106:	2001      	movls	r0, #1
 8003108:	6320      	str	r0, [r4, #48]	; 0x30
 800310a:	6865      	ldr	r5, [r4, #4]
 800310c:	68a6      	ldr	r6, [r4, #8]
 800310e:	69a0      	ldr	r0, [r4, #24]
 8003110:	432e      	orrs	r6, r5
 8003112:	6925      	ldr	r5, [r4, #16]
 8003114:	432e      	orrs	r6, r5
 8003116:	6965      	ldr	r5, [r4, #20]
 8003118:	432e      	orrs	r6, r5
 800311a:	69e5      	ldr	r5, [r4, #28]
 800311c:	432e      	orrs	r6, r5
 800311e:	6a25      	ldr	r5, [r4, #32]
 8003120:	432e      	orrs	r6, r5
 8003122:	6aa5      	ldr	r5, [r4, #40]	; 0x28
 8003124:	4335      	orrs	r5, r6
 8003126:	f400 7600 	and.w	r6, r0, #512	; 0x200
 800312a:	4335      	orrs	r5, r6
 800312c:	601d      	str	r5, [r3, #0]
 800312e:	6b25      	ldr	r5, [r4, #48]	; 0x30
 8003130:	2d02      	cmp	r5, #2
 8003132:	d103      	bne.n	800313c <HAL_SPI_Init+0x84>
 8003134:	681d      	ldr	r5, [r3, #0]
 8003136:	f445 6500 	orr.w	r5, r5, #2048	; 0x800
 800313a:	601d      	str	r5, [r3, #0]
 800313c:	6a65      	ldr	r5, [r4, #36]	; 0x24
 800313e:	4329      	orrs	r1, r5
 8003140:	6b65      	ldr	r5, [r4, #52]	; 0x34
 8003142:	0c00      	lsrs	r0, r0, #16
 8003144:	430d      	orrs	r5, r1
 8003146:	f000 0004 	and.w	r0, r0, #4
 800314a:	4305      	orrs	r5, r0
 800314c:	432a      	orrs	r2, r5
 800314e:	605a      	str	r2, [r3, #4]
 8003150:	6ae2      	ldr	r2, [r4, #44]	; 0x2c
 8003152:	611a      	str	r2, [r3, #16]
 8003154:	2000      	movs	r0, #0
 8003156:	2301      	movs	r3, #1
 8003158:	6620      	str	r0, [r4, #96]	; 0x60
 800315a:	f884 305d 	strb.w	r3, [r4, #93]	; 0x5d
 800315e:	bd70      	pop	{r4, r5, r6, pc}
 8003160:	2001      	movs	r0, #1
 8003162:	bd70      	pop	{r4, r5, r6, pc}

08003164 <HAL_SPI_TransmitReceive>:
 8003164:	e92d 47f3 	stmdb	sp!, {r0, r1, r4, r5, r6, r7, r8, r9, sl, lr}
 8003168:	4604      	mov	r4, r0
 800316a:	461f      	mov	r7, r3
 800316c:	4689      	mov	r9, r1
 800316e:	4692      	mov	sl, r2
 8003170:	9e0a      	ldr	r6, [sp, #40]	; 0x28
 8003172:	f7fd fe07 	bl	8000d84 <HAL_GetTick>
 8003176:	f894 305c 	ldrb.w	r3, [r4, #92]	; 0x5c
 800317a:	2b01      	cmp	r3, #1
 800317c:	4680      	mov	r8, r0
 800317e:	f000 8129 	beq.w	80033d4 <HAL_SPI_TransmitReceive+0x270>
 8003182:	f894 505d 	ldrb.w	r5, [r4, #93]	; 0x5d
 8003186:	2301      	movs	r3, #1
 8003188:	429d      	cmp	r5, r3
 800318a:	f884 305c 	strb.w	r3, [r4, #92]	; 0x5c
 800318e:	f040 8118 	bne.w	80033c2 <HAL_SPI_TransmitReceive+0x25e>
 8003192:	f1b9 0f00 	cmp.w	r9, #0
 8003196:	f000 8115 	beq.w	80033c4 <HAL_SPI_TransmitReceive+0x260>
 800319a:	f1ba 0f00 	cmp.w	sl, #0
 800319e:	f000 8111 	beq.w	80033c4 <HAL_SPI_TransmitReceive+0x260>
 80031a2:	2f00      	cmp	r7, #0
 80031a4:	f000 810e 	beq.w	80033c4 <HAL_SPI_TransmitReceive+0x260>
 80031a8:	2305      	movs	r3, #5
 80031aa:	f884 305d 	strb.w	r3, [r4, #93]	; 0x5d
 80031ae:	2300      	movs	r3, #0
 80031b0:	6623      	str	r3, [r4, #96]	; 0x60
 80031b2:	6aa3      	ldr	r3, [r4, #40]	; 0x28
 80031b4:	f8c4 a040 	str.w	sl, [r4, #64]	; 0x40
 80031b8:	f5b3 5f00 	cmp.w	r3, #8192	; 0x2000
 80031bc:	f8a4 7046 	strh.w	r7, [r4, #70]	; 0x46
 80031c0:	f8a4 7044 	strh.w	r7, [r4, #68]	; 0x44
 80031c4:	f8c4 9038 	str.w	r9, [r4, #56]	; 0x38
 80031c8:	87e7      	strh	r7, [r4, #62]	; 0x3e
 80031ca:	87a7      	strh	r7, [r4, #60]	; 0x3c
 80031cc:	6822      	ldr	r2, [r4, #0]
 80031ce:	d108      	bne.n	80031e2 <HAL_SPI_TransmitReceive+0x7e>
 80031d0:	6811      	ldr	r1, [r2, #0]
 80031d2:	f64d 73ff 	movw	r3, #57343	; 0xdfff
 80031d6:	400b      	ands	r3, r1
 80031d8:	6013      	str	r3, [r2, #0]
 80031da:	6813      	ldr	r3, [r2, #0]
 80031dc:	f443 5300 	orr.w	r3, r3, #8192	; 0x2000
 80031e0:	6013      	str	r3, [r2, #0]
 80031e2:	68e3      	ldr	r3, [r4, #12]
 80031e4:	6851      	ldr	r1, [r2, #4]
 80031e6:	f5b3 6fe0 	cmp.w	r3, #1792	; 0x700
 80031ea:	d801      	bhi.n	80031f0 <HAL_SPI_TransmitReceive+0x8c>
 80031ec:	2f01      	cmp	r7, #1
 80031ee:	d902      	bls.n	80031f6 <HAL_SPI_TransmitReceive+0x92>
 80031f0:	f421 5180 	bic.w	r1, r1, #4096	; 0x1000
 80031f4:	e001      	b.n	80031fa <HAL_SPI_TransmitReceive+0x96>
 80031f6:	f441 5180 	orr.w	r1, r1, #4096	; 0x1000
 80031fa:	6051      	str	r1, [r2, #4]
 80031fc:	6811      	ldr	r1, [r2, #0]
 80031fe:	064d      	lsls	r5, r1, #25
 8003200:	d403      	bmi.n	800320a <HAL_SPI_TransmitReceive+0xa6>
 8003202:	6811      	ldr	r1, [r2, #0]
 8003204:	f041 0140 	orr.w	r1, r1, #64	; 0x40
 8003208:	6011      	str	r1, [r2, #0]
 800320a:	f5b3 6fe0 	cmp.w	r3, #1792	; 0x700
 800320e:	d943      	bls.n	8003298 <HAL_SPI_TransmitReceive+0x134>
 8003210:	8fe1      	ldrh	r1, [r4, #62]	; 0x3e
 8003212:	f8b4 2046 	ldrh.w	r2, [r4, #70]	; 0x46
 8003216:	2900      	cmp	r1, #0
 8003218:	d02d      	beq.n	8003276 <HAL_SPI_TransmitReceive+0x112>
 800321a:	6823      	ldr	r3, [r4, #0]
 800321c:	6898      	ldr	r0, [r3, #8]
 800321e:	0780      	lsls	r0, r0, #30
 8003220:	d511      	bpl.n	8003246 <HAL_SPI_TransmitReceive+0xe2>
 8003222:	6ba0      	ldr	r0, [r4, #56]	; 0x38
 8003224:	8800      	ldrh	r0, [r0, #0]
 8003226:	60d8      	str	r0, [r3, #12]
 8003228:	6ba0      	ldr	r0, [r4, #56]	; 0x38
 800322a:	3901      	subs	r1, #1
 800322c:	3002      	adds	r0, #2
 800322e:	b289      	uxth	r1, r1
 8003230:	63a0      	str	r0, [r4, #56]	; 0x38
 8003232:	87e1      	strh	r1, [r4, #62]	; 0x3e
 8003234:	b939      	cbnz	r1, 8003246 <HAL_SPI_TransmitReceive+0xe2>
 8003236:	6aa1      	ldr	r1, [r4, #40]	; 0x28
 8003238:	f5b1 5f00 	cmp.w	r1, #8192	; 0x2000
 800323c:	d103      	bne.n	8003246 <HAL_SPI_TransmitReceive+0xe2>
 800323e:	6819      	ldr	r1, [r3, #0]
 8003240:	f441 5180 	orr.w	r1, r1, #4096	; 0x1000
 8003244:	6019      	str	r1, [r3, #0]
 8003246:	b16a      	cbz	r2, 8003264 <HAL_SPI_TransmitReceive+0x100>
 8003248:	6823      	ldr	r3, [r4, #0]
 800324a:	689a      	ldr	r2, [r3, #8]
 800324c:	07d7      	lsls	r7, r2, #31
 800324e:	d509      	bpl.n	8003264 <HAL_SPI_TransmitReceive+0x100>
 8003250:	68da      	ldr	r2, [r3, #12]
 8003252:	6c23      	ldr	r3, [r4, #64]	; 0x40
 8003254:	f823 2b02 	strh.w	r2, [r3], #2
 8003258:	6423      	str	r3, [r4, #64]	; 0x40
 800325a:	f8b4 3046 	ldrh.w	r3, [r4, #70]	; 0x46
 800325e:	3b01      	subs	r3, #1
 8003260:	f8a4 3046 	strh.w	r3, [r4, #70]	; 0x46
 8003264:	1c75      	adds	r5, r6, #1
 8003266:	d0d3      	beq.n	8003210 <HAL_SPI_TransmitReceive+0xac>
 8003268:	f7fd fd8c 	bl	8000d84 <HAL_GetTick>
 800326c:	ebc8 0000 	rsb	r0, r8, r0
 8003270:	42b0      	cmp	r0, r6
 8003272:	d3cd      	bcc.n	8003210 <HAL_SPI_TransmitReceive+0xac>
 8003274:	e083      	b.n	800337e <HAL_SPI_TransmitReceive+0x21a>
 8003276:	2a00      	cmp	r2, #0
 8003278:	d1e5      	bne.n	8003246 <HAL_SPI_TransmitReceive+0xe2>
 800327a:	6aa3      	ldr	r3, [r4, #40]	; 0x28
 800327c:	f5b3 5f00 	cmp.w	r3, #8192	; 0x2000
 8003280:	f040 8086 	bne.w	8003390 <HAL_SPI_TransmitReceive+0x22c>
 8003284:	e058      	b.n	8003338 <HAL_SPI_TransmitReceive+0x1d4>
 8003286:	6822      	ldr	r2, [r4, #0]
 8003288:	6891      	ldr	r1, [r2, #8]
 800328a:	0788      	lsls	r0, r1, #30
 800328c:	d408      	bmi.n	80032a0 <HAL_SPI_TransmitReceive+0x13c>
 800328e:	f8b4 2046 	ldrh.w	r2, [r4, #70]	; 0x46
 8003292:	bb1a      	cbnz	r2, 80032dc <HAL_SPI_TransmitReceive+0x178>
 8003294:	1c73      	adds	r3, r6, #1
 8003296:	d143      	bne.n	8003320 <HAL_SPI_TransmitReceive+0x1bc>
 8003298:	8fe3      	ldrh	r3, [r4, #62]	; 0x3e
 800329a:	2b00      	cmp	r3, #0
 800329c:	d1f3      	bne.n	8003286 <HAL_SPI_TransmitReceive+0x122>
 800329e:	e046      	b.n	800332e <HAL_SPI_TransmitReceive+0x1ca>
 80032a0:	2b01      	cmp	r3, #1
 80032a2:	6ba1      	ldr	r1, [r4, #56]	; 0x38
 80032a4:	d906      	bls.n	80032b4 <HAL_SPI_TransmitReceive+0x150>
 80032a6:	8809      	ldrh	r1, [r1, #0]
 80032a8:	60d1      	str	r1, [r2, #12]
 80032aa:	6ba2      	ldr	r2, [r4, #56]	; 0x38
 80032ac:	3202      	adds	r2, #2
 80032ae:	63a2      	str	r2, [r4, #56]	; 0x38
 80032b0:	3b02      	subs	r3, #2
 80032b2:	e005      	b.n	80032c0 <HAL_SPI_TransmitReceive+0x15c>
 80032b4:	1c4b      	adds	r3, r1, #1
 80032b6:	63a3      	str	r3, [r4, #56]	; 0x38
 80032b8:	780b      	ldrb	r3, [r1, #0]
 80032ba:	7313      	strb	r3, [r2, #12]
 80032bc:	8fe3      	ldrh	r3, [r4, #62]	; 0x3e
 80032be:	3b01      	subs	r3, #1
 80032c0:	87e3      	strh	r3, [r4, #62]	; 0x3e
 80032c2:	8fe3      	ldrh	r3, [r4, #62]	; 0x3e
 80032c4:	2b00      	cmp	r3, #0
 80032c6:	d1e2      	bne.n	800328e <HAL_SPI_TransmitReceive+0x12a>
 80032c8:	6aa3      	ldr	r3, [r4, #40]	; 0x28
 80032ca:	f5b3 5f00 	cmp.w	r3, #8192	; 0x2000
 80032ce:	d1de      	bne.n	800328e <HAL_SPI_TransmitReceive+0x12a>
 80032d0:	6823      	ldr	r3, [r4, #0]
 80032d2:	681a      	ldr	r2, [r3, #0]
 80032d4:	f442 5280 	orr.w	r2, r2, #4096	; 0x1000
 80032d8:	601a      	str	r2, [r3, #0]
 80032da:	e7d8      	b.n	800328e <HAL_SPI_TransmitReceive+0x12a>
 80032dc:	6823      	ldr	r3, [r4, #0]
 80032de:	6899      	ldr	r1, [r3, #8]
 80032e0:	07c9      	lsls	r1, r1, #31
 80032e2:	d5d7      	bpl.n	8003294 <HAL_SPI_TransmitReceive+0x130>
 80032e4:	2a01      	cmp	r2, #1
 80032e6:	6c22      	ldr	r2, [r4, #64]	; 0x40
 80032e8:	d910      	bls.n	800330c <HAL_SPI_TransmitReceive+0x1a8>
 80032ea:	68d9      	ldr	r1, [r3, #12]
 80032ec:	f822 1b02 	strh.w	r1, [r2], #2
 80032f0:	6422      	str	r2, [r4, #64]	; 0x40
 80032f2:	f8b4 2046 	ldrh.w	r2, [r4, #70]	; 0x46
 80032f6:	3a02      	subs	r2, #2
 80032f8:	b292      	uxth	r2, r2
 80032fa:	2a01      	cmp	r2, #1
 80032fc:	f8a4 2046 	strh.w	r2, [r4, #70]	; 0x46
 8003300:	d8c8      	bhi.n	8003294 <HAL_SPI_TransmitReceive+0x130>
 8003302:	685a      	ldr	r2, [r3, #4]
 8003304:	f442 5280 	orr.w	r2, r2, #4096	; 0x1000
 8003308:	605a      	str	r2, [r3, #4]
 800330a:	e7c3      	b.n	8003294 <HAL_SPI_TransmitReceive+0x130>
 800330c:	1c51      	adds	r1, r2, #1
 800330e:	6421      	str	r1, [r4, #64]	; 0x40
 8003310:	7b1b      	ldrb	r3, [r3, #12]
 8003312:	7013      	strb	r3, [r2, #0]
 8003314:	f8b4 3046 	ldrh.w	r3, [r4, #70]	; 0x46
 8003318:	3b01      	subs	r3, #1
 800331a:	f8a4 3046 	strh.w	r3, [r4, #70]	; 0x46
 800331e:	e7b9      	b.n	8003294 <HAL_SPI_TransmitReceive+0x130>
 8003320:	f7fd fd30 	bl	8000d84 <HAL_GetTick>
 8003324:	ebc8 0000 	rsb	r0, r8, r0
 8003328:	42b0      	cmp	r0, r6
 800332a:	d3b5      	bcc.n	8003298 <HAL_SPI_TransmitReceive+0x134>
 800332c:	e027      	b.n	800337e <HAL_SPI_TransmitReceive+0x21a>
 800332e:	f8b4 3046 	ldrh.w	r3, [r4, #70]	; 0x46
 8003332:	2b00      	cmp	r3, #0
 8003334:	d1ab      	bne.n	800328e <HAL_SPI_TransmitReceive+0x12a>
 8003336:	e7a0      	b.n	800327a <HAL_SPI_TransmitReceive+0x116>
 8003338:	2101      	movs	r1, #1
 800333a:	4620      	mov	r0, r4
 800333c:	460a      	mov	r2, r1
 800333e:	4633      	mov	r3, r6
 8003340:	f7ff fe5c 	bl	8002ffc <SPI_WaitFlagStateUntilTimeout>
 8003344:	b9b8      	cbnz	r0, 8003376 <HAL_SPI_TransmitReceive+0x212>
 8003346:	68e3      	ldr	r3, [r4, #12]
 8003348:	f5b3 6f70 	cmp.w	r3, #3840	; 0xf00
 800334c:	6823      	ldr	r3, [r4, #0]
 800334e:	d102      	bne.n	8003356 <HAL_SPI_TransmitReceive+0x1f2>
 8003350:	68db      	ldr	r3, [r3, #12]
 8003352:	b29b      	uxth	r3, r3
 8003354:	e018      	b.n	8003388 <HAL_SPI_TransmitReceive+0x224>
 8003356:	7b1b      	ldrb	r3, [r3, #12]
 8003358:	b2db      	uxtb	r3, r3
 800335a:	f8ad 3006 	strh.w	r3, [sp, #6]
 800335e:	f8bd 3006 	ldrh.w	r3, [sp, #6]
 8003362:	6b23      	ldr	r3, [r4, #48]	; 0x30
 8003364:	2b02      	cmp	r3, #2
 8003366:	d113      	bne.n	8003390 <HAL_SPI_TransmitReceive+0x22c>
 8003368:	2101      	movs	r1, #1
 800336a:	4620      	mov	r0, r4
 800336c:	460a      	mov	r2, r1
 800336e:	4633      	mov	r3, r6
 8003370:	f7ff fe44 	bl	8002ffc <SPI_WaitFlagStateUntilTimeout>
 8003374:	b128      	cbz	r0, 8003382 <HAL_SPI_TransmitReceive+0x21e>
 8003376:	6e23      	ldr	r3, [r4, #96]	; 0x60
 8003378:	f043 0302 	orr.w	r3, r3, #2
 800337c:	6623      	str	r3, [r4, #96]	; 0x60
 800337e:	2503      	movs	r5, #3
 8003380:	e020      	b.n	80033c4 <HAL_SPI_TransmitReceive+0x260>
 8003382:	6823      	ldr	r3, [r4, #0]
 8003384:	7b1b      	ldrb	r3, [r3, #12]
 8003386:	b2db      	uxtb	r3, r3
 8003388:	f8ad 3006 	strh.w	r3, [sp, #6]
 800338c:	f8bd 3006 	ldrh.w	r3, [sp, #6]
 8003390:	6823      	ldr	r3, [r4, #0]
 8003392:	689d      	ldr	r5, [r3, #8]
 8003394:	f015 0510 	ands.w	r5, r5, #16
 8003398:	d007      	beq.n	80033aa <HAL_SPI_TransmitReceive+0x246>
 800339a:	6e22      	ldr	r2, [r4, #96]	; 0x60
 800339c:	f042 0202 	orr.w	r2, r2, #2
 80033a0:	6622      	str	r2, [r4, #96]	; 0x60
 80033a2:	f64f 72ef 	movw	r2, #65519	; 0xffef
 80033a6:	609a      	str	r2, [r3, #8]
 80033a8:	2501      	movs	r5, #1
 80033aa:	4620      	mov	r0, r4
 80033ac:	4631      	mov	r1, r6
 80033ae:	f7ff fe6b 	bl	8003088 <SPI_EndRxTxTransaction>
 80033b2:	b108      	cbz	r0, 80033b8 <HAL_SPI_TransmitReceive+0x254>
 80033b4:	2320      	movs	r3, #32
 80033b6:	6623      	str	r3, [r4, #96]	; 0x60
 80033b8:	6e23      	ldr	r3, [r4, #96]	; 0x60
 80033ba:	2b00      	cmp	r3, #0
 80033bc:	bf18      	it	ne
 80033be:	2501      	movne	r5, #1
 80033c0:	e000      	b.n	80033c4 <HAL_SPI_TransmitReceive+0x260>
 80033c2:	2502      	movs	r5, #2
 80033c4:	2301      	movs	r3, #1
 80033c6:	f884 305d 	strb.w	r3, [r4, #93]	; 0x5d
 80033ca:	2300      	movs	r3, #0
 80033cc:	f884 305c 	strb.w	r3, [r4, #92]	; 0x5c
 80033d0:	4628      	mov	r0, r5
 80033d2:	e000      	b.n	80033d6 <HAL_SPI_TransmitReceive+0x272>
 80033d4:	2002      	movs	r0, #2
 80033d6:	b002      	add	sp, #8
 80033d8:	e8bd 87f0 	ldmia.w	sp!, {r4, r5, r6, r7, r8, r9, sl, pc}

080033dc <HAL_TIM_Base_MspInit>:
 80033dc:	4770      	bx	lr

080033de <HAL_TIM_Base_Start>:
 80033de:	2302      	movs	r3, #2
 80033e0:	f880 3039 	strb.w	r3, [r0, #57]	; 0x39
 80033e4:	6803      	ldr	r3, [r0, #0]
 80033e6:	681a      	ldr	r2, [r3, #0]
 80033e8:	f042 0201 	orr.w	r2, r2, #1
 80033ec:	601a      	str	r2, [r3, #0]
 80033ee:	2301      	movs	r3, #1
 80033f0:	f880 3039 	strb.w	r3, [r0, #57]	; 0x39
 80033f4:	2000      	movs	r0, #0
 80033f6:	4770      	bx	lr

080033f8 <TIM_Base_SetConfig>:
 80033f8:	4a2e      	ldr	r2, [pc, #184]	; (80034b4 <TIM_Base_SetConfig+0xbc>)
 80033fa:	6803      	ldr	r3, [r0, #0]
 80033fc:	4290      	cmp	r0, r2
 80033fe:	d012      	beq.n	8003426 <TIM_Base_SetConfig+0x2e>
 8003400:	f1b0 4f80 	cmp.w	r0, #1073741824	; 0x40000000
 8003404:	d00f      	beq.n	8003426 <TIM_Base_SetConfig+0x2e>
 8003406:	f5a2 3294 	sub.w	r2, r2, #75776	; 0x12800
 800340a:	4290      	cmp	r0, r2
 800340c:	d00b      	beq.n	8003426 <TIM_Base_SetConfig+0x2e>
 800340e:	f502 6280 	add.w	r2, r2, #1024	; 0x400
 8003412:	4290      	cmp	r0, r2
 8003414:	d007      	beq.n	8003426 <TIM_Base_SetConfig+0x2e>
 8003416:	f502 6280 	add.w	r2, r2, #1024	; 0x400
 800341a:	4290      	cmp	r0, r2
 800341c:	d003      	beq.n	8003426 <TIM_Base_SetConfig+0x2e>
 800341e:	f502 3294 	add.w	r2, r2, #75776	; 0x12800
 8003422:	4290      	cmp	r0, r2
 8003424:	d119      	bne.n	800345a <TIM_Base_SetConfig+0x62>
 8003426:	684a      	ldr	r2, [r1, #4]
 8003428:	f023 0370 	bic.w	r3, r3, #112	; 0x70
 800342c:	4313      	orrs	r3, r2
 800342e:	4a21      	ldr	r2, [pc, #132]	; (80034b4 <TIM_Base_SetConfig+0xbc>)
 8003430:	4290      	cmp	r0, r2
 8003432:	d01d      	beq.n	8003470 <TIM_Base_SetConfig+0x78>
 8003434:	f1b0 4f80 	cmp.w	r0, #1073741824	; 0x40000000
 8003438:	d01a      	beq.n	8003470 <TIM_Base_SetConfig+0x78>
 800343a:	f5a2 3294 	sub.w	r2, r2, #75776	; 0x12800
 800343e:	4290      	cmp	r0, r2
 8003440:	d016      	beq.n	8003470 <TIM_Base_SetConfig+0x78>
 8003442:	f502 6280 	add.w	r2, r2, #1024	; 0x400
 8003446:	4290      	cmp	r0, r2
 8003448:	d012      	beq.n	8003470 <TIM_Base_SetConfig+0x78>
 800344a:	f502 6280 	add.w	r2, r2, #1024	; 0x400
 800344e:	4290      	cmp	r0, r2
 8003450:	d00e      	beq.n	8003470 <TIM_Base_SetConfig+0x78>
 8003452:	f502 3294 	add.w	r2, r2, #75776	; 0x12800
 8003456:	4290      	cmp	r0, r2
 8003458:	d00a      	beq.n	8003470 <TIM_Base_SetConfig+0x78>
 800345a:	4a17      	ldr	r2, [pc, #92]	; (80034b8 <TIM_Base_SetConfig+0xc0>)
 800345c:	4290      	cmp	r0, r2
 800345e:	d007      	beq.n	8003470 <TIM_Base_SetConfig+0x78>
 8003460:	f502 6280 	add.w	r2, r2, #1024	; 0x400
 8003464:	4290      	cmp	r0, r2
 8003466:	d003      	beq.n	8003470 <TIM_Base_SetConfig+0x78>
 8003468:	f502 6280 	add.w	r2, r2, #1024	; 0x400
 800346c:	4290      	cmp	r0, r2
 800346e:	d103      	bne.n	8003478 <TIM_Base_SetConfig+0x80>
 8003470:	68ca      	ldr	r2, [r1, #12]
 8003472:	f423 7340 	bic.w	r3, r3, #768	; 0x300
 8003476:	4313      	orrs	r3, r2
 8003478:	6003      	str	r3, [r0, #0]
 800347a:	688b      	ldr	r3, [r1, #8]
 800347c:	62c3      	str	r3, [r0, #44]	; 0x2c
 800347e:	680b      	ldr	r3, [r1, #0]
 8003480:	6283      	str	r3, [r0, #40]	; 0x28
 8003482:	4b0c      	ldr	r3, [pc, #48]	; (80034b4 <TIM_Base_SetConfig+0xbc>)
 8003484:	4298      	cmp	r0, r3
 8003486:	d00f      	beq.n	80034a8 <TIM_Base_SetConfig+0xb0>
 8003488:	f503 6300 	add.w	r3, r3, #2048	; 0x800
 800348c:	4298      	cmp	r0, r3
 800348e:	d00b      	beq.n	80034a8 <TIM_Base_SetConfig+0xb0>
 8003490:	f503 6340 	add.w	r3, r3, #3072	; 0xc00
 8003494:	4298      	cmp	r0, r3
 8003496:	d007      	beq.n	80034a8 <TIM_Base_SetConfig+0xb0>
 8003498:	f503 6380 	add.w	r3, r3, #1024	; 0x400
 800349c:	4298      	cmp	r0, r3
 800349e:	d003      	beq.n	80034a8 <TIM_Base_SetConfig+0xb0>
 80034a0:	f503 6380 	add.w	r3, r3, #1024	; 0x400
 80034a4:	4298      	cmp	r0, r3
 80034a6:	d101      	bne.n	80034ac <TIM_Base_SetConfig+0xb4>
 80034a8:	690b      	ldr	r3, [r1, #16]
 80034aa:	6303      	str	r3, [r0, #48]	; 0x30
 80034ac:	2301      	movs	r3, #1
 80034ae:	6143      	str	r3, [r0, #20]
 80034b0:	4770      	bx	lr
 80034b2:	bf00      	nop
 80034b4:	40012c00 	.word	0x40012c00
 80034b8:	40014000 	.word	0x40014000

080034bc <HAL_TIM_Base_Init>:
 80034bc:	b510      	push	{r4, lr}
 80034be:	4604      	mov	r4, r0
 80034c0:	b1a0      	cbz	r0, 80034ec <HAL_TIM_Base_Init+0x30>
 80034c2:	f890 3039 	ldrb.w	r3, [r0, #57]	; 0x39
 80034c6:	f003 02ff 	and.w	r2, r3, #255	; 0xff
 80034ca:	b91b      	cbnz	r3, 80034d4 <HAL_TIM_Base_Init+0x18>
 80034cc:	f880 2038 	strb.w	r2, [r0, #56]	; 0x38
 80034d0:	f7ff ff84 	bl	80033dc <HAL_TIM_Base_MspInit>
 80034d4:	2302      	movs	r3, #2
 80034d6:	f884 3039 	strb.w	r3, [r4, #57]	; 0x39
 80034da:	6820      	ldr	r0, [r4, #0]
 80034dc:	1d21      	adds	r1, r4, #4
 80034de:	f7ff ff8b 	bl	80033f8 <TIM_Base_SetConfig>
 80034e2:	2301      	movs	r3, #1
 80034e4:	f884 3039 	strb.w	r3, [r4, #57]	; 0x39
 80034e8:	2000      	movs	r0, #0
 80034ea:	bd10      	pop	{r4, pc}
 80034ec:	2001      	movs	r0, #1
 80034ee:	bd10      	pop	{r4, pc}

080034f0 <HAL_UART_MspInit>:
 80034f0:	4770      	bx	lr
	...

080034f4 <UART_SetConfig>:
 80034f4:	b570      	push	{r4, r5, r6, lr}
 80034f6:	4606      	mov	r6, r0
 80034f8:	6804      	ldr	r4, [r0, #0]
 80034fa:	68b2      	ldr	r2, [r6, #8]
 80034fc:	6931      	ldr	r1, [r6, #16]
 80034fe:	69c3      	ldr	r3, [r0, #28]
 8003500:	6820      	ldr	r0, [r4, #0]
 8003502:	4311      	orrs	r1, r2
 8003504:	6972      	ldr	r2, [r6, #20]
 8003506:	430a      	orrs	r2, r1
 8003508:	ea42 0103 	orr.w	r1, r2, r3
 800350c:	4a9b      	ldr	r2, [pc, #620]	; (800377c <UART_SetConfig+0x288>)
 800350e:	4002      	ands	r2, r0
 8003510:	430a      	orrs	r2, r1
 8003512:	6022      	str	r2, [r4, #0]
 8003514:	6861      	ldr	r1, [r4, #4]
 8003516:	68f2      	ldr	r2, [r6, #12]
 8003518:	f421 5140 	bic.w	r1, r1, #12288	; 0x3000
 800351c:	430a      	orrs	r2, r1
 800351e:	4998      	ldr	r1, [pc, #608]	; (8003780 <UART_SetConfig+0x28c>)
 8003520:	6062      	str	r2, [r4, #4]
 8003522:	428c      	cmp	r4, r1
 8003524:	bf18      	it	ne
 8003526:	6a31      	ldrne	r1, [r6, #32]
 8003528:	69b2      	ldr	r2, [r6, #24]
 800352a:	bf18      	it	ne
 800352c:	430a      	orrne	r2, r1
 800352e:	68a1      	ldr	r1, [r4, #8]
 8003530:	f421 6130 	bic.w	r1, r1, #2816	; 0xb00
 8003534:	430a      	orrs	r2, r1
 8003536:	60a2      	str	r2, [r4, #8]
 8003538:	4a92      	ldr	r2, [pc, #584]	; (8003784 <UART_SetConfig+0x290>)
 800353a:	4294      	cmp	r4, r2
 800353c:	d107      	bne.n	800354e <UART_SetConfig+0x5a>
 800353e:	f502 4258 	add.w	r2, r2, #55296	; 0xd800
 8003542:	4991      	ldr	r1, [pc, #580]	; (8003788 <UART_SetConfig+0x294>)
 8003544:	f8d2 2088 	ldr.w	r2, [r2, #136]	; 0x88
 8003548:	f002 0203 	and.w	r2, r2, #3
 800354c:	e009      	b.n	8003562 <UART_SetConfig+0x6e>
 800354e:	4a8f      	ldr	r2, [pc, #572]	; (800378c <UART_SetConfig+0x298>)
 8003550:	4294      	cmp	r4, r2
 8003552:	d10c      	bne.n	800356e <UART_SetConfig+0x7a>
 8003554:	f502 32e6 	add.w	r2, r2, #117760	; 0x1cc00
 8003558:	498d      	ldr	r1, [pc, #564]	; (8003790 <UART_SetConfig+0x29c>)
 800355a:	f8d2 2088 	ldr.w	r2, [r2, #136]	; 0x88
 800355e:	f002 020c 	and.w	r2, r2, #12
 8003562:	f5b3 4f00 	cmp.w	r3, #32768	; 0x8000
 8003566:	5c8a      	ldrb	r2, [r1, r2]
 8003568:	f040 8092 	bne.w	8003690 <UART_SetConfig+0x19c>
 800356c:	e053      	b.n	8003616 <UART_SetConfig+0x122>
 800356e:	4a89      	ldr	r2, [pc, #548]	; (8003794 <UART_SetConfig+0x2a0>)
 8003570:	4294      	cmp	r4, r2
 8003572:	d110      	bne.n	8003596 <UART_SetConfig+0xa2>
 8003574:	f502 32e4 	add.w	r2, r2, #116736	; 0x1c800
 8003578:	f8d2 2088 	ldr.w	r2, [r2, #136]	; 0x88
 800357c:	f002 0230 	and.w	r2, r2, #48	; 0x30
 8003580:	2a10      	cmp	r2, #16
 8003582:	d060      	beq.n	8003646 <UART_SetConfig+0x152>
 8003584:	d802      	bhi.n	800358c <UART_SetConfig+0x98>
 8003586:	2a00      	cmp	r2, #0
 8003588:	d04e      	beq.n	8003628 <UART_SetConfig+0x134>
 800358a:	e074      	b.n	8003676 <UART_SetConfig+0x182>
 800358c:	2a20      	cmp	r2, #32
 800358e:	d054      	beq.n	800363a <UART_SetConfig+0x146>
 8003590:	2a30      	cmp	r2, #48	; 0x30
 8003592:	d062      	beq.n	800365a <UART_SetConfig+0x166>
 8003594:	e06f      	b.n	8003676 <UART_SetConfig+0x182>
 8003596:	4a80      	ldr	r2, [pc, #512]	; (8003798 <UART_SetConfig+0x2a4>)
 8003598:	4294      	cmp	r4, r2
 800359a:	d10e      	bne.n	80035ba <UART_SetConfig+0xc6>
 800359c:	f502 32e2 	add.w	r2, r2, #115712	; 0x1c400
 80035a0:	f8d2 2088 	ldr.w	r2, [r2, #136]	; 0x88
 80035a4:	f002 02c0 	and.w	r2, r2, #192	; 0xc0
 80035a8:	2a40      	cmp	r2, #64	; 0x40
 80035aa:	f000 80d5 	beq.w	8003758 <UART_SetConfig+0x264>
 80035ae:	d927      	bls.n	8003600 <UART_SetConfig+0x10c>
 80035b0:	2a80      	cmp	r2, #128	; 0x80
 80035b2:	f000 80a0 	beq.w	80036f6 <UART_SetConfig+0x202>
 80035b6:	2ac0      	cmp	r2, #192	; 0xc0
 80035b8:	e02a      	b.n	8003610 <UART_SetConfig+0x11c>
 80035ba:	4a78      	ldr	r2, [pc, #480]	; (800379c <UART_SetConfig+0x2a8>)
 80035bc:	4294      	cmp	r4, r2
 80035be:	d111      	bne.n	80035e4 <UART_SetConfig+0xf0>
 80035c0:	f502 32e0 	add.w	r2, r2, #114688	; 0x1c000
 80035c4:	f8d2 2088 	ldr.w	r2, [r2, #136]	; 0x88
 80035c8:	f402 7240 	and.w	r2, r2, #768	; 0x300
 80035cc:	f5b2 7f80 	cmp.w	r2, #256	; 0x100
 80035d0:	f000 80c2 	beq.w	8003758 <UART_SetConfig+0x264>
 80035d4:	d914      	bls.n	8003600 <UART_SetConfig+0x10c>
 80035d6:	f5b2 7f00 	cmp.w	r2, #512	; 0x200
 80035da:	f000 808c 	beq.w	80036f6 <UART_SetConfig+0x202>
 80035de:	f5b2 7f40 	cmp.w	r2, #768	; 0x300
 80035e2:	e015      	b.n	8003610 <UART_SetConfig+0x11c>
 80035e4:	4a66      	ldr	r2, [pc, #408]	; (8003780 <UART_SetConfig+0x28c>)
 80035e6:	4294      	cmp	r4, r2
 80035e8:	d145      	bne.n	8003676 <UART_SetConfig+0x182>
 80035ea:	f502 32c8 	add.w	r2, r2, #102400	; 0x19000
 80035ee:	f8d2 2088 	ldr.w	r2, [r2, #136]	; 0x88
 80035f2:	f402 6240 	and.w	r2, r2, #3072	; 0xc00
 80035f6:	f5b2 6f80 	cmp.w	r2, #1024	; 0x400
 80035fa:	f000 80ad 	beq.w	8003758 <UART_SetConfig+0x264>
 80035fe:	d802      	bhi.n	8003606 <UART_SetConfig+0x112>
 8003600:	2a00      	cmp	r2, #0
 8003602:	d069      	beq.n	80036d8 <UART_SetConfig+0x1e4>
 8003604:	e034      	b.n	8003670 <UART_SetConfig+0x17c>
 8003606:	f5b2 6f00 	cmp.w	r2, #2048	; 0x800
 800360a:	d074      	beq.n	80036f6 <UART_SetConfig+0x202>
 800360c:	f5b2 6f40 	cmp.w	r2, #3072	; 0xc00
 8003610:	f000 80aa 	beq.w	8003768 <UART_SetConfig+0x274>
 8003614:	e02c      	b.n	8003670 <UART_SetConfig+0x17c>
 8003616:	2a08      	cmp	r2, #8
 8003618:	d830      	bhi.n	800367c <UART_SetConfig+0x188>
 800361a:	e8df f002 	tbb	[pc, r2]
 800361e:	0b08      	.short	0x0b08
 8003620:	2f172f11 	.word	0x2f172f11
 8003624:	2f2f      	.short	0x2f2f
 8003626:	21          	.byte	0x21
 8003627:	00          	.byte	0x00
 8003628:	f5b3 4f00 	cmp.w	r3, #32768	; 0x8000
 800362c:	d139      	bne.n	80036a2 <UART_SetConfig+0x1ae>
 800362e:	f7ff f8c3 	bl	80027b8 <HAL_RCC_GetPCLK1Freq>
 8003632:	e00d      	b.n	8003650 <UART_SetConfig+0x15c>
 8003634:	f7ff f8d6 	bl	80027e4 <HAL_RCC_GetPCLK2Freq>
 8003638:	e00a      	b.n	8003650 <UART_SetConfig+0x15c>
 800363a:	f5b3 4f00 	cmp.w	r3, #32768	; 0x8000
 800363e:	d136      	bne.n	80036ae <UART_SetConfig+0x1ba>
 8003640:	6873      	ldr	r3, [r6, #4]
 8003642:	4a57      	ldr	r2, [pc, #348]	; (80037a0 <UART_SetConfig+0x2ac>)
 8003644:	e00f      	b.n	8003666 <UART_SetConfig+0x172>
 8003646:	f5b3 4f00 	cmp.w	r3, #32768	; 0x8000
 800364a:	d136      	bne.n	80036ba <UART_SetConfig+0x1c6>
 800364c:	f7ff f830 	bl	80026b0 <HAL_RCC_GetSysClockFreq>
 8003650:	6873      	ldr	r3, [r6, #4]
 8003652:	0040      	lsls	r0, r0, #1
 8003654:	fbb0 f2f3 	udiv	r2, r0, r3
 8003658:	e007      	b.n	800366a <UART_SetConfig+0x176>
 800365a:	f5b3 4f00 	cmp.w	r3, #32768	; 0x8000
 800365e:	d133      	bne.n	80036c8 <UART_SetConfig+0x1d4>
 8003660:	6873      	ldr	r3, [r6, #4]
 8003662:	f44f 3280 	mov.w	r2, #65536	; 0x10000
 8003666:	fbb2 f2f3 	udiv	r2, r2, r3
 800366a:	b292      	uxth	r2, r2
 800366c:	2300      	movs	r3, #0
 800366e:	e007      	b.n	8003680 <UART_SetConfig+0x18c>
 8003670:	4a43      	ldr	r2, [pc, #268]	; (8003780 <UART_SetConfig+0x28c>)
 8003672:	4294      	cmp	r4, r2
 8003674:	d03d      	beq.n	80036f2 <UART_SetConfig+0x1fe>
 8003676:	f5b3 4f00 	cmp.w	r3, #32768	; 0x8000
 800367a:	d13a      	bne.n	80036f2 <UART_SetConfig+0x1fe>
 800367c:	2301      	movs	r3, #1
 800367e:	2200      	movs	r2, #0
 8003680:	f022 000f 	bic.w	r0, r2, #15
 8003684:	6831      	ldr	r1, [r6, #0]
 8003686:	f3c2 0242 	ubfx	r2, r2, #1, #3
 800368a:	4302      	orrs	r2, r0
 800368c:	60ca      	str	r2, [r1, #12]
 800368e:	e073      	b.n	8003778 <UART_SetConfig+0x284>
 8003690:	2a08      	cmp	r2, #8
 8003692:	d82e      	bhi.n	80036f2 <UART_SetConfig+0x1fe>
 8003694:	e8df f002 	tbb	[pc, r2]
 8003698:	2d0b0805 	.word	0x2d0b0805
 800369c:	2d2d2d11 	.word	0x2d2d2d11
 80036a0:	18          	.byte	0x18
 80036a1:	00          	.byte	0x00
 80036a2:	f7ff f889 	bl	80027b8 <HAL_RCC_GetPCLK1Freq>
 80036a6:	e00a      	b.n	80036be <UART_SetConfig+0x1ca>
 80036a8:	f7ff f89c 	bl	80027e4 <HAL_RCC_GetPCLK2Freq>
 80036ac:	e007      	b.n	80036be <UART_SetConfig+0x1ca>
 80036ae:	6873      	ldr	r3, [r6, #4]
 80036b0:	4a3c      	ldr	r2, [pc, #240]	; (80037a4 <UART_SetConfig+0x2b0>)
 80036b2:	fbb2 f3f3 	udiv	r3, r2, r3
 80036b6:	b29b      	uxth	r3, r3
 80036b8:	e00b      	b.n	80036d2 <UART_SetConfig+0x1de>
 80036ba:	f7fe fff9 	bl	80026b0 <HAL_RCC_GetSysClockFreq>
 80036be:	6873      	ldr	r3, [r6, #4]
 80036c0:	fbb0 f0f3 	udiv	r0, r0, r3
 80036c4:	b283      	uxth	r3, r0
 80036c6:	e004      	b.n	80036d2 <UART_SetConfig+0x1de>
 80036c8:	6873      	ldr	r3, [r6, #4]
 80036ca:	f44f 4200 	mov.w	r2, #32768	; 0x8000
 80036ce:	fbb2 f3f3 	udiv	r3, r2, r3
 80036d2:	60e3      	str	r3, [r4, #12]
 80036d4:	2300      	movs	r3, #0
 80036d6:	e04f      	b.n	8003778 <UART_SetConfig+0x284>
 80036d8:	4a29      	ldr	r2, [pc, #164]	; (8003780 <UART_SetConfig+0x28c>)
 80036da:	4294      	cmp	r4, r2
 80036dc:	d1a4      	bne.n	8003628 <UART_SetConfig+0x134>
 80036de:	f7ff f86b 	bl	80027b8 <HAL_RCC_GetPCLK1Freq>
 80036e2:	2300      	movs	r3, #0
 80036e4:	2800      	cmp	r0, #0
 80036e6:	d0f5      	beq.n	80036d4 <UART_SetConfig+0x1e0>
 80036e8:	6872      	ldr	r2, [r6, #4]
 80036ea:	eb02 0142 	add.w	r1, r2, r2, lsl #1
 80036ee:	4288      	cmp	r0, r1
 80036f0:	d207      	bcs.n	8003702 <UART_SetConfig+0x20e>
 80036f2:	2301      	movs	r3, #1
 80036f4:	e040      	b.n	8003778 <UART_SetConfig+0x284>
 80036f6:	4a22      	ldr	r2, [pc, #136]	; (8003780 <UART_SetConfig+0x28c>)
 80036f8:	4294      	cmp	r4, r2
 80036fa:	d19e      	bne.n	800363a <UART_SetConfig+0x146>
 80036fc:	2302      	movs	r3, #2
 80036fe:	4829      	ldr	r0, [pc, #164]	; (80037a4 <UART_SetConfig+0x2b0>)
 8003700:	e7f2      	b.n	80036e8 <UART_SetConfig+0x1f4>
 8003702:	ebb0 3f02 	cmp.w	r0, r2, lsl #12
 8003706:	d8f4      	bhi.n	80036f2 <UART_SetConfig+0x1fe>
 8003708:	2b08      	cmp	r3, #8
 800370a:	d81c      	bhi.n	8003746 <UART_SetConfig+0x252>
 800370c:	e8df f003 	tbb	[pc, r3]
 8003710:	1b081b05 	.word	0x1b081b05
 8003714:	1b1b1b0a 	.word	0x1b1b1b0a
 8003718:	15          	.byte	0x15
 8003719:	00          	.byte	0x00
 800371a:	f7ff f84d 	bl	80027b8 <HAL_RCC_GetPCLK1Freq>
 800371e:	e003      	b.n	8003728 <UART_SetConfig+0x234>
 8003720:	4821      	ldr	r0, [pc, #132]	; (80037a8 <UART_SetConfig+0x2b4>)
 8003722:	e00c      	b.n	800373e <UART_SetConfig+0x24a>
 8003724:	f7fe ffc4 	bl	80026b0 <HAL_RCC_GetSysClockFreq>
 8003728:	0e05      	lsrs	r5, r0, #24
 800372a:	0204      	lsls	r4, r0, #8
 800372c:	6872      	ldr	r2, [r6, #4]
 800372e:	4620      	mov	r0, r4
 8003730:	4629      	mov	r1, r5
 8003732:	2300      	movs	r3, #0
 8003734:	f7fc fd52 	bl	80001dc <__aeabi_uldivmod>
 8003738:	e003      	b.n	8003742 <UART_SetConfig+0x24e>
 800373a:	f44f 0000 	mov.w	r0, #8388608	; 0x800000
 800373e:	fbb0 f0f2 	udiv	r0, r0, r2
 8003742:	2300      	movs	r3, #0
 8003744:	e000      	b.n	8003748 <UART_SetConfig+0x254>
 8003746:	2301      	movs	r3, #1
 8003748:	4a18      	ldr	r2, [pc, #96]	; (80037ac <UART_SetConfig+0x2b8>)
 800374a:	f5a0 7140 	sub.w	r1, r0, #768	; 0x300
 800374e:	4291      	cmp	r1, r2
 8003750:	d8cf      	bhi.n	80036f2 <UART_SetConfig+0x1fe>
 8003752:	6832      	ldr	r2, [r6, #0]
 8003754:	60d0      	str	r0, [r2, #12]
 8003756:	e00f      	b.n	8003778 <UART_SetConfig+0x284>
 8003758:	4a09      	ldr	r2, [pc, #36]	; (8003780 <UART_SetConfig+0x28c>)
 800375a:	4294      	cmp	r4, r2
 800375c:	f47f af73 	bne.w	8003646 <UART_SetConfig+0x152>
 8003760:	f7fe ffa6 	bl	80026b0 <HAL_RCC_GetSysClockFreq>
 8003764:	2304      	movs	r3, #4
 8003766:	e7bd      	b.n	80036e4 <UART_SetConfig+0x1f0>
 8003768:	4a05      	ldr	r2, [pc, #20]	; (8003780 <UART_SetConfig+0x28c>)
 800376a:	4294      	cmp	r4, r2
 800376c:	f47f af75 	bne.w	800365a <UART_SetConfig+0x166>
 8003770:	2308      	movs	r3, #8
 8003772:	f44f 4000 	mov.w	r0, #32768	; 0x8000
 8003776:	e7b7      	b.n	80036e8 <UART_SetConfig+0x1f4>
 8003778:	4618      	mov	r0, r3
 800377a:	bd70      	pop	{r4, r5, r6, pc}
 800377c:	efff69f3 	.word	0xefff69f3
 8003780:	40008000 	.word	0x40008000
 8003784:	40013800 	.word	0x40013800
 8003788:	0800b26d 	.word	0x0800b26d
 800378c:	40004400 	.word	0x40004400
 8003790:	0800b260 	.word	0x0800b260
 8003794:	40004800 	.word	0x40004800
 8003798:	40004c00 	.word	0x40004c00
 800379c:	40005000 	.word	0x40005000
 80037a0:	01e84800 	.word	0x01e84800
 80037a4:	00f42400 	.word	0x00f42400
 80037a8:	f4240000 	.word	0xf4240000
 80037ac:	000ffcff 	.word	0x000ffcff

080037b0 <UART_AdvFeatureConfig>:
 80037b0:	6a43      	ldr	r3, [r0, #36]	; 0x24
 80037b2:	07da      	lsls	r2, r3, #31
 80037b4:	b510      	push	{r4, lr}
 80037b6:	d506      	bpl.n	80037c6 <UART_AdvFeatureConfig+0x16>
 80037b8:	6802      	ldr	r2, [r0, #0]
 80037ba:	6a81      	ldr	r1, [r0, #40]	; 0x28
 80037bc:	6854      	ldr	r4, [r2, #4]
 80037be:	f424 3400 	bic.w	r4, r4, #131072	; 0x20000
 80037c2:	4321      	orrs	r1, r4
 80037c4:	6051      	str	r1, [r2, #4]
 80037c6:	079c      	lsls	r4, r3, #30
 80037c8:	d506      	bpl.n	80037d8 <UART_AdvFeatureConfig+0x28>
 80037ca:	6802      	ldr	r2, [r0, #0]
 80037cc:	6ac1      	ldr	r1, [r0, #44]	; 0x2c
 80037ce:	6854      	ldr	r4, [r2, #4]
 80037d0:	f424 3480 	bic.w	r4, r4, #65536	; 0x10000
 80037d4:	4321      	orrs	r1, r4
 80037d6:	6051      	str	r1, [r2, #4]
 80037d8:	0759      	lsls	r1, r3, #29
 80037da:	d506      	bpl.n	80037ea <UART_AdvFeatureConfig+0x3a>
 80037dc:	6802      	ldr	r2, [r0, #0]
 80037de:	6b01      	ldr	r1, [r0, #48]	; 0x30
 80037e0:	6854      	ldr	r4, [r2, #4]
 80037e2:	f424 2480 	bic.w	r4, r4, #262144	; 0x40000
 80037e6:	4321      	orrs	r1, r4
 80037e8:	6051      	str	r1, [r2, #4]
 80037ea:	071a      	lsls	r2, r3, #28
 80037ec:	d506      	bpl.n	80037fc <UART_AdvFeatureConfig+0x4c>
 80037ee:	6802      	ldr	r2, [r0, #0]
 80037f0:	6b41      	ldr	r1, [r0, #52]	; 0x34
 80037f2:	6854      	ldr	r4, [r2, #4]
 80037f4:	f424 4400 	bic.w	r4, r4, #32768	; 0x8000
 80037f8:	4321      	orrs	r1, r4
 80037fa:	6051      	str	r1, [r2, #4]
 80037fc:	06dc      	lsls	r4, r3, #27
 80037fe:	d506      	bpl.n	800380e <UART_AdvFeatureConfig+0x5e>
 8003800:	6802      	ldr	r2, [r0, #0]
 8003802:	6b81      	ldr	r1, [r0, #56]	; 0x38
 8003804:	6894      	ldr	r4, [r2, #8]
 8003806:	f424 5480 	bic.w	r4, r4, #4096	; 0x1000
 800380a:	4321      	orrs	r1, r4
 800380c:	6091      	str	r1, [r2, #8]
 800380e:	0699      	lsls	r1, r3, #26
 8003810:	d506      	bpl.n	8003820 <UART_AdvFeatureConfig+0x70>
 8003812:	6802      	ldr	r2, [r0, #0]
 8003814:	6bc1      	ldr	r1, [r0, #60]	; 0x3c
 8003816:	6894      	ldr	r4, [r2, #8]
 8003818:	f424 5400 	bic.w	r4, r4, #8192	; 0x2000
 800381c:	4321      	orrs	r1, r4
 800381e:	6091      	str	r1, [r2, #8]
 8003820:	065a      	lsls	r2, r3, #25
 8003822:	d50f      	bpl.n	8003844 <UART_AdvFeatureConfig+0x94>
 8003824:	6802      	ldr	r2, [r0, #0]
 8003826:	6c01      	ldr	r1, [r0, #64]	; 0x40
 8003828:	6854      	ldr	r4, [r2, #4]
 800382a:	f424 1480 	bic.w	r4, r4, #1048576	; 0x100000
 800382e:	430c      	orrs	r4, r1
 8003830:	f5b1 1f80 	cmp.w	r1, #1048576	; 0x100000
 8003834:	6054      	str	r4, [r2, #4]
 8003836:	d105      	bne.n	8003844 <UART_AdvFeatureConfig+0x94>
 8003838:	6854      	ldr	r4, [r2, #4]
 800383a:	6c41      	ldr	r1, [r0, #68]	; 0x44
 800383c:	f424 04c0 	bic.w	r4, r4, #6291456	; 0x600000
 8003840:	4321      	orrs	r1, r4
 8003842:	6051      	str	r1, [r2, #4]
 8003844:	061b      	lsls	r3, r3, #24
 8003846:	d506      	bpl.n	8003856 <UART_AdvFeatureConfig+0xa6>
 8003848:	6803      	ldr	r3, [r0, #0]
 800384a:	6c81      	ldr	r1, [r0, #72]	; 0x48
 800384c:	685a      	ldr	r2, [r3, #4]
 800384e:	f422 2200 	bic.w	r2, r2, #524288	; 0x80000
 8003852:	430a      	orrs	r2, r1
 8003854:	605a      	str	r2, [r3, #4]
 8003856:	bd10      	pop	{r4, pc}

08003858 <UART_WaitOnFlagUntilTimeout>:
 8003858:	e92d 41f0 	stmdb	sp!, {r4, r5, r6, r7, r8, lr}
 800385c:	4604      	mov	r4, r0
 800385e:	460e      	mov	r6, r1
 8003860:	4690      	mov	r8, r2
 8003862:	461d      	mov	r5, r3
 8003864:	f7fd fa8e 	bl	8000d84 <HAL_GetTick>
 8003868:	4607      	mov	r7, r0
 800386a:	f1b8 0f00 	cmp.w	r8, #0
 800386e:	d136      	bne.n	80038de <UART_WaitOnFlagUntilTimeout+0x86>
 8003870:	6822      	ldr	r2, [r4, #0]
 8003872:	69d3      	ldr	r3, [r2, #28]
 8003874:	4033      	ands	r3, r6
 8003876:	42b3      	cmp	r3, r6
 8003878:	d00e      	beq.n	8003898 <UART_WaitOnFlagUntilTimeout+0x40>
 800387a:	1c69      	adds	r1, r5, #1
 800387c:	d0f9      	beq.n	8003872 <UART_WaitOnFlagUntilTimeout+0x1a>
 800387e:	b17d      	cbz	r5, 80038a0 <UART_WaitOnFlagUntilTimeout+0x48>
 8003880:	f7fd fa80 	bl	8000d84 <HAL_GetTick>
 8003884:	1bc0      	subs	r0, r0, r7
 8003886:	42a8      	cmp	r0, r5
 8003888:	d9f2      	bls.n	8003870 <UART_WaitOnFlagUntilTimeout+0x18>
 800388a:	e009      	b.n	80038a0 <UART_WaitOnFlagUntilTimeout+0x48>
 800388c:	1c6b      	adds	r3, r5, #1
 800388e:	d106      	bne.n	800389e <UART_WaitOnFlagUntilTimeout+0x46>
 8003890:	69d3      	ldr	r3, [r2, #28]
 8003892:	4033      	ands	r3, r6
 8003894:	42b3      	cmp	r3, r6
 8003896:	d0f9      	beq.n	800388c <UART_WaitOnFlagUntilTimeout+0x34>
 8003898:	2000      	movs	r0, #0
 800389a:	e8bd 81f0 	ldmia.w	sp!, {r4, r5, r6, r7, r8, pc}
 800389e:	b9cd      	cbnz	r5, 80038d4 <UART_WaitOnFlagUntilTimeout+0x7c>
 80038a0:	6823      	ldr	r3, [r4, #0]
 80038a2:	681a      	ldr	r2, [r3, #0]
 80038a4:	f022 0280 	bic.w	r2, r2, #128	; 0x80
 80038a8:	601a      	str	r2, [r3, #0]
 80038aa:	681a      	ldr	r2, [r3, #0]
 80038ac:	f022 0220 	bic.w	r2, r2, #32
 80038b0:	601a      	str	r2, [r3, #0]
 80038b2:	681a      	ldr	r2, [r3, #0]
 80038b4:	f422 7280 	bic.w	r2, r2, #256	; 0x100
 80038b8:	601a      	str	r2, [r3, #0]
 80038ba:	689a      	ldr	r2, [r3, #8]
 80038bc:	f022 0201 	bic.w	r2, r2, #1
 80038c0:	609a      	str	r2, [r3, #8]
 80038c2:	2301      	movs	r3, #1
 80038c4:	f884 3069 	strb.w	r3, [r4, #105]	; 0x69
 80038c8:	2300      	movs	r3, #0
 80038ca:	f884 3068 	strb.w	r3, [r4, #104]	; 0x68
 80038ce:	2003      	movs	r0, #3
 80038d0:	e8bd 81f0 	ldmia.w	sp!, {r4, r5, r6, r7, r8, pc}
 80038d4:	f7fd fa56 	bl	8000d84 <HAL_GetTick>
 80038d8:	1bc0      	subs	r0, r0, r7
 80038da:	42a8      	cmp	r0, r5
 80038dc:	d8e0      	bhi.n	80038a0 <UART_WaitOnFlagUntilTimeout+0x48>
 80038de:	6822      	ldr	r2, [r4, #0]
 80038e0:	e7d6      	b.n	8003890 <UART_WaitOnFlagUntilTimeout+0x38>

080038e2 <UART_CheckIdleState>:
 80038e2:	2200      	movs	r2, #0
 80038e4:	6803      	ldr	r3, [r0, #0]
 80038e6:	b510      	push	{r4, lr}
 80038e8:	66c2      	str	r2, [r0, #108]	; 0x6c
 80038ea:	681b      	ldr	r3, [r3, #0]
 80038ec:	0719      	lsls	r1, r3, #28
 80038ee:	4604      	mov	r4, r0
 80038f0:	d404      	bmi.n	80038fc <UART_CheckIdleState+0x1a>
 80038f2:	6823      	ldr	r3, [r4, #0]
 80038f4:	681b      	ldr	r3, [r3, #0]
 80038f6:	075b      	lsls	r3, r3, #29
 80038f8:	d514      	bpl.n	8003924 <UART_CheckIdleState+0x42>
 80038fa:	e009      	b.n	8003910 <UART_CheckIdleState+0x2e>
 80038fc:	f44f 1100 	mov.w	r1, #2097152	; 0x200000
 8003900:	f06f 437e 	mvn.w	r3, #4261412864	; 0xfe000000
 8003904:	f7ff ffa8 	bl	8003858 <UART_WaitOnFlagUntilTimeout>
 8003908:	2800      	cmp	r0, #0
 800390a:	d0f2      	beq.n	80038f2 <UART_CheckIdleState+0x10>
 800390c:	2003      	movs	r0, #3
 800390e:	bd10      	pop	{r4, pc}
 8003910:	4620      	mov	r0, r4
 8003912:	f44f 0180 	mov.w	r1, #4194304	; 0x400000
 8003916:	2200      	movs	r2, #0
 8003918:	f06f 437e 	mvn.w	r3, #4261412864	; 0xfe000000
 800391c:	f7ff ff9c 	bl	8003858 <UART_WaitOnFlagUntilTimeout>
 8003920:	2800      	cmp	r0, #0
 8003922:	d1f3      	bne.n	800390c <UART_CheckIdleState+0x2a>
 8003924:	2301      	movs	r3, #1
 8003926:	2000      	movs	r0, #0
 8003928:	f884 3069 	strb.w	r3, [r4, #105]	; 0x69
 800392c:	f884 0068 	strb.w	r0, [r4, #104]	; 0x68
 8003930:	bd10      	pop	{r4, pc}

08003932 <HAL_UART_Init>:
 8003932:	b510      	push	{r4, lr}
 8003934:	4604      	mov	r4, r0
 8003936:	b360      	cbz	r0, 8003992 <HAL_UART_Init+0x60>
 8003938:	f890 3069 	ldrb.w	r3, [r0, #105]	; 0x69
 800393c:	f003 02ff 	and.w	r2, r3, #255	; 0xff
 8003940:	b91b      	cbnz	r3, 800394a <HAL_UART_Init+0x18>
 8003942:	f880 2068 	strb.w	r2, [r0, #104]	; 0x68
 8003946:	f7ff fdd3 	bl	80034f0 <HAL_UART_MspInit>
 800394a:	2302      	movs	r3, #2
 800394c:	f884 3069 	strb.w	r3, [r4, #105]	; 0x69
 8003950:	6823      	ldr	r3, [r4, #0]
 8003952:	681a      	ldr	r2, [r3, #0]
 8003954:	f022 0201 	bic.w	r2, r2, #1
 8003958:	601a      	str	r2, [r3, #0]
 800395a:	4620      	mov	r0, r4
 800395c:	f7ff fdca 	bl	80034f4 <UART_SetConfig>
 8003960:	2801      	cmp	r0, #1
 8003962:	d016      	beq.n	8003992 <HAL_UART_Init+0x60>
 8003964:	6a63      	ldr	r3, [r4, #36]	; 0x24
 8003966:	b113      	cbz	r3, 800396e <HAL_UART_Init+0x3c>
 8003968:	4620      	mov	r0, r4
 800396a:	f7ff ff21 	bl	80037b0 <UART_AdvFeatureConfig>
 800396e:	6823      	ldr	r3, [r4, #0]
 8003970:	685a      	ldr	r2, [r3, #4]
 8003972:	f422 4290 	bic.w	r2, r2, #18432	; 0x4800
 8003976:	605a      	str	r2, [r3, #4]
 8003978:	689a      	ldr	r2, [r3, #8]
 800397a:	f022 022a 	bic.w	r2, r2, #42	; 0x2a
 800397e:	609a      	str	r2, [r3, #8]
 8003980:	681a      	ldr	r2, [r3, #0]
 8003982:	f042 0201 	orr.w	r2, r2, #1
 8003986:	4620      	mov	r0, r4
 8003988:	601a      	str	r2, [r3, #0]
 800398a:	e8bd 4010 	ldmia.w	sp!, {r4, lr}
 800398e:	f7ff bfa8 	b.w	80038e2 <UART_CheckIdleState>
 8003992:	2001      	movs	r0, #1
 8003994:	bd10      	pop	{r4, pc}

08003996 <USART_WaitOnFlagUntilTimeout.constprop.0>:
 8003996:	b5f8      	push	{r3, r4, r5, r6, r7, lr}
 8003998:	4604      	mov	r4, r0
 800399a:	460e      	mov	r6, r1
 800399c:	4615      	mov	r5, r2
 800399e:	f7fd f9f1 	bl	8000d84 <HAL_GetTick>
 80039a2:	4607      	mov	r7, r0
 80039a4:	6822      	ldr	r2, [r4, #0]
 80039a6:	69d3      	ldr	r3, [r2, #28]
 80039a8:	4033      	ands	r3, r6
 80039aa:	42b3      	cmp	r3, r6
 80039ac:	d021      	beq.n	80039f2 <USART_WaitOnFlagUntilTimeout.constprop.0+0x5c>
 80039ae:	1c6b      	adds	r3, r5, #1
 80039b0:	d0f9      	beq.n	80039a6 <USART_WaitOnFlagUntilTimeout.constprop.0+0x10>
 80039b2:	b9c5      	cbnz	r5, 80039e6 <USART_WaitOnFlagUntilTimeout.constprop.0+0x50>
 80039b4:	6823      	ldr	r3, [r4, #0]
 80039b6:	681a      	ldr	r2, [r3, #0]
 80039b8:	f022 0280 	bic.w	r2, r2, #128	; 0x80
 80039bc:	601a      	str	r2, [r3, #0]
 80039be:	681a      	ldr	r2, [r3, #0]
 80039c0:	f022 0220 	bic.w	r2, r2, #32
 80039c4:	601a      	str	r2, [r3, #0]
 80039c6:	681a      	ldr	r2, [r3, #0]
 80039c8:	f422 7280 	bic.w	r2, r2, #256	; 0x100
 80039cc:	601a      	str	r2, [r3, #0]
 80039ce:	689a      	ldr	r2, [r3, #8]
 80039d0:	f022 0201 	bic.w	r2, r2, #1
 80039d4:	609a      	str	r2, [r3, #8]
 80039d6:	2301      	movs	r3, #1
 80039d8:	f884 3041 	strb.w	r3, [r4, #65]	; 0x41
 80039dc:	2300      	movs	r3, #0
 80039de:	f884 3040 	strb.w	r3, [r4, #64]	; 0x40
 80039e2:	2003      	movs	r0, #3
 80039e4:	bdf8      	pop	{r3, r4, r5, r6, r7, pc}
 80039e6:	f7fd f9cd 	bl	8000d84 <HAL_GetTick>
 80039ea:	1bc0      	subs	r0, r0, r7
 80039ec:	42a8      	cmp	r0, r5
 80039ee:	d9d9      	bls.n	80039a4 <USART_WaitOnFlagUntilTimeout.constprop.0+0xe>
 80039f0:	e7e0      	b.n	80039b4 <USART_WaitOnFlagUntilTimeout.constprop.0+0x1e>
 80039f2:	2000      	movs	r0, #0
 80039f4:	bdf8      	pop	{r3, r4, r5, r6, r7, pc}

080039f6 <HAL_USART_MspInit>:
 80039f6:	4770      	bx	lr

080039f8 <HAL_USART_Init>:
 80039f8:	b510      	push	{r4, lr}
 80039fa:	4604      	mov	r4, r0
 80039fc:	b908      	cbnz	r0, 8003a02 <HAL_USART_Init+0xa>
 80039fe:	2001      	movs	r0, #1
 8003a00:	bd10      	pop	{r4, pc}
 8003a02:	f890 3041 	ldrb.w	r3, [r0, #65]	; 0x41
 8003a06:	f003 02ff 	and.w	r2, r3, #255	; 0xff
 8003a0a:	b91b      	cbnz	r3, 8003a14 <HAL_USART_Init+0x1c>
 8003a0c:	f880 2040 	strb.w	r2, [r0, #64]	; 0x40
 8003a10:	f7ff fff1 	bl	80039f6 <HAL_USART_MspInit>
 8003a14:	2302      	movs	r3, #2
 8003a16:	f884 3041 	strb.w	r3, [r4, #65]	; 0x41
 8003a1a:	6823      	ldr	r3, [r4, #0]
 8003a1c:	68a1      	ldr	r1, [r4, #8]
 8003a1e:	681a      	ldr	r2, [r3, #0]
 8003a20:	f022 0201 	bic.w	r2, r2, #1
 8003a24:	601a      	str	r2, [r3, #0]
 8003a26:	6922      	ldr	r2, [r4, #16]
 8003a28:	6818      	ldr	r0, [r3, #0]
 8003a2a:	4311      	orrs	r1, r2
 8003a2c:	6962      	ldr	r2, [r4, #20]
 8003a2e:	f441 4100 	orr.w	r1, r1, #32768	; 0x8000
 8003a32:	4311      	orrs	r1, r2
 8003a34:	4a4a      	ldr	r2, [pc, #296]	; (8003b60 <HAL_USART_Init+0x168>)
 8003a36:	4002      	ands	r2, r0
 8003a38:	430a      	orrs	r2, r1
 8003a3a:	601a      	str	r2, [r3, #0]
 8003a3c:	69a1      	ldr	r1, [r4, #24]
 8003a3e:	69e2      	ldr	r2, [r4, #28]
 8003a40:	6858      	ldr	r0, [r3, #4]
 8003a42:	4311      	orrs	r1, r2
 8003a44:	6a22      	ldr	r2, [r4, #32]
 8003a46:	f441 6100 	orr.w	r1, r1, #2048	; 0x800
 8003a4a:	4311      	orrs	r1, r2
 8003a4c:	68e2      	ldr	r2, [r4, #12]
 8003a4e:	f420 507c 	bic.w	r0, r0, #16128	; 0x3f00
 8003a52:	430a      	orrs	r2, r1
 8003a54:	4302      	orrs	r2, r0
 8003a56:	605a      	str	r2, [r3, #4]
 8003a58:	4a42      	ldr	r2, [pc, #264]	; (8003b64 <HAL_USART_Init+0x16c>)
 8003a5a:	4293      	cmp	r3, r2
 8003a5c:	d106      	bne.n	8003a6c <HAL_USART_Init+0x74>
 8003a5e:	4b42      	ldr	r3, [pc, #264]	; (8003b68 <HAL_USART_Init+0x170>)
 8003a60:	4a42      	ldr	r2, [pc, #264]	; (8003b6c <HAL_USART_Init+0x174>)
 8003a62:	f8d3 3088 	ldr.w	r3, [r3, #136]	; 0x88
 8003a66:	f003 0303 	and.w	r3, r3, #3
 8003a6a:	e008      	b.n	8003a7e <HAL_USART_Init+0x86>
 8003a6c:	4a40      	ldr	r2, [pc, #256]	; (8003b70 <HAL_USART_Init+0x178>)
 8003a6e:	4293      	cmp	r3, r2
 8003a70:	d10f      	bne.n	8003a92 <HAL_USART_Init+0x9a>
 8003a72:	4b3d      	ldr	r3, [pc, #244]	; (8003b68 <HAL_USART_Init+0x170>)
 8003a74:	4a3f      	ldr	r2, [pc, #252]	; (8003b74 <HAL_USART_Init+0x17c>)
 8003a76:	f8d3 3088 	ldr.w	r3, [r3, #136]	; 0x88
 8003a7a:	f003 030c 	and.w	r3, r3, #12
 8003a7e:	5cd3      	ldrb	r3, [r2, r3]
 8003a80:	2b08      	cmp	r3, #8
 8003a82:	d830      	bhi.n	8003ae6 <HAL_USART_Init+0xee>
 8003a84:	e8df f003 	tbb	[pc, r3]
 8003a88:	2f1d1a17 	.word	0x2f1d1a17
 8003a8c:	2f2f2f20 	.word	0x2f2f2f20
 8003a90:	27          	.byte	0x27
 8003a91:	00          	.byte	0x00
 8003a92:	4a39      	ldr	r2, [pc, #228]	; (8003b78 <HAL_USART_Init+0x180>)
 8003a94:	4293      	cmp	r3, r2
 8003a96:	d126      	bne.n	8003ae6 <HAL_USART_Init+0xee>
 8003a98:	4b33      	ldr	r3, [pc, #204]	; (8003b68 <HAL_USART_Init+0x170>)
 8003a9a:	f8d3 3088 	ldr.w	r3, [r3, #136]	; 0x88
 8003a9e:	f003 0330 	and.w	r3, r3, #48	; 0x30
 8003aa2:	2b10      	cmp	r3, #16
 8003aa4:	d010      	beq.n	8003ac8 <HAL_USART_Init+0xd0>
 8003aa6:	d801      	bhi.n	8003aac <HAL_USART_Init+0xb4>
 8003aa8:	b12b      	cbz	r3, 8003ab6 <HAL_USART_Init+0xbe>
 8003aaa:	e01c      	b.n	8003ae6 <HAL_USART_Init+0xee>
 8003aac:	2b20      	cmp	r3, #32
 8003aae:	d008      	beq.n	8003ac2 <HAL_USART_Init+0xca>
 8003ab0:	2b30      	cmp	r3, #48	; 0x30
 8003ab2:	d010      	beq.n	8003ad6 <HAL_USART_Init+0xde>
 8003ab4:	e017      	b.n	8003ae6 <HAL_USART_Init+0xee>
 8003ab6:	f7fe fe7f 	bl	80027b8 <HAL_RCC_GetPCLK1Freq>
 8003aba:	e007      	b.n	8003acc <HAL_USART_Init+0xd4>
 8003abc:	f7fe fe92 	bl	80027e4 <HAL_RCC_GetPCLK2Freq>
 8003ac0:	e004      	b.n	8003acc <HAL_USART_Init+0xd4>
 8003ac2:	6863      	ldr	r3, [r4, #4]
 8003ac4:	4a2d      	ldr	r2, [pc, #180]	; (8003b7c <HAL_USART_Init+0x184>)
 8003ac6:	e009      	b.n	8003adc <HAL_USART_Init+0xe4>
 8003ac8:	f7fe fdf2 	bl	80026b0 <HAL_RCC_GetSysClockFreq>
 8003acc:	6863      	ldr	r3, [r4, #4]
 8003ace:	0040      	lsls	r0, r0, #1
 8003ad0:	fbb0 f3f3 	udiv	r3, r0, r3
 8003ad4:	e004      	b.n	8003ae0 <HAL_USART_Init+0xe8>
 8003ad6:	6863      	ldr	r3, [r4, #4]
 8003ad8:	f44f 3280 	mov.w	r2, #65536	; 0x10000
 8003adc:	fbb2 f3f3 	udiv	r3, r2, r3
 8003ae0:	b29b      	uxth	r3, r3
 8003ae2:	2100      	movs	r1, #0
 8003ae4:	e001      	b.n	8003aea <HAL_USART_Init+0xf2>
 8003ae6:	2300      	movs	r3, #0
 8003ae8:	2101      	movs	r1, #1
 8003aea:	f023 000f 	bic.w	r0, r3, #15
 8003aee:	6822      	ldr	r2, [r4, #0]
 8003af0:	f3c3 0342 	ubfx	r3, r3, #1, #3
 8003af4:	4303      	orrs	r3, r0
 8003af6:	60d3      	str	r3, [r2, #12]
 8003af8:	2900      	cmp	r1, #0
 8003afa:	d180      	bne.n	80039fe <HAL_USART_Init+0x6>
 8003afc:	6853      	ldr	r3, [r2, #4]
 8003afe:	f423 4380 	bic.w	r3, r3, #16384	; 0x4000
 8003b02:	6053      	str	r3, [r2, #4]
 8003b04:	6893      	ldr	r3, [r2, #8]
 8003b06:	f023 032a 	bic.w	r3, r3, #42	; 0x2a
 8003b0a:	6093      	str	r3, [r2, #8]
 8003b0c:	6813      	ldr	r3, [r2, #0]
 8003b0e:	f043 0301 	orr.w	r3, r3, #1
 8003b12:	6013      	str	r3, [r2, #0]
 8003b14:	2300      	movs	r3, #0
 8003b16:	6463      	str	r3, [r4, #68]	; 0x44
 8003b18:	6813      	ldr	r3, [r2, #0]
 8003b1a:	071a      	lsls	r2, r3, #28
 8003b1c:	d404      	bmi.n	8003b28 <HAL_USART_Init+0x130>
 8003b1e:	6823      	ldr	r3, [r4, #0]
 8003b20:	681b      	ldr	r3, [r3, #0]
 8003b22:	075b      	lsls	r3, r3, #29
 8003b24:	d514      	bpl.n	8003b50 <HAL_USART_Init+0x158>
 8003b26:	e00a      	b.n	8003b3e <HAL_USART_Init+0x146>
 8003b28:	4620      	mov	r0, r4
 8003b2a:	f44f 1100 	mov.w	r1, #2097152	; 0x200000
 8003b2e:	f44f 727a 	mov.w	r2, #1000	; 0x3e8
 8003b32:	f7ff ff30 	bl	8003996 <USART_WaitOnFlagUntilTimeout.constprop.0>
 8003b36:	2800      	cmp	r0, #0
 8003b38:	d0f1      	beq.n	8003b1e <HAL_USART_Init+0x126>
 8003b3a:	2003      	movs	r0, #3
 8003b3c:	bd10      	pop	{r4, pc}
 8003b3e:	4620      	mov	r0, r4
 8003b40:	f44f 0180 	mov.w	r1, #4194304	; 0x400000
 8003b44:	f44f 727a 	mov.w	r2, #1000	; 0x3e8
 8003b48:	f7ff ff25 	bl	8003996 <USART_WaitOnFlagUntilTimeout.constprop.0>
 8003b4c:	2800      	cmp	r0, #0
 8003b4e:	d1f4      	bne.n	8003b3a <HAL_USART_Init+0x142>
 8003b50:	2301      	movs	r3, #1
 8003b52:	2000      	movs	r0, #0
 8003b54:	f884 3041 	strb.w	r3, [r4, #65]	; 0x41
 8003b58:	f884 0040 	strb.w	r0, [r4, #64]	; 0x40
 8003b5c:	bd10      	pop	{r4, pc}
 8003b5e:	bf00      	nop
 8003b60:	efff69f3 	.word	0xefff69f3
 8003b64:	40013800 	.word	0x40013800
 8003b68:	40021000 	.word	0x40021000
 8003b6c:	0800b271 	.word	0x0800b271
 8003b70:	40004400 	.word	0x40004400
 8003b74:	0800b275 	.word	0x0800b275
 8003b78:	40004800 	.word	0x40004800
 8003b7c:	01e84800 	.word	0x01e84800

08003b80 <USB_FlushTxFifo>:
 8003b80:	0189      	lsls	r1, r1, #6
 8003b82:	f041 0120 	orr.w	r1, r1, #32
 8003b86:	4b06      	ldr	r3, [pc, #24]	; (8003ba0 <USB_FlushTxFifo+0x20>)
 8003b88:	6101      	str	r1, [r0, #16]
 8003b8a:	3b01      	subs	r3, #1
 8003b8c:	d005      	beq.n	8003b9a <USB_FlushTxFifo+0x1a>
 8003b8e:	6902      	ldr	r2, [r0, #16]
 8003b90:	f012 0220 	ands.w	r2, r2, #32
 8003b94:	d1f9      	bne.n	8003b8a <USB_FlushTxFifo+0xa>
 8003b96:	4610      	mov	r0, r2
 8003b98:	4770      	bx	lr
 8003b9a:	2003      	movs	r0, #3
 8003b9c:	4770      	bx	lr
 8003b9e:	bf00      	nop
 8003ba0:	00030d41 	.word	0x00030d41

08003ba4 <USB_ActivateEndpoint>:
 8003ba4:	b530      	push	{r4, r5, lr}
 8003ba6:	784c      	ldrb	r4, [r1, #1]
 8003ba8:	780a      	ldrb	r2, [r1, #0]
 8003baa:	2c01      	cmp	r4, #1
 8003bac:	f500 6300 	add.w	r3, r0, #2048	; 0x800
 8003bb0:	d11d      	bne.n	8003bee <USB_ActivateEndpoint+0x4a>
 8003bb2:	69dd      	ldr	r5, [r3, #28]
 8003bb4:	fa04 f202 	lsl.w	r2, r4, r2
 8003bb8:	b292      	uxth	r2, r2
 8003bba:	432a      	orrs	r2, r5
 8003bbc:	61da      	str	r2, [r3, #28]
 8003bbe:	780c      	ldrb	r4, [r1, #0]
 8003bc0:	f44f 6310 	mov.w	r3, #2304	; 0x900
 8003bc4:	eb03 1344 	add.w	r3, r3, r4, lsl #5
 8003bc8:	581a      	ldr	r2, [r3, r0]
 8003bca:	0415      	lsls	r5, r2, #16
 8003bcc:	d42b      	bmi.n	8003c26 <USB_ActivateEndpoint+0x82>
 8003bce:	581a      	ldr	r2, [r3, r0]
 8003bd0:	688d      	ldr	r5, [r1, #8]
 8003bd2:	f042 5280 	orr.w	r2, r2, #268435456	; 0x10000000
 8003bd6:	f3c5 050a 	ubfx	r5, r5, #0, #11
 8003bda:	f442 4200 	orr.w	r2, r2, #32768	; 0x8000
 8003bde:	432a      	orrs	r2, r5
 8003be0:	78cd      	ldrb	r5, [r1, #3]
 8003be2:	ea42 4285 	orr.w	r2, r2, r5, lsl #18
 8003be6:	ea42 5484 	orr.w	r4, r2, r4, lsl #22
 8003bea:	501c      	str	r4, [r3, r0]
 8003bec:	e01b      	b.n	8003c26 <USB_ActivateEndpoint+0x82>
 8003bee:	69dc      	ldr	r4, [r3, #28]
 8003bf0:	f44f 3580 	mov.w	r5, #65536	; 0x10000
 8003bf4:	fa05 f202 	lsl.w	r2, r5, r2
 8003bf8:	4322      	orrs	r2, r4
 8003bfa:	61da      	str	r2, [r3, #28]
 8003bfc:	780a      	ldrb	r2, [r1, #0]
 8003bfe:	f44f 6330 	mov.w	r3, #2816	; 0xb00
 8003c02:	eb03 1342 	add.w	r3, r3, r2, lsl #5
 8003c06:	581a      	ldr	r2, [r3, r0]
 8003c08:	0412      	lsls	r2, r2, #16
 8003c0a:	d40c      	bmi.n	8003c26 <USB_ActivateEndpoint+0x82>
 8003c0c:	581a      	ldr	r2, [r3, r0]
 8003c0e:	688c      	ldr	r4, [r1, #8]
 8003c10:	f042 5280 	orr.w	r2, r2, #268435456	; 0x10000000
 8003c14:	f3c4 040a 	ubfx	r4, r4, #0, #11
 8003c18:	f442 4200 	orr.w	r2, r2, #32768	; 0x8000
 8003c1c:	4322      	orrs	r2, r4
 8003c1e:	78cc      	ldrb	r4, [r1, #3]
 8003c20:	ea42 4284 	orr.w	r2, r2, r4, lsl #18
 8003c24:	501a      	str	r2, [r3, r0]
 8003c26:	2000      	movs	r0, #0
 8003c28:	bd30      	pop	{r4, r5, pc}

08003c2a <USB_EP0StartXfer>:
 8003c2a:	784b      	ldrb	r3, [r1, #1]
 8003c2c:	2b01      	cmp	r3, #1
 8003c2e:	b5f0      	push	{r4, r5, r6, r7, lr}
 8003c30:	694d      	ldr	r5, [r1, #20]
 8003c32:	780e      	ldrb	r6, [r1, #0]
 8003c34:	d161      	bne.n	8003cfa <USB_EP0StartXfer+0xd0>
 8003c36:	2420      	movs	r4, #32
 8003c38:	f44f 6310 	mov.w	r3, #2304	; 0x900
 8003c3c:	fb14 3606 	smlabb	r6, r4, r6, r3
 8003c40:	4406      	add	r6, r0
 8003c42:	b9b5      	cbnz	r5, 8003c72 <USB_EP0StartXfer+0x48>
 8003c44:	6935      	ldr	r5, [r6, #16]
 8003c46:	f025 55ff 	bic.w	r5, r5, #534773760	; 0x1fe00000
 8003c4a:	f425 15c0 	bic.w	r5, r5, #1572864	; 0x180000
 8003c4e:	6135      	str	r5, [r6, #16]
 8003c50:	780d      	ldrb	r5, [r1, #0]
 8003c52:	fb14 3505 	smlabb	r5, r4, r5, r3
 8003c56:	4405      	add	r5, r0
 8003c58:	692e      	ldr	r6, [r5, #16]
 8003c5a:	f446 2600 	orr.w	r6, r6, #524288	; 0x80000
 8003c5e:	612e      	str	r6, [r5, #16]
 8003c60:	780d      	ldrb	r5, [r1, #0]
 8003c62:	fb14 3305 	smlabb	r3, r4, r5, r3
 8003c66:	4403      	add	r3, r0
 8003c68:	691d      	ldr	r5, [r3, #16]
 8003c6a:	0ced      	lsrs	r5, r5, #19
 8003c6c:	04ed      	lsls	r5, r5, #19
 8003c6e:	611d      	str	r5, [r3, #16]
 8003c70:	e026      	b.n	8003cc0 <USB_EP0StartXfer+0x96>
 8003c72:	6937      	ldr	r7, [r6, #16]
 8003c74:	0cff      	lsrs	r7, r7, #19
 8003c76:	04ff      	lsls	r7, r7, #19
 8003c78:	6137      	str	r7, [r6, #16]
 8003c7a:	780e      	ldrb	r6, [r1, #0]
 8003c7c:	fb14 3306 	smlabb	r3, r4, r6, r3
 8003c80:	4403      	add	r3, r0
 8003c82:	f44f 6410 	mov.w	r4, #2304	; 0x900
 8003c86:	691e      	ldr	r6, [r3, #16]
 8003c88:	f026 56ff 	bic.w	r6, r6, #534773760	; 0x1fe00000
 8003c8c:	f426 16c0 	bic.w	r6, r6, #1572864	; 0x180000
 8003c90:	611e      	str	r6, [r3, #16]
 8003c92:	688b      	ldr	r3, [r1, #8]
 8003c94:	429d      	cmp	r5, r3
 8003c96:	780d      	ldrb	r5, [r1, #0]
 8003c98:	bf88      	it	hi
 8003c9a:	614b      	strhi	r3, [r1, #20]
 8003c9c:	2320      	movs	r3, #32
 8003c9e:	fb13 4505 	smlabb	r5, r3, r5, r4
 8003ca2:	4405      	add	r5, r0
 8003ca4:	692e      	ldr	r6, [r5, #16]
 8003ca6:	f446 2600 	orr.w	r6, r6, #524288	; 0x80000
 8003caa:	612e      	str	r6, [r5, #16]
 8003cac:	780d      	ldrb	r5, [r1, #0]
 8003cae:	fb13 4305 	smlabb	r3, r3, r5, r4
 8003cb2:	4403      	add	r3, r0
 8003cb4:	694c      	ldr	r4, [r1, #20]
 8003cb6:	691d      	ldr	r5, [r3, #16]
 8003cb8:	f3c4 0412 	ubfx	r4, r4, #0, #19
 8003cbc:	432c      	orrs	r4, r5
 8003cbe:	611c      	str	r4, [r3, #16]
 8003cc0:	2a01      	cmp	r2, #1
 8003cc2:	780a      	ldrb	r2, [r1, #0]
 8003cc4:	d105      	bne.n	8003cd2 <USB_EP0StartXfer+0xa8>
 8003cc6:	eb00 1242 	add.w	r2, r0, r2, lsl #5
 8003cca:	690b      	ldr	r3, [r1, #16]
 8003ccc:	f8c2 3914 	str.w	r3, [r2, #2324]	; 0x914
 8003cd0:	e009      	b.n	8003ce6 <USB_EP0StartXfer+0xbc>
 8003cd2:	694b      	ldr	r3, [r1, #20]
 8003cd4:	b13b      	cbz	r3, 8003ce6 <USB_EP0StartXfer+0xbc>
 8003cd6:	f8d0 4834 	ldr.w	r4, [r0, #2100]	; 0x834
 8003cda:	2501      	movs	r5, #1
 8003cdc:	fa05 f202 	lsl.w	r2, r5, r2
 8003ce0:	4322      	orrs	r2, r4
 8003ce2:	f8c0 2834 	str.w	r2, [r0, #2100]	; 0x834
 8003ce6:	780a      	ldrb	r2, [r1, #0]
 8003ce8:	f44f 6310 	mov.w	r3, #2304	; 0x900
 8003cec:	eb03 1342 	add.w	r3, r3, r2, lsl #5
 8003cf0:	58c2      	ldr	r2, [r0, r3]
 8003cf2:	f042 4204 	orr.w	r2, r2, #2214592512	; 0x84000000
 8003cf6:	50c2      	str	r2, [r0, r3]
 8003cf8:	e03d      	b.n	8003d76 <USB_EP0StartXfer+0x14c>
 8003cfa:	2320      	movs	r3, #32
 8003cfc:	f44f 6730 	mov.w	r7, #2816	; 0xb00
 8003d00:	fb13 7606 	smlabb	r6, r3, r6, r7
 8003d04:	4406      	add	r6, r0
 8003d06:	6934      	ldr	r4, [r6, #16]
 8003d08:	0ce4      	lsrs	r4, r4, #19
 8003d0a:	04e4      	lsls	r4, r4, #19
 8003d0c:	6134      	str	r4, [r6, #16]
 8003d0e:	780e      	ldrb	r6, [r1, #0]
 8003d10:	fb13 7606 	smlabb	r6, r3, r6, r7
 8003d14:	4406      	add	r6, r0
 8003d16:	6934      	ldr	r4, [r6, #16]
 8003d18:	f024 54ff 	bic.w	r4, r4, #534773760	; 0x1fe00000
 8003d1c:	f424 14c0 	bic.w	r4, r4, #1572864	; 0x180000
 8003d20:	6134      	str	r4, [r6, #16]
 8003d22:	461c      	mov	r4, r3
 8003d24:	688e      	ldr	r6, [r1, #8]
 8003d26:	b105      	cbz	r5, 8003d2a <USB_EP0StartXfer+0x100>
 8003d28:	614e      	str	r6, [r1, #20]
 8003d2a:	780d      	ldrb	r5, [r1, #0]
 8003d2c:	f44f 6330 	mov.w	r3, #2816	; 0xb00
 8003d30:	fb14 3505 	smlabb	r5, r4, r5, r3
 8003d34:	4405      	add	r5, r0
 8003d36:	f3c6 0612 	ubfx	r6, r6, #0, #19
 8003d3a:	692f      	ldr	r7, [r5, #16]
 8003d3c:	f447 2700 	orr.w	r7, r7, #524288	; 0x80000
 8003d40:	612f      	str	r7, [r5, #16]
 8003d42:	780d      	ldrb	r5, [r1, #0]
 8003d44:	fb14 3405 	smlabb	r4, r4, r5, r3
 8003d48:	4404      	add	r4, r0
 8003d4a:	2a01      	cmp	r2, #1
 8003d4c:	6925      	ldr	r5, [r4, #16]
 8003d4e:	ea46 0605 	orr.w	r6, r6, r5
 8003d52:	6126      	str	r6, [r4, #16]
 8003d54:	d106      	bne.n	8003d64 <USB_EP0StartXfer+0x13a>
 8003d56:	780a      	ldrb	r2, [r1, #0]
 8003d58:	2420      	movs	r4, #32
 8003d5a:	fb14 3302 	smlabb	r3, r4, r2, r3
 8003d5e:	4403      	add	r3, r0
 8003d60:	68ca      	ldr	r2, [r1, #12]
 8003d62:	615a      	str	r2, [r3, #20]
 8003d64:	780a      	ldrb	r2, [r1, #0]
 8003d66:	f44f 6330 	mov.w	r3, #2816	; 0xb00
 8003d6a:	eb03 1342 	add.w	r3, r3, r2, lsl #5
 8003d6e:	58c2      	ldr	r2, [r0, r3]
 8003d70:	f042 4204 	orr.w	r2, r2, #2214592512	; 0x84000000
 8003d74:	50c2      	str	r2, [r0, r3]
 8003d76:	2000      	movs	r0, #0
 8003d78:	bdf0      	pop	{r4, r5, r6, r7, pc}

08003d7a <USB_WritePacket>:
 8003d7a:	b530      	push	{r4, r5, lr}
 8003d7c:	f89d 400c 	ldrb.w	r4, [sp, #12]
 8003d80:	b964      	cbnz	r4, 8003d9c <USB_WritePacket+0x22>
 8003d82:	3303      	adds	r3, #3
 8003d84:	eb00 3202 	add.w	r2, r0, r2, lsl #12
 8003d88:	109b      	asrs	r3, r3, #2
 8003d8a:	f502 5280 	add.w	r2, r2, #4096	; 0x1000
 8003d8e:	429c      	cmp	r4, r3
 8003d90:	d004      	beq.n	8003d9c <USB_WritePacket+0x22>
 8003d92:	f851 5024 	ldr.w	r5, [r1, r4, lsl #2]
 8003d96:	6015      	str	r5, [r2, #0]
 8003d98:	3401      	adds	r4, #1
 8003d9a:	e7f8      	b.n	8003d8e <USB_WritePacket+0x14>
 8003d9c:	2000      	movs	r0, #0
 8003d9e:	bd30      	pop	{r4, r5, pc}

08003da0 <USB_EPStartXfer>:
 8003da0:	e92d 43f7 	stmdb	sp!, {r0, r1, r2, r4, r5, r6, r7, r8, r9, lr}
 8003da4:	784b      	ldrb	r3, [r1, #1]
 8003da6:	780e      	ldrb	r6, [r1, #0]
 8003da8:	2b01      	cmp	r3, #1
 8003daa:	f04f 0520 	mov.w	r5, #32
 8003dae:	694b      	ldr	r3, [r1, #20]
 8003db0:	f040 809a 	bne.w	8003ee8 <USB_EPStartXfer+0x148>
 8003db4:	f44f 6410 	mov.w	r4, #2304	; 0x900
 8003db8:	fb15 4606 	smlabb	r6, r5, r6, r4
 8003dbc:	4406      	add	r6, r0
 8003dbe:	6937      	ldr	r7, [r6, #16]
 8003dc0:	b9ab      	cbnz	r3, 8003dee <USB_EPStartXfer+0x4e>
 8003dc2:	f027 57ff 	bic.w	r7, r7, #534773760	; 0x1fe00000
 8003dc6:	f427 17c0 	bic.w	r7, r7, #1572864	; 0x180000
 8003dca:	6137      	str	r7, [r6, #16]
 8003dcc:	780e      	ldrb	r6, [r1, #0]
 8003dce:	fb15 4606 	smlabb	r6, r5, r6, r4
 8003dd2:	4406      	add	r6, r0
 8003dd4:	6937      	ldr	r7, [r6, #16]
 8003dd6:	f447 2700 	orr.w	r7, r7, #524288	; 0x80000
 8003dda:	6137      	str	r7, [r6, #16]
 8003ddc:	780e      	ldrb	r6, [r1, #0]
 8003dde:	fb15 4406 	smlabb	r4, r5, r6, r4
 8003de2:	4404      	add	r4, r0
 8003de4:	6926      	ldr	r6, [r4, #16]
 8003de6:	0cf6      	lsrs	r6, r6, #19
 8003de8:	04f6      	lsls	r6, r6, #19
 8003dea:	6126      	str	r6, [r4, #16]
 8003dec:	e03e      	b.n	8003e6c <USB_EPStartXfer+0xcc>
 8003dee:	0cff      	lsrs	r7, r7, #19
 8003df0:	04ff      	lsls	r7, r7, #19
 8003df2:	6137      	str	r7, [r6, #16]
 8003df4:	780f      	ldrb	r7, [r1, #0]
 8003df6:	fb15 4707 	smlabb	r7, r5, r7, r4
 8003dfa:	4407      	add	r7, r0
 8003dfc:	693e      	ldr	r6, [r7, #16]
 8003dfe:	f026 56ff 	bic.w	r6, r6, #534773760	; 0x1fe00000
 8003e02:	f426 16c0 	bic.w	r6, r6, #1572864	; 0x180000
 8003e06:	613e      	str	r6, [r7, #16]
 8003e08:	688e      	ldr	r6, [r1, #8]
 8003e0a:	780f      	ldrb	r7, [r1, #0]
 8003e0c:	eb03 0806 	add.w	r8, r3, r6
 8003e10:	f108 38ff 	add.w	r8, r8, #4294967295
 8003e14:	fb15 4707 	smlabb	r7, r5, r7, r4
 8003e18:	4407      	add	r7, r0
 8003e1a:	fbb8 f6f6 	udiv	r6, r8, r6
 8003e1e:	ea4f 48c6 	mov.w	r8, r6, lsl #19
 8003e22:	4e68      	ldr	r6, [pc, #416]	; (8003fc4 <USB_EPStartXfer+0x224>)
 8003e24:	f8d7 c010 	ldr.w	ip, [r7, #16]
 8003e28:	ea08 0606 	and.w	r6, r8, r6
 8003e2c:	ea46 060c 	orr.w	r6, r6, ip
 8003e30:	613e      	str	r6, [r7, #16]
 8003e32:	780e      	ldrb	r6, [r1, #0]
 8003e34:	fb15 4606 	smlabb	r6, r5, r6, r4
 8003e38:	4406      	add	r6, r0
 8003e3a:	f3c3 0c12 	ubfx	ip, r3, #0, #19
 8003e3e:	6937      	ldr	r7, [r6, #16]
 8003e40:	ea4c 0707 	orr.w	r7, ip, r7
 8003e44:	6137      	str	r7, [r6, #16]
 8003e46:	78ce      	ldrb	r6, [r1, #3]
 8003e48:	2e01      	cmp	r6, #1
 8003e4a:	d10f      	bne.n	8003e6c <USB_EPStartXfer+0xcc>
 8003e4c:	780e      	ldrb	r6, [r1, #0]
 8003e4e:	fb15 4606 	smlabb	r6, r5, r6, r4
 8003e52:	4406      	add	r6, r0
 8003e54:	6937      	ldr	r7, [r6, #16]
 8003e56:	f027 47c0 	bic.w	r7, r7, #1610612736	; 0x60000000
 8003e5a:	6137      	str	r7, [r6, #16]
 8003e5c:	780e      	ldrb	r6, [r1, #0]
 8003e5e:	fb15 4406 	smlabb	r4, r5, r6, r4
 8003e62:	4404      	add	r4, r0
 8003e64:	6925      	ldr	r5, [r4, #16]
 8003e66:	f045 5500 	orr.w	r5, r5, #536870912	; 0x20000000
 8003e6a:	6125      	str	r5, [r4, #16]
 8003e6c:	2a01      	cmp	r2, #1
 8003e6e:	780d      	ldrb	r5, [r1, #0]
 8003e70:	d105      	bne.n	8003e7e <USB_EPStartXfer+0xde>
 8003e72:	eb00 1545 	add.w	r5, r0, r5, lsl #5
 8003e76:	690c      	ldr	r4, [r1, #16]
 8003e78:	f8c5 4914 	str.w	r4, [r5, #2324]	; 0x914
 8003e7c:	e00b      	b.n	8003e96 <USB_EPStartXfer+0xf6>
 8003e7e:	78cc      	ldrb	r4, [r1, #3]
 8003e80:	2c01      	cmp	r4, #1
 8003e82:	d008      	beq.n	8003e96 <USB_EPStartXfer+0xf6>
 8003e84:	b13b      	cbz	r3, 8003e96 <USB_EPStartXfer+0xf6>
 8003e86:	f8d0 6834 	ldr.w	r6, [r0, #2100]	; 0x834
 8003e8a:	2701      	movs	r7, #1
 8003e8c:	fa07 f505 	lsl.w	r5, r7, r5
 8003e90:	4335      	orrs	r5, r6
 8003e92:	f8c0 5834 	str.w	r5, [r0, #2100]	; 0x834
 8003e96:	78cc      	ldrb	r4, [r1, #3]
 8003e98:	2c01      	cmp	r4, #1
 8003e9a:	d111      	bne.n	8003ec0 <USB_EPStartXfer+0x120>
 8003e9c:	f8d0 4808 	ldr.w	r4, [r0, #2056]	; 0x808
 8003ea0:	f414 7f80 	tst.w	r4, #256	; 0x100
 8003ea4:	780c      	ldrb	r4, [r1, #0]
 8003ea6:	f44f 6510 	mov.w	r5, #2304	; 0x900
 8003eaa:	f04f 0620 	mov.w	r6, #32
 8003eae:	fb16 5404 	smlabb	r4, r6, r4, r5
 8003eb2:	5825      	ldr	r5, [r4, r0]
 8003eb4:	bf0c      	ite	eq
 8003eb6:	f045 5500 	orreq.w	r5, r5, #536870912	; 0x20000000
 8003eba:	f045 5580 	orrne.w	r5, r5, #268435456	; 0x10000000
 8003ebe:	5025      	str	r5, [r4, r0]
 8003ec0:	780d      	ldrb	r5, [r1, #0]
 8003ec2:	f44f 6410 	mov.w	r4, #2304	; 0x900
 8003ec6:	eb04 1445 	add.w	r4, r4, r5, lsl #5
 8003eca:	5905      	ldr	r5, [r0, r4]
 8003ecc:	f045 4504 	orr.w	r5, r5, #2214592512	; 0x84000000
 8003ed0:	5105      	str	r5, [r0, r4]
 8003ed2:	78cc      	ldrb	r4, [r1, #3]
 8003ed4:	2c01      	cmp	r4, #1
 8003ed6:	d171      	bne.n	8003fbc <USB_EPStartXfer+0x21c>
 8003ed8:	780c      	ldrb	r4, [r1, #0]
 8003eda:	9200      	str	r2, [sp, #0]
 8003edc:	68c9      	ldr	r1, [r1, #12]
 8003ede:	4622      	mov	r2, r4
 8003ee0:	b29b      	uxth	r3, r3
 8003ee2:	f7ff ff4a 	bl	8003d7a <USB_WritePacket>
 8003ee6:	e069      	b.n	8003fbc <USB_EPStartXfer+0x21c>
 8003ee8:	f44f 6430 	mov.w	r4, #2816	; 0xb00
 8003eec:	fb15 4606 	smlabb	r6, r5, r6, r4
 8003ef0:	1987      	adds	r7, r0, r6
 8003ef2:	693e      	ldr	r6, [r7, #16]
 8003ef4:	0cf6      	lsrs	r6, r6, #19
 8003ef6:	04f6      	lsls	r6, r6, #19
 8003ef8:	613e      	str	r6, [r7, #16]
 8003efa:	780f      	ldrb	r7, [r1, #0]
 8003efc:	fb15 4707 	smlabb	r7, r5, r7, r4
 8003f00:	4407      	add	r7, r0
 8003f02:	693e      	ldr	r6, [r7, #16]
 8003f04:	f026 56ff 	bic.w	r6, r6, #534773760	; 0x1fe00000
 8003f08:	f426 16c0 	bic.w	r6, r6, #1572864	; 0x180000
 8003f0c:	613e      	str	r6, [r7, #16]
 8003f0e:	f891 c000 	ldrb.w	ip, [r1]
 8003f12:	688e      	ldr	r6, [r1, #8]
 8003f14:	fb15 4c0c 	smlabb	ip, r5, ip, r4
 8003f18:	b97b      	cbnz	r3, 8003f3a <USB_EPStartXfer+0x19a>
 8003f1a:	eb00 030c 	add.w	r3, r0, ip
 8003f1e:	f3c6 0612 	ubfx	r6, r6, #0, #19
 8003f22:	691f      	ldr	r7, [r3, #16]
 8003f24:	433e      	orrs	r6, r7
 8003f26:	611e      	str	r6, [r3, #16]
 8003f28:	780b      	ldrb	r3, [r1, #0]
 8003f2a:	fb15 4403 	smlabb	r4, r5, r3, r4
 8003f2e:	4404      	add	r4, r0
 8003f30:	6923      	ldr	r3, [r4, #16]
 8003f32:	f443 2300 	orr.w	r3, r3, #524288	; 0x80000
 8003f36:	6123      	str	r3, [r4, #16]
 8003f38:	e01a      	b.n	8003f70 <USB_EPStartXfer+0x1d0>
 8003f3a:	4433      	add	r3, r6
 8003f3c:	3b01      	subs	r3, #1
 8003f3e:	4484      	add	ip, r0
 8003f40:	fbb3 f3f6 	udiv	r3, r3, r6
 8003f44:	b29b      	uxth	r3, r3
 8003f46:	4f1f      	ldr	r7, [pc, #124]	; (8003fc4 <USB_EPStartXfer+0x224>)
 8003f48:	f8dc 8010 	ldr.w	r8, [ip, #16]
 8003f4c:	ea4f 49c3 	mov.w	r9, r3, lsl #19
 8003f50:	ea09 0707 	and.w	r7, r9, r7
 8003f54:	ea47 0708 	orr.w	r7, r7, r8
 8003f58:	f8cc 7010 	str.w	r7, [ip, #16]
 8003f5c:	780f      	ldrb	r7, [r1, #0]
 8003f5e:	fb15 4407 	smlabb	r4, r5, r7, r4
 8003f62:	4404      	add	r4, r0
 8003f64:	4373      	muls	r3, r6
 8003f66:	6925      	ldr	r5, [r4, #16]
 8003f68:	f3c3 0312 	ubfx	r3, r3, #0, #19
 8003f6c:	432b      	orrs	r3, r5
 8003f6e:	6123      	str	r3, [r4, #16]
 8003f70:	2a01      	cmp	r2, #1
 8003f72:	d105      	bne.n	8003f80 <USB_EPStartXfer+0x1e0>
 8003f74:	780a      	ldrb	r2, [r1, #0]
 8003f76:	68cb      	ldr	r3, [r1, #12]
 8003f78:	eb00 1242 	add.w	r2, r0, r2, lsl #5
 8003f7c:	f8c2 3b14 	str.w	r3, [r2, #2836]	; 0xb14
 8003f80:	78cb      	ldrb	r3, [r1, #3]
 8003f82:	2b01      	cmp	r3, #1
 8003f84:	d111      	bne.n	8003faa <USB_EPStartXfer+0x20a>
 8003f86:	f8d0 3808 	ldr.w	r3, [r0, #2056]	; 0x808
 8003f8a:	f413 7f80 	tst.w	r3, #256	; 0x100
 8003f8e:	780b      	ldrb	r3, [r1, #0]
 8003f90:	f44f 6230 	mov.w	r2, #2816	; 0xb00
 8003f94:	f04f 0420 	mov.w	r4, #32
 8003f98:	fb14 2303 	smlabb	r3, r4, r3, r2
 8003f9c:	58c2      	ldr	r2, [r0, r3]
 8003f9e:	bf0c      	ite	eq
 8003fa0:	f042 5200 	orreq.w	r2, r2, #536870912	; 0x20000000
 8003fa4:	f042 5280 	orrne.w	r2, r2, #268435456	; 0x10000000
 8003fa8:	50c2      	str	r2, [r0, r3]
 8003faa:	780a      	ldrb	r2, [r1, #0]
 8003fac:	f44f 6330 	mov.w	r3, #2816	; 0xb00
 8003fb0:	eb03 1342 	add.w	r3, r3, r2, lsl #5
 8003fb4:	58c2      	ldr	r2, [r0, r3]
 8003fb6:	f042 4204 	orr.w	r2, r2, #2214592512	; 0x84000000
 8003fba:	50c2      	str	r2, [r0, r3]
 8003fbc:	2000      	movs	r0, #0
 8003fbe:	b003      	add	sp, #12
 8003fc0:	e8bd 83f0 	ldmia.w	sp!, {r4, r5, r6, r7, r8, r9, pc}
 8003fc4:	1ff80000 	.word	0x1ff80000

08003fc8 <USB_ReadPacket>:
 8003fc8:	b510      	push	{r4, lr}
 8003fca:	3203      	adds	r2, #3
 8003fcc:	1092      	asrs	r2, r2, #2
 8003fce:	2300      	movs	r3, #0
 8003fd0:	4293      	cmp	r3, r2
 8003fd2:	ea4f 0483 	mov.w	r4, r3, lsl #2
 8003fd6:	d006      	beq.n	8003fe6 <USB_ReadPacket+0x1e>
 8003fd8:	f500 5480 	add.w	r4, r0, #4096	; 0x1000
 8003fdc:	6824      	ldr	r4, [r4, #0]
 8003fde:	f841 4023 	str.w	r4, [r1, r3, lsl #2]
 8003fe2:	3301      	adds	r3, #1
 8003fe4:	e7f4      	b.n	8003fd0 <USB_ReadPacket+0x8>
 8003fe6:	1908      	adds	r0, r1, r4
 8003fe8:	bd10      	pop	{r4, pc}

08003fea <USB_EPSetStall>:
 8003fea:	784b      	ldrb	r3, [r1, #1]
 8003fec:	780a      	ldrb	r2, [r1, #0]
 8003fee:	2b01      	cmp	r3, #1
 8003ff0:	b510      	push	{r4, lr}
 8003ff2:	f04f 0320 	mov.w	r3, #32
 8003ff6:	d114      	bne.n	8004022 <USB_EPSetStall+0x38>
 8003ff8:	f44f 6410 	mov.w	r4, #2304	; 0x900
 8003ffc:	fb13 4302 	smlabb	r3, r3, r2, r4
 8004000:	58c2      	ldr	r2, [r0, r3]
 8004002:	2a00      	cmp	r2, #0
 8004004:	db03      	blt.n	800400e <USB_EPSetStall+0x24>
 8004006:	58c2      	ldr	r2, [r0, r3]
 8004008:	f022 4280 	bic.w	r2, r2, #1073741824	; 0x40000000
 800400c:	50c2      	str	r2, [r0, r3]
 800400e:	780a      	ldrb	r2, [r1, #0]
 8004010:	f44f 6310 	mov.w	r3, #2304	; 0x900
 8004014:	eb03 1342 	add.w	r3, r3, r2, lsl #5
 8004018:	58c2      	ldr	r2, [r0, r3]
 800401a:	f442 1200 	orr.w	r2, r2, #2097152	; 0x200000
 800401e:	50c2      	str	r2, [r0, r3]
 8004020:	e013      	b.n	800404a <USB_EPSetStall+0x60>
 8004022:	f44f 6430 	mov.w	r4, #2816	; 0xb00
 8004026:	fb13 4302 	smlabb	r3, r3, r2, r4
 800402a:	58c2      	ldr	r2, [r0, r3]
 800402c:	2a00      	cmp	r2, #0
 800402e:	db03      	blt.n	8004038 <USB_EPSetStall+0x4e>
 8004030:	58c2      	ldr	r2, [r0, r3]
 8004032:	f022 4280 	bic.w	r2, r2, #1073741824	; 0x40000000
 8004036:	50c2      	str	r2, [r0, r3]
 8004038:	780a      	ldrb	r2, [r1, #0]
 800403a:	f44f 6330 	mov.w	r3, #2816	; 0xb00
 800403e:	eb03 1342 	add.w	r3, r3, r2, lsl #5
 8004042:	58c2      	ldr	r2, [r0, r3]
 8004044:	f442 1200 	orr.w	r2, r2, #2097152	; 0x200000
 8004048:	50c2      	str	r2, [r0, r3]
 800404a:	2000      	movs	r0, #0
 800404c:	bd10      	pop	{r4, pc}

0800404e <USB_EPClearStall>:
 800404e:	b530      	push	{r4, r5, lr}
 8004050:	784b      	ldrb	r3, [r1, #1]
 8004052:	780c      	ldrb	r4, [r1, #0]
 8004054:	2b01      	cmp	r3, #1
 8004056:	bf0c      	ite	eq
 8004058:	f44f 6210 	moveq.w	r2, #2304	; 0x900
 800405c:	f44f 6230 	movne.w	r2, #2816	; 0xb00
 8004060:	2320      	movs	r3, #32
 8004062:	fb13 2404 	smlabb	r4, r3, r4, r2
 8004066:	5825      	ldr	r5, [r4, r0]
 8004068:	f425 1500 	bic.w	r5, r5, #2097152	; 0x200000
 800406c:	5025      	str	r5, [r4, r0]
 800406e:	78cc      	ldrb	r4, [r1, #3]
 8004070:	3c02      	subs	r4, #2
 8004072:	2c01      	cmp	r4, #1
 8004074:	d806      	bhi.n	8004084 <USB_EPClearStall+0x36>
 8004076:	7809      	ldrb	r1, [r1, #0]
 8004078:	fb13 2301 	smlabb	r3, r3, r1, r2
 800407c:	581a      	ldr	r2, [r3, r0]
 800407e:	f042 5280 	orr.w	r2, r2, #268435456	; 0x10000000
 8004082:	501a      	str	r2, [r3, r0]
 8004084:	2000      	movs	r0, #0
 8004086:	bd30      	pop	{r4, r5, pc}

08004088 <USB_SetDevAddress>:
 8004088:	f8d0 3800 	ldr.w	r3, [r0, #2048]	; 0x800
 800408c:	f423 63fe 	bic.w	r3, r3, #2032	; 0x7f0
 8004090:	f8c0 3800 	str.w	r3, [r0, #2048]	; 0x800
 8004094:	f8d0 3800 	ldr.w	r3, [r0, #2048]	; 0x800
 8004098:	0109      	lsls	r1, r1, #4
 800409a:	f401 61fe 	and.w	r1, r1, #2032	; 0x7f0
 800409e:	430b      	orrs	r3, r1
 80040a0:	f8c0 3800 	str.w	r3, [r0, #2048]	; 0x800
 80040a4:	2000      	movs	r0, #0
 80040a6:	4770      	bx	lr

080040a8 <USB_ReadInterrupts>:
 80040a8:	6943      	ldr	r3, [r0, #20]
 80040aa:	6980      	ldr	r0, [r0, #24]
 80040ac:	4018      	ands	r0, r3
 80040ae:	4770      	bx	lr

080040b0 <USB_ReadDevAllOutEpInterrupt>:
 80040b0:	f8d0 3818 	ldr.w	r3, [r0, #2072]	; 0x818
 80040b4:	f500 6000 	add.w	r0, r0, #2048	; 0x800
 80040b8:	69c0      	ldr	r0, [r0, #28]
 80040ba:	4018      	ands	r0, r3
 80040bc:	0c00      	lsrs	r0, r0, #16
 80040be:	4770      	bx	lr

080040c0 <USB_ReadDevAllInEpInterrupt>:
 80040c0:	f8d0 2818 	ldr.w	r2, [r0, #2072]	; 0x818
 80040c4:	f8d0 381c 	ldr.w	r3, [r0, #2076]	; 0x81c
 80040c8:	ea02 0003 	and.w	r0, r2, r3
 80040cc:	b280      	uxth	r0, r0
 80040ce:	4770      	bx	lr

080040d0 <USB_ReadDevOutEPInterrupt>:
 80040d0:	eb00 1141 	add.w	r1, r0, r1, lsl #5
 80040d4:	f500 6000 	add.w	r0, r0, #2048	; 0x800
 80040d8:	f8d1 3b08 	ldr.w	r3, [r1, #2824]	; 0xb08
 80040dc:	6940      	ldr	r0, [r0, #20]
 80040de:	4018      	ands	r0, r3
 80040e0:	4770      	bx	lr

080040e2 <USB_ReadDevInEPInterrupt>:
 80040e2:	f8d0 2810 	ldr.w	r2, [r0, #2064]	; 0x810
 80040e6:	b510      	push	{r4, lr}
 80040e8:	f8d0 4834 	ldr.w	r4, [r0, #2100]	; 0x834
 80040ec:	eb00 1041 	add.w	r0, r0, r1, lsl #5
 80040f0:	f8d0 3908 	ldr.w	r3, [r0, #2312]	; 0x908
 80040f4:	fa24 f001 	lsr.w	r0, r4, r1
 80040f8:	01c0      	lsls	r0, r0, #7
 80040fa:	b2c0      	uxtb	r0, r0
 80040fc:	4310      	orrs	r0, r2
 80040fe:	4018      	ands	r0, r3
 8004100:	bd10      	pop	{r4, pc}

08004102 <USB_GetMode>:
 8004102:	6940      	ldr	r0, [r0, #20]
 8004104:	f000 0001 	and.w	r0, r0, #1
 8004108:	4770      	bx	lr

0800410a <USB_ActivateSetup>:
 800410a:	f8d0 3900 	ldr.w	r3, [r0, #2304]	; 0x900
 800410e:	f423 63ff 	bic.w	r3, r3, #2040	; 0x7f8
 8004112:	f023 0307 	bic.w	r3, r3, #7
 8004116:	f8c0 3900 	str.w	r3, [r0, #2304]	; 0x900
 800411a:	f500 6300 	add.w	r3, r0, #2048	; 0x800
 800411e:	689a      	ldr	r2, [r3, #8]
 8004120:	f002 0206 	and.w	r2, r2, #6
 8004124:	2a04      	cmp	r2, #4
 8004126:	d105      	bne.n	8004134 <USB_ActivateSetup+0x2a>
 8004128:	f8d0 2900 	ldr.w	r2, [r0, #2304]	; 0x900
 800412c:	f042 0203 	orr.w	r2, r2, #3
 8004130:	f8c0 2900 	str.w	r2, [r0, #2304]	; 0x900
 8004134:	685a      	ldr	r2, [r3, #4]
 8004136:	f442 7280 	orr.w	r2, r2, #256	; 0x100
 800413a:	605a      	str	r2, [r3, #4]
 800413c:	2000      	movs	r0, #0
 800413e:	4770      	bx	lr

08004140 <USB_EP0_OutStart>:
 8004140:	b510      	push	{r4, lr}
 8004142:	2400      	movs	r4, #0
 8004144:	f8c0 4b10 	str.w	r4, [r0, #2832]	; 0xb10
 8004148:	f8d0 4b10 	ldr.w	r4, [r0, #2832]	; 0xb10
 800414c:	f444 2400 	orr.w	r4, r4, #524288	; 0x80000
 8004150:	f8c0 4b10 	str.w	r4, [r0, #2832]	; 0xb10
 8004154:	f8d0 4b10 	ldr.w	r4, [r0, #2832]	; 0xb10
 8004158:	f044 0418 	orr.w	r4, r4, #24
 800415c:	f8c0 4b10 	str.w	r4, [r0, #2832]	; 0xb10
 8004160:	f8d0 4b10 	ldr.w	r4, [r0, #2832]	; 0xb10
 8004164:	2901      	cmp	r1, #1
 8004166:	f044 44c0 	orr.w	r4, r4, #1610612736	; 0x60000000
 800416a:	f8c0 4b10 	str.w	r4, [r0, #2832]	; 0xb10
 800416e:	d105      	bne.n	800417c <USB_EP0_OutStart+0x3c>
 8004170:	f04f 2380 	mov.w	r3, #2147516416	; 0x80008000
 8004174:	f8c0 2b14 	str.w	r2, [r0, #2836]	; 0xb14
 8004178:	f8c0 3b00 	str.w	r3, [r0, #2816]	; 0xb00
 800417c:	2000      	movs	r0, #0
 800417e:	bd10      	pop	{r4, pc}

08004180 <USBD_SetClassConfig>:
 8004180:	b508      	push	{r3, lr}
 8004182:	f8d0 3214 	ldr.w	r3, [r0, #532]	; 0x214
 8004186:	b90b      	cbnz	r3, 800418c <USBD_SetClassConfig+0xc>
 8004188:	2002      	movs	r0, #2
 800418a:	bd08      	pop	{r3, pc}
 800418c:	681b      	ldr	r3, [r3, #0]
 800418e:	4798      	blx	r3
 8004190:	2800      	cmp	r0, #0
 8004192:	d1f9      	bne.n	8004188 <USBD_SetClassConfig+0x8>
 8004194:	bd08      	pop	{r3, pc}

08004196 <USBD_ClrClassConfig>:
 8004196:	b508      	push	{r3, lr}
 8004198:	f8d0 3214 	ldr.w	r3, [r0, #532]	; 0x214
 800419c:	685b      	ldr	r3, [r3, #4]
 800419e:	4798      	blx	r3
 80041a0:	2000      	movs	r0, #0
 80041a2:	bd08      	pop	{r3, pc}

080041a4 <USBD_LL_SetupStage>:
 80041a4:	b538      	push	{r3, r4, r5, lr}
 80041a6:	4604      	mov	r4, r0
 80041a8:	f500 7502 	add.w	r5, r0, #520	; 0x208
 80041ac:	4628      	mov	r0, r5
 80041ae:	f000 f8f2 	bl	8004396 <USBD_ParseSetupRequest>
 80041b2:	2301      	movs	r3, #1
 80041b4:	f894 1208 	ldrb.w	r1, [r4, #520]	; 0x208
 80041b8:	f8c4 31f4 	str.w	r3, [r4, #500]	; 0x1f4
 80041bc:	f8b4 320e 	ldrh.w	r3, [r4, #526]	; 0x20e
 80041c0:	f8c4 31f8 	str.w	r3, [r4, #504]	; 0x1f8
 80041c4:	f001 031f 	and.w	r3, r1, #31
 80041c8:	2b01      	cmp	r3, #1
 80041ca:	d00c      	beq.n	80041e6 <USBD_LL_SetupStage+0x42>
 80041cc:	d306      	bcc.n	80041dc <USBD_LL_SetupStage+0x38>
 80041ce:	2b02      	cmp	r3, #2
 80041d0:	d10e      	bne.n	80041f0 <USBD_LL_SetupStage+0x4c>
 80041d2:	4620      	mov	r0, r4
 80041d4:	4629      	mov	r1, r5
 80041d6:	f000 fa21 	bl	800461c <USBD_StdEPReq>
 80041da:	e00e      	b.n	80041fa <USBD_LL_SetupStage+0x56>
 80041dc:	4620      	mov	r0, r4
 80041de:	4629      	mov	r1, r5
 80041e0:	f000 f8f8 	bl	80043d4 <USBD_StdDevReq>
 80041e4:	e009      	b.n	80041fa <USBD_LL_SetupStage+0x56>
 80041e6:	4620      	mov	r0, r4
 80041e8:	4629      	mov	r1, r5
 80041ea:	f000 f9ff 	bl	80045ec <USBD_StdItfReq>
 80041ee:	e004      	b.n	80041fa <USBD_LL_SetupStage+0x56>
 80041f0:	4620      	mov	r0, r4
 80041f2:	f001 0180 	and.w	r1, r1, #128	; 0x80
 80041f6:	f001 fc5a 	bl	8005aae <USBD_LL_StallEP>
 80041fa:	2000      	movs	r0, #0
 80041fc:	bd38      	pop	{r3, r4, r5, pc}

080041fe <USBD_LL_DataOutStage>:
 80041fe:	b538      	push	{r3, r4, r5, lr}
 8004200:	4604      	mov	r4, r0
 8004202:	bb09      	cbnz	r1, 8004248 <USBD_LL_DataOutStage+0x4a>
 8004204:	f8d0 31f4 	ldr.w	r3, [r0, #500]	; 0x1f4
 8004208:	2b03      	cmp	r3, #3
 800420a:	d126      	bne.n	800425a <USBD_LL_DataOutStage+0x5c>
 800420c:	f8d0 510c 	ldr.w	r5, [r0, #268]	; 0x10c
 8004210:	f8d0 3110 	ldr.w	r3, [r0, #272]	; 0x110
 8004214:	429d      	cmp	r5, r3
 8004216:	d90a      	bls.n	800422e <USBD_LL_DataOutStage+0x30>
 8004218:	1aed      	subs	r5, r5, r3
 800421a:	429d      	cmp	r5, r3
 800421c:	bf38      	it	cc
 800421e:	462b      	movcc	r3, r5
 8004220:	4611      	mov	r1, r2
 8004222:	f8c0 510c 	str.w	r5, [r0, #268]	; 0x10c
 8004226:	b29a      	uxth	r2, r3
 8004228:	f000 fa73 	bl	8004712 <USBD_CtlContinueRx>
 800422c:	e015      	b.n	800425a <USBD_LL_DataOutStage+0x5c>
 800422e:	f8d0 3214 	ldr.w	r3, [r0, #532]	; 0x214
 8004232:	691b      	ldr	r3, [r3, #16]
 8004234:	b123      	cbz	r3, 8004240 <USBD_LL_DataOutStage+0x42>
 8004236:	f890 21fc 	ldrb.w	r2, [r0, #508]	; 0x1fc
 800423a:	2a03      	cmp	r2, #3
 800423c:	d100      	bne.n	8004240 <USBD_LL_DataOutStage+0x42>
 800423e:	4798      	blx	r3
 8004240:	4620      	mov	r0, r4
 8004242:	f000 fa6f 	bl	8004724 <USBD_CtlSendStatus>
 8004246:	e008      	b.n	800425a <USBD_LL_DataOutStage+0x5c>
 8004248:	f8d0 3214 	ldr.w	r3, [r0, #532]	; 0x214
 800424c:	699b      	ldr	r3, [r3, #24]
 800424e:	b123      	cbz	r3, 800425a <USBD_LL_DataOutStage+0x5c>
 8004250:	f890 21fc 	ldrb.w	r2, [r0, #508]	; 0x1fc
 8004254:	2a03      	cmp	r2, #3
 8004256:	d100      	bne.n	800425a <USBD_LL_DataOutStage+0x5c>
 8004258:	4798      	blx	r3
 800425a:	2000      	movs	r0, #0
 800425c:	bd38      	pop	{r3, r4, r5, pc}

0800425e <USBD_LL_DataInStage>:
 800425e:	b570      	push	{r4, r5, r6, lr}
 8004260:	4604      	mov	r4, r0
 8004262:	460e      	mov	r6, r1
 8004264:	2900      	cmp	r1, #0
 8004266:	d13d      	bne.n	80042e4 <USBD_LL_DataInStage+0x86>
 8004268:	f8d0 31f4 	ldr.w	r3, [r0, #500]	; 0x1f4
 800426c:	2b02      	cmp	r3, #2
 800426e:	d131      	bne.n	80042d4 <USBD_LL_DataInStage+0x76>
 8004270:	69c5      	ldr	r5, [r0, #28]
 8004272:	6a03      	ldr	r3, [r0, #32]
 8004274:	429d      	cmp	r5, r3
 8004276:	d908      	bls.n	800428a <USBD_LL_DataInStage+0x2c>
 8004278:	1aeb      	subs	r3, r5, r3
 800427a:	4611      	mov	r1, r2
 800427c:	61c3      	str	r3, [r0, #28]
 800427e:	b29a      	uxth	r2, r3
 8004280:	f000 fa3e 	bl	8004700 <USBD_CtlContinueSendData>
 8004284:	4620      	mov	r0, r4
 8004286:	4631      	mov	r1, r6
 8004288:	e012      	b.n	80042b0 <USBD_LL_DataInStage+0x52>
 800428a:	6982      	ldr	r2, [r0, #24]
 800428c:	fbb2 f5f3 	udiv	r5, r2, r3
 8004290:	fb03 2515 	mls	r5, r3, r5, r2
 8004294:	b98d      	cbnz	r5, 80042ba <USBD_LL_DataInStage+0x5c>
 8004296:	429a      	cmp	r2, r3
 8004298:	d30f      	bcc.n	80042ba <USBD_LL_DataInStage+0x5c>
 800429a:	f8d0 31f8 	ldr.w	r3, [r0, #504]	; 0x1f8
 800429e:	429a      	cmp	r2, r3
 80042a0:	d20b      	bcs.n	80042ba <USBD_LL_DataInStage+0x5c>
 80042a2:	462a      	mov	r2, r5
 80042a4:	f000 fa2c 	bl	8004700 <USBD_CtlContinueSendData>
 80042a8:	f8c4 51f8 	str.w	r5, [r4, #504]	; 0x1f8
 80042ac:	4620      	mov	r0, r4
 80042ae:	4629      	mov	r1, r5
 80042b0:	460a      	mov	r2, r1
 80042b2:	460b      	mov	r3, r1
 80042b4:	f001 fc2a 	bl	8005b0c <USBD_LL_PrepareReceive>
 80042b8:	e00c      	b.n	80042d4 <USBD_LL_DataInStage+0x76>
 80042ba:	f8d4 3214 	ldr.w	r3, [r4, #532]	; 0x214
 80042be:	68db      	ldr	r3, [r3, #12]
 80042c0:	b12b      	cbz	r3, 80042ce <USBD_LL_DataInStage+0x70>
 80042c2:	f894 21fc 	ldrb.w	r2, [r4, #508]	; 0x1fc
 80042c6:	2a03      	cmp	r2, #3
 80042c8:	d101      	bne.n	80042ce <USBD_LL_DataInStage+0x70>
 80042ca:	4620      	mov	r0, r4
 80042cc:	4798      	blx	r3
 80042ce:	4620      	mov	r0, r4
 80042d0:	f000 fa33 	bl	800473a <USBD_CtlReceiveStatus>
 80042d4:	f894 3200 	ldrb.w	r3, [r4, #512]	; 0x200
 80042d8:	2b01      	cmp	r3, #1
 80042da:	d10c      	bne.n	80042f6 <USBD_LL_DataInStage+0x98>
 80042dc:	2300      	movs	r3, #0
 80042de:	f884 3200 	strb.w	r3, [r4, #512]	; 0x200
 80042e2:	e008      	b.n	80042f6 <USBD_LL_DataInStage+0x98>
 80042e4:	f8d0 3214 	ldr.w	r3, [r0, #532]	; 0x214
 80042e8:	695b      	ldr	r3, [r3, #20]
 80042ea:	b123      	cbz	r3, 80042f6 <USBD_LL_DataInStage+0x98>
 80042ec:	f890 21fc 	ldrb.w	r2, [r0, #508]	; 0x1fc
 80042f0:	2a03      	cmp	r2, #3
 80042f2:	d100      	bne.n	80042f6 <USBD_LL_DataInStage+0x98>
 80042f4:	4798      	blx	r3
 80042f6:	2000      	movs	r0, #0
 80042f8:	bd70      	pop	{r4, r5, r6, pc}

080042fa <USBD_LL_Reset>:
 80042fa:	b538      	push	{r3, r4, r5, lr}
 80042fc:	2100      	movs	r1, #0
 80042fe:	4604      	mov	r4, r0
 8004300:	460a      	mov	r2, r1
 8004302:	2540      	movs	r5, #64	; 0x40
 8004304:	2340      	movs	r3, #64	; 0x40
 8004306:	f001 fbc8 	bl	8005a9a <USBD_LL_OpenEP>
 800430a:	462b      	mov	r3, r5
 800430c:	f8c4 5110 	str.w	r5, [r4, #272]	; 0x110
 8004310:	4620      	mov	r0, r4
 8004312:	2180      	movs	r1, #128	; 0x80
 8004314:	2200      	movs	r2, #0
 8004316:	f001 fbc0 	bl	8005a9a <USBD_LL_OpenEP>
 800431a:	2301      	movs	r3, #1
 800431c:	f884 31fc 	strb.w	r3, [r4, #508]	; 0x1fc
 8004320:	f8d4 3218 	ldr.w	r3, [r4, #536]	; 0x218
 8004324:	6225      	str	r5, [r4, #32]
 8004326:	b12b      	cbz	r3, 8004334 <USBD_LL_Reset+0x3a>
 8004328:	f8d4 3214 	ldr.w	r3, [r4, #532]	; 0x214
 800432c:	7921      	ldrb	r1, [r4, #4]
 800432e:	685b      	ldr	r3, [r3, #4]
 8004330:	4620      	mov	r0, r4
 8004332:	4798      	blx	r3
 8004334:	2000      	movs	r0, #0
 8004336:	bd38      	pop	{r3, r4, r5, pc}

08004338 <USBD_LL_SetSpeed>:
 8004338:	7401      	strb	r1, [r0, #16]
 800433a:	2000      	movs	r0, #0
 800433c:	4770      	bx	lr

0800433e <USBD_LL_Suspend>:
 800433e:	f890 31fc 	ldrb.w	r3, [r0, #508]	; 0x1fc
 8004342:	f880 31fd 	strb.w	r3, [r0, #509]	; 0x1fd
 8004346:	2304      	movs	r3, #4
 8004348:	f880 31fc 	strb.w	r3, [r0, #508]	; 0x1fc
 800434c:	2000      	movs	r0, #0
 800434e:	4770      	bx	lr

08004350 <USBD_LL_Resume>:
 8004350:	f890 31fd 	ldrb.w	r3, [r0, #509]	; 0x1fd
 8004354:	f880 31fc 	strb.w	r3, [r0, #508]	; 0x1fc
 8004358:	2000      	movs	r0, #0
 800435a:	4770      	bx	lr

0800435c <USBD_LL_SOF>:
 800435c:	b508      	push	{r3, lr}
 800435e:	f890 21fc 	ldrb.w	r2, [r0, #508]	; 0x1fc
 8004362:	2a03      	cmp	r2, #3
 8004364:	d104      	bne.n	8004370 <USBD_LL_SOF+0x14>
 8004366:	f8d0 3214 	ldr.w	r3, [r0, #532]	; 0x214
 800436a:	69db      	ldr	r3, [r3, #28]
 800436c:	b103      	cbz	r3, 8004370 <USBD_LL_SOF+0x14>
 800436e:	4798      	blx	r3
 8004370:	2000      	movs	r0, #0
 8004372:	bd08      	pop	{r3, pc}

08004374 <USBD_LL_IsoINIncomplete>:
 8004374:	2000      	movs	r0, #0
 8004376:	4770      	bx	lr

08004378 <USBD_LL_IsoOUTIncomplete>:
 8004378:	2000      	movs	r0, #0
 800437a:	4770      	bx	lr

0800437c <USBD_LL_DevConnected>:
 800437c:	2000      	movs	r0, #0
 800437e:	4770      	bx	lr

08004380 <USBD_LL_DevDisconnected>:
 8004380:	b508      	push	{r3, lr}
 8004382:	2201      	movs	r2, #1
 8004384:	f880 21fc 	strb.w	r2, [r0, #508]	; 0x1fc
 8004388:	f8d0 2214 	ldr.w	r2, [r0, #532]	; 0x214
 800438c:	7901      	ldrb	r1, [r0, #4]
 800438e:	6852      	ldr	r2, [r2, #4]
 8004390:	4790      	blx	r2
 8004392:	2000      	movs	r0, #0
 8004394:	bd08      	pop	{r3, pc}

08004396 <USBD_ParseSetupRequest>:
 8004396:	780b      	ldrb	r3, [r1, #0]
 8004398:	7003      	strb	r3, [r0, #0]
 800439a:	784b      	ldrb	r3, [r1, #1]
 800439c:	7043      	strb	r3, [r0, #1]
 800439e:	78ca      	ldrb	r2, [r1, #3]
 80043a0:	788b      	ldrb	r3, [r1, #2]
 80043a2:	eb03 2302 	add.w	r3, r3, r2, lsl #8
 80043a6:	8043      	strh	r3, [r0, #2]
 80043a8:	794a      	ldrb	r2, [r1, #5]
 80043aa:	790b      	ldrb	r3, [r1, #4]
 80043ac:	eb03 2302 	add.w	r3, r3, r2, lsl #8
 80043b0:	8083      	strh	r3, [r0, #4]
 80043b2:	79ca      	ldrb	r2, [r1, #7]
 80043b4:	798b      	ldrb	r3, [r1, #6]
 80043b6:	eb03 2302 	add.w	r3, r3, r2, lsl #8
 80043ba:	80c3      	strh	r3, [r0, #6]
 80043bc:	4770      	bx	lr

080043be <USBD_CtlError>:
 80043be:	b510      	push	{r4, lr}
 80043c0:	2180      	movs	r1, #128	; 0x80
 80043c2:	4604      	mov	r4, r0
 80043c4:	f001 fb73 	bl	8005aae <USBD_LL_StallEP>
 80043c8:	4620      	mov	r0, r4
 80043ca:	2100      	movs	r1, #0
 80043cc:	e8bd 4010 	ldmia.w	sp!, {r4, lr}
 80043d0:	f001 bb6d 	b.w	8005aae <USBD_LL_StallEP>

080043d4 <USBD_StdDevReq>:
 80043d4:	b573      	push	{r0, r1, r4, r5, r6, lr}
 80043d6:	784b      	ldrb	r3, [r1, #1]
 80043d8:	4604      	mov	r4, r0
 80043da:	460d      	mov	r5, r1
 80043dc:	2b09      	cmp	r3, #9
 80043de:	f200 80fc 	bhi.w	80045da <USBD_StdDevReq+0x206>
 80043e2:	e8df f013 	tbh	[pc, r3, lsl #1]
 80043e6:	00ce      	.short	0x00ce
 80043e8:	00fa00e5 	.word	0x00fa00e5
 80043ec:	00fa00e1 	.word	0x00fa00e1
 80043f0:	000a0077 	.word	0x000a0077
 80043f4:	00bd00fa 	.word	0x00bd00fa
 80043f8:	0093      	.short	0x0093
 80043fa:	886b      	ldrh	r3, [r5, #2]
 80043fc:	0a1a      	lsrs	r2, r3, #8
 80043fe:	3a01      	subs	r2, #1
 8004400:	2a06      	cmp	r2, #6
 8004402:	f200 80ea 	bhi.w	80045da <USBD_StdDevReq+0x206>
 8004406:	e8df f012 	tbh	[pc, r2, lsl #1]
 800440a:	0007      	.short	0x0007
 800440c:	0018000b 	.word	0x0018000b
 8004410:	00e800e8 	.word	0x00e800e8
 8004414:	0049003d 	.word	0x0049003d
 8004418:	f8d0 3210 	ldr.w	r3, [r0, #528]	; 0x210
 800441c:	681b      	ldr	r3, [r3, #0]
 800441e:	e02c      	b.n	800447a <USBD_StdDevReq+0xa6>
 8004420:	7c02      	ldrb	r2, [r0, #16]
 8004422:	f8d0 3214 	ldr.w	r3, [r0, #532]	; 0x214
 8004426:	b90a      	cbnz	r2, 800442c <USBD_StdDevReq+0x58>
 8004428:	6a9b      	ldr	r3, [r3, #40]	; 0x28
 800442a:	e000      	b.n	800442e <USBD_StdDevReq+0x5a>
 800442c:	6adb      	ldr	r3, [r3, #44]	; 0x2c
 800442e:	f10d 0006 	add.w	r0, sp, #6
 8004432:	4798      	blx	r3
 8004434:	2302      	movs	r3, #2
 8004436:	4601      	mov	r1, r0
 8004438:	e03c      	b.n	80044b4 <USBD_StdDevReq+0xe0>
 800443a:	b2db      	uxtb	r3, r3
 800443c:	2b05      	cmp	r3, #5
 800443e:	f200 80cc 	bhi.w	80045da <USBD_StdDevReq+0x206>
 8004442:	e8df f003 	tbb	[pc, r3]
 8004446:	0703      	.short	0x0703
 8004448:	17130f0b 	.word	0x17130f0b
 800444c:	f8d0 3210 	ldr.w	r3, [r0, #528]	; 0x210
 8004450:	685b      	ldr	r3, [r3, #4]
 8004452:	e012      	b.n	800447a <USBD_StdDevReq+0xa6>
 8004454:	f8d0 3210 	ldr.w	r3, [r0, #528]	; 0x210
 8004458:	689b      	ldr	r3, [r3, #8]
 800445a:	e00e      	b.n	800447a <USBD_StdDevReq+0xa6>
 800445c:	f8d0 3210 	ldr.w	r3, [r0, #528]	; 0x210
 8004460:	68db      	ldr	r3, [r3, #12]
 8004462:	e00a      	b.n	800447a <USBD_StdDevReq+0xa6>
 8004464:	f8d0 3210 	ldr.w	r3, [r0, #528]	; 0x210
 8004468:	691b      	ldr	r3, [r3, #16]
 800446a:	e006      	b.n	800447a <USBD_StdDevReq+0xa6>
 800446c:	f8d0 3210 	ldr.w	r3, [r0, #528]	; 0x210
 8004470:	695b      	ldr	r3, [r3, #20]
 8004472:	e002      	b.n	800447a <USBD_StdDevReq+0xa6>
 8004474:	f8d0 3210 	ldr.w	r3, [r0, #528]	; 0x210
 8004478:	699b      	ldr	r3, [r3, #24]
 800447a:	7c20      	ldrb	r0, [r4, #16]
 800447c:	f10d 0106 	add.w	r1, sp, #6
 8004480:	4798      	blx	r3
 8004482:	e009      	b.n	8004498 <USBD_StdDevReq+0xc4>
 8004484:	7c03      	ldrb	r3, [r0, #16]
 8004486:	2b00      	cmp	r3, #0
 8004488:	f040 80a7 	bne.w	80045da <USBD_StdDevReq+0x206>
 800448c:	f8d0 3214 	ldr.w	r3, [r0, #532]	; 0x214
 8004490:	f10d 0006 	add.w	r0, sp, #6
 8004494:	6b5b      	ldr	r3, [r3, #52]	; 0x34
 8004496:	4798      	blx	r3
 8004498:	4601      	mov	r1, r0
 800449a:	e00c      	b.n	80044b6 <USBD_StdDevReq+0xe2>
 800449c:	7c03      	ldrb	r3, [r0, #16]
 800449e:	2b00      	cmp	r3, #0
 80044a0:	f040 809b 	bne.w	80045da <USBD_StdDevReq+0x206>
 80044a4:	f8d0 3214 	ldr.w	r3, [r0, #532]	; 0x214
 80044a8:	f10d 0006 	add.w	r0, sp, #6
 80044ac:	6b1b      	ldr	r3, [r3, #48]	; 0x30
 80044ae:	4798      	blx	r3
 80044b0:	2307      	movs	r3, #7
 80044b2:	4601      	mov	r1, r0
 80044b4:	704b      	strb	r3, [r1, #1]
 80044b6:	f8bd 3006 	ldrh.w	r3, [sp, #6]
 80044ba:	2b00      	cmp	r3, #0
 80044bc:	f000 8091 	beq.w	80045e2 <USBD_StdDevReq+0x20e>
 80044c0:	88ea      	ldrh	r2, [r5, #6]
 80044c2:	2a00      	cmp	r2, #0
 80044c4:	f000 808d 	beq.w	80045e2 <USBD_StdDevReq+0x20e>
 80044c8:	429a      	cmp	r2, r3
 80044ca:	bf28      	it	cs
 80044cc:	461a      	movcs	r2, r3
 80044ce:	f8ad 2006 	strh.w	r2, [sp, #6]
 80044d2:	e054      	b.n	800457e <USBD_StdDevReq+0x1aa>
 80044d4:	88ab      	ldrh	r3, [r5, #4]
 80044d6:	2b00      	cmp	r3, #0
 80044d8:	d17f      	bne.n	80045da <USBD_StdDevReq+0x206>
 80044da:	88eb      	ldrh	r3, [r5, #6]
 80044dc:	2b00      	cmp	r3, #0
 80044de:	d17c      	bne.n	80045da <USBD_StdDevReq+0x206>
 80044e0:	f890 31fc 	ldrb.w	r3, [r0, #508]	; 0x1fc
 80044e4:	78ae      	ldrb	r6, [r5, #2]
 80044e6:	2b03      	cmp	r3, #3
 80044e8:	f006 067f 	and.w	r6, r6, #127	; 0x7f
 80044ec:	d075      	beq.n	80045da <USBD_StdDevReq+0x206>
 80044ee:	f880 61fe 	strb.w	r6, [r0, #510]	; 0x1fe
 80044f2:	4631      	mov	r1, r6
 80044f4:	f001 fafc 	bl	8005af0 <USBD_LL_SetUSBAddress>
 80044f8:	4620      	mov	r0, r4
 80044fa:	f000 f913 	bl	8004724 <USBD_CtlSendStatus>
 80044fe:	b10e      	cbz	r6, 8004504 <USBD_StdDevReq+0x130>
 8004500:	2302      	movs	r3, #2
 8004502:	e000      	b.n	8004506 <USBD_StdDevReq+0x132>
 8004504:	2301      	movs	r3, #1
 8004506:	f884 31fc 	strb.w	r3, [r4, #508]	; 0x1fc
 800450a:	e06a      	b.n	80045e2 <USBD_StdDevReq+0x20e>
 800450c:	78a9      	ldrb	r1, [r5, #2]
 800450e:	4e36      	ldr	r6, [pc, #216]	; (80045e8 <USBD_StdDevReq+0x214>)
 8004510:	2901      	cmp	r1, #1
 8004512:	7031      	strb	r1, [r6, #0]
 8004514:	d861      	bhi.n	80045da <USBD_StdDevReq+0x206>
 8004516:	f890 31fc 	ldrb.w	r3, [r0, #508]	; 0x1fc
 800451a:	2b02      	cmp	r3, #2
 800451c:	d002      	beq.n	8004524 <USBD_StdDevReq+0x150>
 800451e:	2b03      	cmp	r3, #3
 8004520:	d008      	beq.n	8004534 <USBD_StdDevReq+0x160>
 8004522:	e05a      	b.n	80045da <USBD_StdDevReq+0x206>
 8004524:	2900      	cmp	r1, #0
 8004526:	d054      	beq.n	80045d2 <USBD_StdDevReq+0x1fe>
 8004528:	2101      	movs	r1, #1
 800452a:	2303      	movs	r3, #3
 800452c:	6041      	str	r1, [r0, #4]
 800452e:	f880 31fc 	strb.w	r3, [r0, #508]	; 0x1fc
 8004532:	e00f      	b.n	8004554 <USBD_StdDevReq+0x180>
 8004534:	b931      	cbnz	r1, 8004544 <USBD_StdDevReq+0x170>
 8004536:	2302      	movs	r3, #2
 8004538:	f880 31fc 	strb.w	r3, [r0, #508]	; 0x1fc
 800453c:	6041      	str	r1, [r0, #4]
 800453e:	f7ff fe2a 	bl	8004196 <USBD_ClrClassConfig>
 8004542:	e046      	b.n	80045d2 <USBD_StdDevReq+0x1fe>
 8004544:	6841      	ldr	r1, [r0, #4]
 8004546:	2901      	cmp	r1, #1
 8004548:	d043      	beq.n	80045d2 <USBD_StdDevReq+0x1fe>
 800454a:	b2c9      	uxtb	r1, r1
 800454c:	f7ff fe23 	bl	8004196 <USBD_ClrClassConfig>
 8004550:	7831      	ldrb	r1, [r6, #0]
 8004552:	6061      	str	r1, [r4, #4]
 8004554:	4620      	mov	r0, r4
 8004556:	f7ff fe13 	bl	8004180 <USBD_SetClassConfig>
 800455a:	2802      	cmp	r0, #2
 800455c:	d139      	bne.n	80045d2 <USBD_StdDevReq+0x1fe>
 800455e:	e03c      	b.n	80045da <USBD_StdDevReq+0x206>
 8004560:	88ea      	ldrh	r2, [r5, #6]
 8004562:	2a01      	cmp	r2, #1
 8004564:	d139      	bne.n	80045da <USBD_StdDevReq+0x206>
 8004566:	f890 31fc 	ldrb.w	r3, [r0, #508]	; 0x1fc
 800456a:	2b02      	cmp	r3, #2
 800456c:	d003      	beq.n	8004576 <USBD_StdDevReq+0x1a2>
 800456e:	2b03      	cmp	r3, #3
 8004570:	d133      	bne.n	80045da <USBD_StdDevReq+0x206>
 8004572:	1d01      	adds	r1, r0, #4
 8004574:	e015      	b.n	80045a2 <USBD_StdDevReq+0x1ce>
 8004576:	4601      	mov	r1, r0
 8004578:	2300      	movs	r3, #0
 800457a:	f841 3f08 	str.w	r3, [r1, #8]!
 800457e:	4620      	mov	r0, r4
 8004580:	e00f      	b.n	80045a2 <USBD_StdDevReq+0x1ce>
 8004582:	f890 31fc 	ldrb.w	r3, [r0, #508]	; 0x1fc
 8004586:	3b02      	subs	r3, #2
 8004588:	2b01      	cmp	r3, #1
 800458a:	d826      	bhi.n	80045da <USBD_StdDevReq+0x206>
 800458c:	2301      	movs	r3, #1
 800458e:	60c3      	str	r3, [r0, #12]
 8004590:	f8d0 3204 	ldr.w	r3, [r0, #516]	; 0x204
 8004594:	b10b      	cbz	r3, 800459a <USBD_StdDevReq+0x1c6>
 8004596:	2303      	movs	r3, #3
 8004598:	60c3      	str	r3, [r0, #12]
 800459a:	4620      	mov	r0, r4
 800459c:	f104 010c 	add.w	r1, r4, #12
 80045a0:	2202      	movs	r2, #2
 80045a2:	f000 f89f 	bl	80046e4 <USBD_CtlSendData>
 80045a6:	e01c      	b.n	80045e2 <USBD_StdDevReq+0x20e>
 80045a8:	886b      	ldrh	r3, [r5, #2]
 80045aa:	2b01      	cmp	r3, #1
 80045ac:	d119      	bne.n	80045e2 <USBD_StdDevReq+0x20e>
 80045ae:	e008      	b.n	80045c2 <USBD_StdDevReq+0x1ee>
 80045b0:	f890 31fc 	ldrb.w	r3, [r0, #508]	; 0x1fc
 80045b4:	3b02      	subs	r3, #2
 80045b6:	2b01      	cmp	r3, #1
 80045b8:	d80f      	bhi.n	80045da <USBD_StdDevReq+0x206>
 80045ba:	886b      	ldrh	r3, [r5, #2]
 80045bc:	2b01      	cmp	r3, #1
 80045be:	d110      	bne.n	80045e2 <USBD_StdDevReq+0x20e>
 80045c0:	2300      	movs	r3, #0
 80045c2:	f8c4 3204 	str.w	r3, [r4, #516]	; 0x204
 80045c6:	f8d4 3214 	ldr.w	r3, [r4, #532]	; 0x214
 80045ca:	4620      	mov	r0, r4
 80045cc:	689b      	ldr	r3, [r3, #8]
 80045ce:	4629      	mov	r1, r5
 80045d0:	4798      	blx	r3
 80045d2:	4620      	mov	r0, r4
 80045d4:	f000 f8a6 	bl	8004724 <USBD_CtlSendStatus>
 80045d8:	e003      	b.n	80045e2 <USBD_StdDevReq+0x20e>
 80045da:	4620      	mov	r0, r4
 80045dc:	4629      	mov	r1, r5
 80045de:	f7ff feee 	bl	80043be <USBD_CtlError>
 80045e2:	2000      	movs	r0, #0
 80045e4:	b002      	add	sp, #8
 80045e6:	bd70      	pop	{r4, r5, r6, pc}
 80045e8:	20000460 	.word	0x20000460

080045ec <USBD_StdItfReq>:
 80045ec:	b538      	push	{r3, r4, r5, lr}
 80045ee:	f890 31fc 	ldrb.w	r3, [r0, #508]	; 0x1fc
 80045f2:	2b03      	cmp	r3, #3
 80045f4:	4604      	mov	r4, r0
 80045f6:	460d      	mov	r5, r1
 80045f8:	d10c      	bne.n	8004614 <USBD_StdItfReq+0x28>
 80045fa:	790b      	ldrb	r3, [r1, #4]
 80045fc:	2b01      	cmp	r3, #1
 80045fe:	d809      	bhi.n	8004614 <USBD_StdItfReq+0x28>
 8004600:	f8d0 3214 	ldr.w	r3, [r0, #532]	; 0x214
 8004604:	689b      	ldr	r3, [r3, #8]
 8004606:	4798      	blx	r3
 8004608:	88eb      	ldrh	r3, [r5, #6]
 800460a:	b92b      	cbnz	r3, 8004618 <USBD_StdItfReq+0x2c>
 800460c:	4620      	mov	r0, r4
 800460e:	f000 f889 	bl	8004724 <USBD_CtlSendStatus>
 8004612:	e001      	b.n	8004618 <USBD_StdItfReq+0x2c>
 8004614:	f7ff fed3 	bl	80043be <USBD_CtlError>
 8004618:	2000      	movs	r0, #0
 800461a:	bd38      	pop	{r3, r4, r5, pc}

0800461c <USBD_StdEPReq>:
 800461c:	b570      	push	{r4, r5, r6, lr}
 800461e:	780e      	ldrb	r6, [r1, #0]
 8004620:	888a      	ldrh	r2, [r1, #4]
 8004622:	f006 0660 	and.w	r6, r6, #96	; 0x60
 8004626:	2e20      	cmp	r6, #32
 8004628:	4604      	mov	r4, r0
 800462a:	460d      	mov	r5, r1
 800462c:	b2d3      	uxtb	r3, r2
 800462e:	d104      	bne.n	800463a <USBD_StdEPReq+0x1e>
 8004630:	f8d0 3214 	ldr.w	r3, [r0, #532]	; 0x214
 8004634:	689b      	ldr	r3, [r3, #8]
 8004636:	4798      	blx	r3
 8004638:	e052      	b.n	80046e0 <USBD_StdEPReq+0xc4>
 800463a:	784e      	ldrb	r6, [r1, #1]
 800463c:	2e01      	cmp	r6, #1
 800463e:	d010      	beq.n	8004662 <USBD_StdEPReq+0x46>
 8004640:	d327      	bcc.n	8004692 <USBD_StdEPReq+0x76>
 8004642:	2e03      	cmp	r6, #3
 8004644:	d14c      	bne.n	80046e0 <USBD_StdEPReq+0xc4>
 8004646:	f890 21fc 	ldrb.w	r2, [r0, #508]	; 0x1fc
 800464a:	2a02      	cmp	r2, #2
 800464c:	d028      	beq.n	80046a0 <USBD_StdEPReq+0x84>
 800464e:	2a03      	cmp	r2, #3
 8004650:	d144      	bne.n	80046dc <USBD_StdEPReq+0xc0>
 8004652:	884a      	ldrh	r2, [r1, #2]
 8004654:	b99a      	cbnz	r2, 800467e <USBD_StdEPReq+0x62>
 8004656:	065e      	lsls	r6, r3, #25
 8004658:	d011      	beq.n	800467e <USBD_StdEPReq+0x62>
 800465a:	4619      	mov	r1, r3
 800465c:	f001 fa27 	bl	8005aae <USBD_LL_StallEP>
 8004660:	e00d      	b.n	800467e <USBD_StdEPReq+0x62>
 8004662:	f890 21fc 	ldrb.w	r2, [r0, #508]	; 0x1fc
 8004666:	2a02      	cmp	r2, #2
 8004668:	d01a      	beq.n	80046a0 <USBD_StdEPReq+0x84>
 800466a:	2a03      	cmp	r2, #3
 800466c:	d136      	bne.n	80046dc <USBD_StdEPReq+0xc0>
 800466e:	884a      	ldrh	r2, [r1, #2]
 8004670:	2a00      	cmp	r2, #0
 8004672:	d135      	bne.n	80046e0 <USBD_StdEPReq+0xc4>
 8004674:	0659      	lsls	r1, r3, #25
 8004676:	d008      	beq.n	800468a <USBD_StdEPReq+0x6e>
 8004678:	4619      	mov	r1, r3
 800467a:	f001 fa1f 	bl	8005abc <USBD_LL_ClearStallEP>
 800467e:	f8d4 3214 	ldr.w	r3, [r4, #532]	; 0x214
 8004682:	4620      	mov	r0, r4
 8004684:	689b      	ldr	r3, [r3, #8]
 8004686:	4629      	mov	r1, r5
 8004688:	4798      	blx	r3
 800468a:	4620      	mov	r0, r4
 800468c:	f000 f84a 	bl	8004724 <USBD_CtlSendStatus>
 8004690:	e026      	b.n	80046e0 <USBD_StdEPReq+0xc4>
 8004692:	f890 51fc 	ldrb.w	r5, [r0, #508]	; 0x1fc
 8004696:	2d02      	cmp	r5, #2
 8004698:	d002      	beq.n	80046a0 <USBD_StdEPReq+0x84>
 800469a:	2d03      	cmp	r5, #3
 800469c:	d006      	beq.n	80046ac <USBD_StdEPReq+0x90>
 800469e:	e01d      	b.n	80046dc <USBD_StdEPReq+0xc0>
 80046a0:	065a      	lsls	r2, r3, #25
 80046a2:	d01d      	beq.n	80046e0 <USBD_StdEPReq+0xc4>
 80046a4:	4619      	mov	r1, r3
 80046a6:	f001 fa02 	bl	8005aae <USBD_LL_StallEP>
 80046aa:	e019      	b.n	80046e0 <USBD_StdEPReq+0xc4>
 80046ac:	f003 057f 	and.w	r5, r3, #127	; 0x7f
 80046b0:	f012 0f80 	tst.w	r2, #128	; 0x80
 80046b4:	eb00 1505 	add.w	r5, r0, r5, lsl #4
 80046b8:	4619      	mov	r1, r3
 80046ba:	bf14      	ite	ne
 80046bc:	3514      	addne	r5, #20
 80046be:	f505 7582 	addeq.w	r5, r5, #260	; 0x104
 80046c2:	f001 fa02 	bl	8005aca <USBD_LL_IsStallEP>
 80046c6:	b110      	cbz	r0, 80046ce <USBD_StdEPReq+0xb2>
 80046c8:	2301      	movs	r3, #1
 80046ca:	602b      	str	r3, [r5, #0]
 80046cc:	e000      	b.n	80046d0 <USBD_StdEPReq+0xb4>
 80046ce:	6028      	str	r0, [r5, #0]
 80046d0:	4620      	mov	r0, r4
 80046d2:	4629      	mov	r1, r5
 80046d4:	2202      	movs	r2, #2
 80046d6:	f000 f805 	bl	80046e4 <USBD_CtlSendData>
 80046da:	e001      	b.n	80046e0 <USBD_StdEPReq+0xc4>
 80046dc:	f7ff fe6f 	bl	80043be <USBD_CtlError>
 80046e0:	2000      	movs	r0, #0
 80046e2:	bd70      	pop	{r4, r5, r6, pc}

080046e4 <USBD_CtlSendData>:
 80046e4:	b538      	push	{r3, r4, r5, lr}
 80046e6:	4613      	mov	r3, r2
 80046e8:	460d      	mov	r5, r1
 80046ea:	2202      	movs	r2, #2
 80046ec:	f8c0 21f4 	str.w	r2, [r0, #500]	; 0x1f4
 80046f0:	6183      	str	r3, [r0, #24]
 80046f2:	61c3      	str	r3, [r0, #28]
 80046f4:	2100      	movs	r1, #0
 80046f6:	462a      	mov	r2, r5
 80046f8:	f001 fa01 	bl	8005afe <USBD_LL_Transmit>
 80046fc:	2000      	movs	r0, #0
 80046fe:	bd38      	pop	{r3, r4, r5, pc}

08004700 <USBD_CtlContinueSendData>:
 8004700:	b510      	push	{r4, lr}
 8004702:	460c      	mov	r4, r1
 8004704:	4613      	mov	r3, r2
 8004706:	2100      	movs	r1, #0
 8004708:	4622      	mov	r2, r4
 800470a:	f001 f9f8 	bl	8005afe <USBD_LL_Transmit>
 800470e:	2000      	movs	r0, #0
 8004710:	bd10      	pop	{r4, pc}

08004712 <USBD_CtlContinueRx>:
 8004712:	b510      	push	{r4, lr}
 8004714:	460c      	mov	r4, r1
 8004716:	4613      	mov	r3, r2
 8004718:	2100      	movs	r1, #0
 800471a:	4622      	mov	r2, r4
 800471c:	f001 f9f6 	bl	8005b0c <USBD_LL_PrepareReceive>
 8004720:	2000      	movs	r0, #0
 8004722:	bd10      	pop	{r4, pc}

08004724 <USBD_CtlSendStatus>:
 8004724:	b508      	push	{r3, lr}
 8004726:	2100      	movs	r1, #0
 8004728:	2304      	movs	r3, #4
 800472a:	f8c0 31f4 	str.w	r3, [r0, #500]	; 0x1f4
 800472e:	460a      	mov	r2, r1
 8004730:	460b      	mov	r3, r1
 8004732:	f001 f9e4 	bl	8005afe <USBD_LL_Transmit>
 8004736:	2000      	movs	r0, #0
 8004738:	bd08      	pop	{r3, pc}

0800473a <USBD_CtlReceiveStatus>:
 800473a:	b508      	push	{r3, lr}
 800473c:	2100      	movs	r1, #0
 800473e:	2305      	movs	r3, #5
 8004740:	f8c0 31f4 	str.w	r3, [r0, #500]	; 0x1f4
 8004744:	460a      	mov	r2, r1
 8004746:	460b      	mov	r3, r1
 8004748:	f001 f9e0 	bl	8005b0c <USBD_LL_PrepareReceive>
 800474c:	2000      	movs	r0, #0
 800474e:	bd08      	pop	{r3, pc}

08004750 <LBF_Led_StopNBlinkOnFalse>:
 8004750:	b508      	push	{r3, lr}
 8004752:	b958      	cbnz	r0, 800476c <LBF_Led_StopNBlinkOnFalse+0x1c>
 8004754:	f000 f876 	bl	8004844 <LBF_Led_ON>
 8004758:	2064      	movs	r0, #100	; 0x64
 800475a:	f000 f98d 	bl	8004a78 <LBF_Delay_ms>
 800475e:	f000 f879 	bl	8004854 <LBF_Led_OFF>
 8004762:	f44f 7096 	mov.w	r0, #300	; 0x12c
 8004766:	f000 f987 	bl	8004a78 <LBF_Delay_ms>
 800476a:	e7f3      	b.n	8004754 <LBF_Led_StopNBlinkOnFalse+0x4>
 800476c:	bd08      	pop	{r3, pc}
	...

08004770 <LBF_FLASH_SendByte>:
 8004770:	b57f      	push	{r0, r1, r2, r3, r4, r5, r6, lr}
 8004772:	2300      	movs	r3, #0
 8004774:	f88d 3017 	strb.w	r3, [sp, #23]
 8004778:	f44f 737a 	mov.w	r3, #1000	; 0x3e8
 800477c:	f88d 000f 	strb.w	r0, [sp, #15]
 8004780:	9300      	str	r3, [sp, #0]
 8004782:	f10d 010f 	add.w	r1, sp, #15
 8004786:	f10d 0217 	add.w	r2, sp, #23
 800478a:	2301      	movs	r3, #1
 800478c:	4803      	ldr	r0, [pc, #12]	; (800479c <LBF_FLASH_SendByte+0x2c>)
 800478e:	f7fe fce9 	bl	8003164 <HAL_SPI_TransmitReceive>
 8004792:	f89d 0017 	ldrb.w	r0, [sp, #23]
 8004796:	b007      	add	sp, #28
 8004798:	f85d fb04 	ldr.w	pc, [sp], #4
 800479c:	200009e0 	.word	0x200009e0

080047a0 <LBF_FLASH_WaitForWriteEnd>:
 80047a0:	480a      	ldr	r0, [pc, #40]	; (80047cc <LBF_FLASH_WaitForWriteEnd+0x2c>)
 80047a2:	b508      	push	{r3, lr}
 80047a4:	2180      	movs	r1, #128	; 0x80
 80047a6:	2200      	movs	r2, #0
 80047a8:	f7fc fc40 	bl	800102c <HAL_GPIO_WritePin>
 80047ac:	20d7      	movs	r0, #215	; 0xd7
 80047ae:	f7ff ffdf 	bl	8004770 <LBF_FLASH_SendByte>
 80047b2:	20a5      	movs	r0, #165	; 0xa5
 80047b4:	f7ff ffdc 	bl	8004770 <LBF_FLASH_SendByte>
 80047b8:	0603      	lsls	r3, r0, #24
 80047ba:	d5fa      	bpl.n	80047b2 <LBF_FLASH_WaitForWriteEnd+0x12>
 80047bc:	4803      	ldr	r0, [pc, #12]	; (80047cc <LBF_FLASH_WaitForWriteEnd+0x2c>)
 80047be:	2180      	movs	r1, #128	; 0x80
 80047c0:	2201      	movs	r2, #1
 80047c2:	e8bd 4008 	ldmia.w	sp!, {r3, lr}
 80047c6:	f7fc bc31 	b.w	800102c <HAL_GPIO_WritePin>
 80047ca:	bf00      	nop
 80047cc:	48000400 	.word	0x48000400

080047d0 <LBF_I2CSensors_WriteSingleReg>:
 80047d0:	b530      	push	{r4, r5, lr}
 80047d2:	b087      	sub	sp, #28
 80047d4:	ab06      	add	r3, sp, #24
 80047d6:	2829      	cmp	r0, #41	; 0x29
 80047d8:	f803 2d01 	strb.w	r2, [r3, #-1]!
 80047dc:	9300      	str	r3, [sp, #0]
 80047de:	f04f 0301 	mov.w	r3, #1
 80047e2:	4604      	mov	r4, r0
 80047e4:	460d      	mov	r5, r1
 80047e6:	9301      	str	r3, [sp, #4]
 80047e8:	f44f 737a 	mov.w	r3, #1000	; 0x3e8
 80047ec:	9302      	str	r3, [sp, #8]
 80047ee:	ea4f 0144 	mov.w	r1, r4, lsl #1
 80047f2:	462a      	mov	r2, r5
 80047f4:	bf0c      	ite	eq
 80047f6:	2302      	moveq	r3, #2
 80047f8:	2301      	movne	r3, #1
 80047fa:	4802      	ldr	r0, [pc, #8]	; (8004804 <LBF_I2CSensors_WriteSingleReg+0x34>)
 80047fc:	f7fc fdbc 	bl	8001378 <HAL_I2C_Mem_Write>
 8004800:	b007      	add	sp, #28
 8004802:	bd30      	pop	{r4, r5, pc}
 8004804:	20000940 	.word	0x20000940

08004808 <LBF_I2CSensors_ReadSingleReg>:
 8004808:	b510      	push	{r4, lr}
 800480a:	b086      	sub	sp, #24
 800480c:	ab06      	add	r3, sp, #24
 800480e:	460a      	mov	r2, r1
 8004810:	2100      	movs	r1, #0
 8004812:	f803 1d01 	strb.w	r1, [r3, #-1]!
 8004816:	9300      	str	r3, [sp, #0]
 8004818:	2301      	movs	r3, #1
 800481a:	2829      	cmp	r0, #41	; 0x29
 800481c:	4604      	mov	r4, r0
 800481e:	9301      	str	r3, [sp, #4]
 8004820:	f44f 737a 	mov.w	r3, #1000	; 0x3e8
 8004824:	9302      	str	r3, [sp, #8]
 8004826:	ea4f 0144 	mov.w	r1, r4, lsl #1
 800482a:	bf0c      	ite	eq
 800482c:	2302      	moveq	r3, #2
 800482e:	2301      	movne	r3, #1
 8004830:	4803      	ldr	r0, [pc, #12]	; (8004840 <LBF_I2CSensors_ReadSingleReg+0x38>)
 8004832:	f7fc fe1d 	bl	8001470 <HAL_I2C_Mem_Read>
 8004836:	f89d 0017 	ldrb.w	r0, [sp, #23]
 800483a:	b006      	add	sp, #24
 800483c:	bd10      	pop	{r4, pc}
 800483e:	bf00      	nop
 8004840:	20000940 	.word	0x20000940

08004844 <LBF_Led_ON>:
 8004844:	4802      	ldr	r0, [pc, #8]	; (8004850 <LBF_Led_ON+0xc>)
 8004846:	2108      	movs	r1, #8
 8004848:	2201      	movs	r2, #1
 800484a:	f7fc bbef 	b.w	800102c <HAL_GPIO_WritePin>
 800484e:	bf00      	nop
 8004850:	48000800 	.word	0x48000800

08004854 <LBF_Led_OFF>:
 8004854:	4802      	ldr	r0, [pc, #8]	; (8004860 <LBF_Led_OFF+0xc>)
 8004856:	2108      	movs	r1, #8
 8004858:	2200      	movs	r2, #0
 800485a:	f7fc bbe7 	b.w	800102c <HAL_GPIO_WritePin>
 800485e:	bf00      	nop
 8004860:	48000800 	.word	0x48000800

08004864 <LBF_OLED_SPI_TransferByte>:
 8004864:	b57f      	push	{r0, r1, r2, r3, r4, r5, r6, lr}
 8004866:	2300      	movs	r3, #0
 8004868:	f88d 3017 	strb.w	r3, [sp, #23]
 800486c:	f44f 737a 	mov.w	r3, #1000	; 0x3e8
 8004870:	f88d 000f 	strb.w	r0, [sp, #15]
 8004874:	9300      	str	r3, [sp, #0]
 8004876:	f10d 010f 	add.w	r1, sp, #15
 800487a:	f10d 0217 	add.w	r2, sp, #23
 800487e:	2301      	movs	r3, #1
 8004880:	4803      	ldr	r0, [pc, #12]	; (8004890 <LBF_OLED_SPI_TransferByte+0x2c>)
 8004882:	f7fe fc6f 	bl	8003164 <HAL_SPI_TransmitReceive>
 8004886:	f89d 0017 	ldrb.w	r0, [sp, #23]
 800488a:	b007      	add	sp, #28
 800488c:	f85d fb04 	ldr.w	pc, [sp], #4
 8004890:	2000097c 	.word	0x2000097c

08004894 <LBF_OLED_SendCmd>:
 8004894:	b538      	push	{r3, r4, r5, lr}
 8004896:	4c0d      	ldr	r4, [pc, #52]	; (80048cc <LBF_OLED_SendCmd+0x38>)
 8004898:	4605      	mov	r5, r0
 800489a:	2110      	movs	r1, #16
 800489c:	4620      	mov	r0, r4
 800489e:	2200      	movs	r2, #0
 80048a0:	f7fc fbc4 	bl	800102c <HAL_GPIO_WritePin>
 80048a4:	4620      	mov	r0, r4
 80048a6:	2120      	movs	r1, #32
 80048a8:	2200      	movs	r2, #0
 80048aa:	f7fc fbbf 	bl	800102c <HAL_GPIO_WritePin>
 80048ae:	4628      	mov	r0, r5
 80048b0:	f7ff ffd8 	bl	8004864 <LBF_OLED_SPI_TransferByte>
 80048b4:	4620      	mov	r0, r4
 80048b6:	2120      	movs	r1, #32
 80048b8:	2201      	movs	r2, #1
 80048ba:	f7fc fbb7 	bl	800102c <HAL_GPIO_WritePin>
 80048be:	4620      	mov	r0, r4
 80048c0:	2110      	movs	r1, #16
 80048c2:	2201      	movs	r2, #1
 80048c4:	e8bd 4038 	ldmia.w	sp!, {r3, r4, r5, lr}
 80048c8:	f7fc bbb0 	b.w	800102c <HAL_GPIO_WritePin>
 80048cc:	48000800 	.word	0x48000800

080048d0 <LBF_OLED_SendData>:
 80048d0:	b510      	push	{r4, lr}
 80048d2:	4604      	mov	r4, r0
 80048d4:	0a00      	lsrs	r0, r0, #8
 80048d6:	f7ff ffc5 	bl	8004864 <LBF_OLED_SPI_TransferByte>
 80048da:	b2e0      	uxtb	r0, r4
 80048dc:	e8bd 4010 	ldmia.w	sp!, {r4, lr}
 80048e0:	f7ff bfc0 	b.w	8004864 <LBF_OLED_SPI_TransferByte>

080048e4 <LBF_OLED_WriteReg>:
 80048e4:	b570      	push	{r4, r5, r6, lr}
 80048e6:	4c14      	ldr	r4, [pc, #80]	; (8004938 <LBF_OLED_WriteReg+0x54>)
 80048e8:	4606      	mov	r6, r0
 80048ea:	460d      	mov	r5, r1
 80048ec:	4620      	mov	r0, r4
 80048ee:	2120      	movs	r1, #32
 80048f0:	2200      	movs	r2, #0
 80048f2:	f7fc fb9b 	bl	800102c <HAL_GPIO_WritePin>
 80048f6:	4620      	mov	r0, r4
 80048f8:	2110      	movs	r1, #16
 80048fa:	2200      	movs	r2, #0
 80048fc:	f7fc fb96 	bl	800102c <HAL_GPIO_WritePin>
 8004900:	4630      	mov	r0, r6
 8004902:	f7ff ffaf 	bl	8004864 <LBF_OLED_SPI_TransferByte>
 8004906:	4620      	mov	r0, r4
 8004908:	2110      	movs	r1, #16
 800490a:	2201      	movs	r2, #1
 800490c:	f7fc fb8e 	bl	800102c <HAL_GPIO_WritePin>
 8004910:	4620      	mov	r0, r4
 8004912:	2120      	movs	r1, #32
 8004914:	2201      	movs	r2, #1
 8004916:	f7fc fb89 	bl	800102c <HAL_GPIO_WritePin>
 800491a:	4620      	mov	r0, r4
 800491c:	2120      	movs	r1, #32
 800491e:	2200      	movs	r2, #0
 8004920:	f7fc fb84 	bl	800102c <HAL_GPIO_WritePin>
 8004924:	4628      	mov	r0, r5
 8004926:	f7ff ff9d 	bl	8004864 <LBF_OLED_SPI_TransferByte>
 800492a:	4620      	mov	r0, r4
 800492c:	2120      	movs	r1, #32
 800492e:	2201      	movs	r2, #1
 8004930:	e8bd 4070 	ldmia.w	sp!, {r4, r5, r6, lr}
 8004934:	f7fc bb7a 	b.w	800102c <HAL_GPIO_WritePin>
 8004938:	48000800 	.word	0x48000800

0800493c <LBF_OLED_DataStart>:
 800493c:	b510      	push	{r4, lr}
 800493e:	4c0a      	ldr	r4, [pc, #40]	; (8004968 <LBF_OLED_DataStart+0x2c>)
 8004940:	2120      	movs	r1, #32
 8004942:	4620      	mov	r0, r4
 8004944:	2200      	movs	r2, #0
 8004946:	f7fc fb71 	bl	800102c <HAL_GPIO_WritePin>
 800494a:	4620      	mov	r0, r4
 800494c:	2110      	movs	r1, #16
 800494e:	2200      	movs	r2, #0
 8004950:	f7fc fb6c 	bl	800102c <HAL_GPIO_WritePin>
 8004954:	2022      	movs	r0, #34	; 0x22
 8004956:	f7ff ff85 	bl	8004864 <LBF_OLED_SPI_TransferByte>
 800495a:	4620      	mov	r0, r4
 800495c:	2110      	movs	r1, #16
 800495e:	2201      	movs	r2, #1
 8004960:	e8bd 4010 	ldmia.w	sp!, {r4, lr}
 8004964:	f7fc bb62 	b.w	800102c <HAL_GPIO_WritePin>
 8004968:	48000800 	.word	0x48000800

0800496c <LBF_OLED_DataEnd>:
 800496c:	4802      	ldr	r0, [pc, #8]	; (8004978 <LBF_OLED_DataEnd+0xc>)
 800496e:	2120      	movs	r1, #32
 8004970:	2201      	movs	r2, #1
 8004972:	f7fc bb5b 	b.w	800102c <HAL_GPIO_WritePin>
 8004976:	bf00      	nop
 8004978:	48000800 	.word	0x48000800

0800497c <LBF_OLED_SetRegion>:
 800497c:	3a01      	subs	r2, #1
 800497e:	b5f8      	push	{r3, r4, r5, r6, r7, lr}
 8004980:	1887      	adds	r7, r0, r2
 8004982:	3b01      	subs	r3, #1
 8004984:	18cd      	adds	r5, r1, r3
 8004986:	b2ff      	uxtb	r7, r7
 8004988:	289f      	cmp	r0, #159	; 0x9f
 800498a:	bf34      	ite	cc
 800498c:	4606      	movcc	r6, r0
 800498e:	269f      	movcs	r6, #159	; 0x9f
 8004990:	2f9f      	cmp	r7, #159	; 0x9f
 8004992:	bf28      	it	cs
 8004994:	279f      	movcs	r7, #159	; 0x9f
 8004996:	460c      	mov	r4, r1
 8004998:	f011 0f80 	tst.w	r1, #128	; 0x80
 800499c:	b2ed      	uxtb	r5, r5
 800499e:	bf18      	it	ne
 80049a0:	247f      	movne	r4, #127	; 0x7f
 80049a2:	4631      	mov	r1, r6
 80049a4:	f015 0f80 	tst.w	r5, #128	; 0x80
 80049a8:	f04f 0017 	mov.w	r0, #23
 80049ac:	bf18      	it	ne
 80049ae:	257f      	movne	r5, #127	; 0x7f
 80049b0:	f7ff ff98 	bl	80048e4 <LBF_OLED_WriteReg>
 80049b4:	4639      	mov	r1, r7
 80049b6:	2018      	movs	r0, #24
 80049b8:	f7ff ff94 	bl	80048e4 <LBF_OLED_WriteReg>
 80049bc:	4621      	mov	r1, r4
 80049be:	2019      	movs	r0, #25
 80049c0:	f7ff ff90 	bl	80048e4 <LBF_OLED_WriteReg>
 80049c4:	4629      	mov	r1, r5
 80049c6:	201a      	movs	r0, #26
 80049c8:	f7ff ff8c 	bl	80048e4 <LBF_OLED_WriteReg>
 80049cc:	4631      	mov	r1, r6
 80049ce:	2020      	movs	r0, #32
 80049d0:	f7ff ff88 	bl	80048e4 <LBF_OLED_WriteReg>
 80049d4:	4621      	mov	r1, r4
 80049d6:	2021      	movs	r0, #33	; 0x21
 80049d8:	e8bd 40f8 	ldmia.w	sp!, {r3, r4, r5, r6, r7, lr}
 80049dc:	f7ff bf82 	b.w	80048e4 <LBF_OLED_WriteReg>

080049e0 <LBF_OLED_Fill>:
 80049e0:	b570      	push	{r4, r5, r6, lr}
 80049e2:	461c      	mov	r4, r3
 80049e4:	4616      	mov	r6, r2
 80049e6:	f8bd 5010 	ldrh.w	r5, [sp, #16]
 80049ea:	f7ff ffc7 	bl	800497c <LBF_OLED_SetRegion>
 80049ee:	f7ff ffa5 	bl	800493c <LBF_OLED_DataStart>
 80049f2:	fb16 f604 	smulbb	r6, r6, r4
 80049f6:	2400      	movs	r4, #0
 80049f8:	b2a3      	uxth	r3, r4
 80049fa:	42b3      	cmp	r3, r6
 80049fc:	f104 0401 	add.w	r4, r4, #1
 8004a00:	da03      	bge.n	8004a0a <LBF_OLED_Fill+0x2a>
 8004a02:	4628      	mov	r0, r5
 8004a04:	f7ff ff64 	bl	80048d0 <LBF_OLED_SendData>
 8004a08:	e7f6      	b.n	80049f8 <LBF_OLED_Fill+0x18>
 8004a0a:	e8bd 4070 	ldmia.w	sp!, {r4, r5, r6, lr}
 8004a0e:	f7ff bfad 	b.w	800496c <LBF_OLED_DataEnd>

08004a12 <LBF_OLED_Clear>:
 8004a12:	b507      	push	{r0, r1, r2, lr}
 8004a14:	2000      	movs	r0, #0
 8004a16:	9000      	str	r0, [sp, #0]
 8004a18:	4601      	mov	r1, r0
 8004a1a:	22a0      	movs	r2, #160	; 0xa0
 8004a1c:	2380      	movs	r3, #128	; 0x80
 8004a1e:	f7ff ffdf 	bl	80049e0 <LBF_OLED_Fill>
 8004a22:	b003      	add	sp, #12
 8004a24:	f85d fb04 	ldr.w	pc, [sp], #4

08004a28 <LBF_OLED_Switch_ON>:
 8004a28:	b508      	push	{r3, lr}
 8004a2a:	f000 f809 	bl	8004a40 <Turn_VDDH_On>
 8004a2e:	2064      	movs	r0, #100	; 0x64
 8004a30:	f000 f822 	bl	8004a78 <LBF_Delay_ms>
 8004a34:	2006      	movs	r0, #6
 8004a36:	2101      	movs	r1, #1
 8004a38:	e8bd 4008 	ldmia.w	sp!, {r3, lr}
 8004a3c:	f7ff bf52 	b.w	80048e4 <LBF_OLED_WriteReg>

08004a40 <Turn_VDDH_On>:
 8004a40:	b508      	push	{r3, lr}
 8004a42:	2101      	movs	r1, #1
 8004a44:	460a      	mov	r2, r1
 8004a46:	4803      	ldr	r0, [pc, #12]	; (8004a54 <Turn_VDDH_On+0x14>)
 8004a48:	f7fc faf0 	bl	800102c <HAL_GPIO_WritePin>
 8004a4c:	4b02      	ldr	r3, [pc, #8]	; (8004a58 <Turn_VDDH_On+0x18>)
 8004a4e:	2201      	movs	r2, #1
 8004a50:	701a      	strb	r2, [r3, #0]
 8004a52:	bd08      	pop	{r3, pc}
 8004a54:	48000800 	.word	0x48000800
 8004a58:	20000461 	.word	0x20000461

08004a5c <Turn_VDDH_Off>:
 8004a5c:	b508      	push	{r3, lr}
 8004a5e:	2200      	movs	r2, #0
 8004a60:	4803      	ldr	r0, [pc, #12]	; (8004a70 <Turn_VDDH_Off+0x14>)
 8004a62:	2101      	movs	r1, #1
 8004a64:	f7fc fae2 	bl	800102c <HAL_GPIO_WritePin>
 8004a68:	4b02      	ldr	r3, [pc, #8]	; (8004a74 <Turn_VDDH_Off+0x18>)
 8004a6a:	2200      	movs	r2, #0
 8004a6c:	701a      	strb	r2, [r3, #0]
 8004a6e:	bd08      	pop	{r3, pc}
 8004a70:	48000800 	.word	0x48000800
 8004a74:	20000461 	.word	0x20000461

08004a78 <LBF_Delay_ms>:
 8004a78:	b538      	push	{r3, r4, r5, lr}
 8004a7a:	4c0a      	ldr	r4, [pc, #40]	; (8004aa4 <LBF_Delay_ms+0x2c>)
 8004a7c:	f64e 2560 	movw	r5, #60000	; 0xea60
 8004a80:	f64f 72ff 	movw	r2, #65535	; 0xffff
 8004a84:	f44f 717a 	mov.w	r1, #1000	; 0x3e8
 8004a88:	42a8      	cmp	r0, r5
 8004a8a:	bf38      	it	cc
 8004a8c:	4605      	movcc	r5, r0
 8004a8e:	2003      	movs	r0, #3
 8004a90:	f000 f80a 	bl	8004aa8 <LBF_Timer_Setup>
 8004a94:	4620      	mov	r0, r4
 8004a96:	f7fe fca2 	bl	80033de <HAL_TIM_Base_Start>
 8004a9a:	6822      	ldr	r2, [r4, #0]
 8004a9c:	6a53      	ldr	r3, [r2, #36]	; 0x24
 8004a9e:	42ab      	cmp	r3, r5
 8004aa0:	d3fc      	bcc.n	8004a9c <LBF_Delay_ms+0x24>
 8004aa2:	bd38      	pop	{r3, r4, r5, pc}
 8004aa4:	20000674 	.word	0x20000674

08004aa8 <LBF_Timer_Setup>:
 8004aa8:	b5f0      	push	{r4, r5, r6, r7, lr}
 8004aaa:	1e43      	subs	r3, r0, #1
 8004aac:	b09b      	sub	sp, #108	; 0x6c
 8004aae:	4686      	mov	lr, r0
 8004ab0:	460f      	mov	r7, r1
 8004ab2:	4616      	mov	r6, r2
 8004ab4:	2b10      	cmp	r3, #16
 8004ab6:	f200 80b8 	bhi.w	8004c2a <LBF_Timer_Setup+0x182>
 8004aba:	e8df f013 	tbh	[pc, r3, lsl #1]
 8004abe:	0011      	.short	0x0011
 8004ac0:	002e001f 	.word	0x002e001f
 8004ac4:	004a003c 	.word	0x004a003c
 8004ac8:	00660058 	.word	0x00660058
 8004acc:	00b60074 	.word	0x00b60074
 8004ad0:	00b600b6 	.word	0x00b600b6
 8004ad4:	00b600b6 	.word	0x00b600b6
 8004ad8:	008200b6 	.word	0x008200b6
 8004adc:	009e0090 	.word	0x009e0090
 8004ae0:	4b61      	ldr	r3, [pc, #388]	; (8004c68 <LBF_Timer_Setup+0x1c0>)
 8004ae2:	4c62      	ldr	r4, [pc, #392]	; (8004c6c <LBF_Timer_Setup+0x1c4>)
 8004ae4:	6e1a      	ldr	r2, [r3, #96]	; 0x60
 8004ae6:	f442 6200 	orr.w	r2, r2, #2048	; 0x800
 8004aea:	661a      	str	r2, [r3, #96]	; 0x60
 8004aec:	6e1b      	ldr	r3, [r3, #96]	; 0x60
 8004aee:	f403 6300 	and.w	r3, r3, #2048	; 0x800
 8004af2:	9300      	str	r3, [sp, #0]
 8004af4:	9b00      	ldr	r3, [sp, #0]
 8004af6:	4b5e      	ldr	r3, [pc, #376]	; (8004c70 <LBF_Timer_Setup+0x1c8>)
 8004af8:	930b      	str	r3, [sp, #44]	; 0x2c
 8004afa:	e08b      	b.n	8004c14 <LBF_Timer_Setup+0x16c>
 8004afc:	4b5a      	ldr	r3, [pc, #360]	; (8004c68 <LBF_Timer_Setup+0x1c0>)
 8004afe:	4c5d      	ldr	r4, [pc, #372]	; (8004c74 <LBF_Timer_Setup+0x1cc>)
 8004b00:	6d9a      	ldr	r2, [r3, #88]	; 0x58
 8004b02:	f042 0201 	orr.w	r2, r2, #1
 8004b06:	659a      	str	r2, [r3, #88]	; 0x58
 8004b08:	6d9b      	ldr	r3, [r3, #88]	; 0x58
 8004b0a:	f003 0301 	and.w	r3, r3, #1
 8004b0e:	9301      	str	r3, [sp, #4]
 8004b10:	9b01      	ldr	r3, [sp, #4]
 8004b12:	f04f 4380 	mov.w	r3, #1073741824	; 0x40000000
 8004b16:	930b      	str	r3, [sp, #44]	; 0x2c
 8004b18:	e07c      	b.n	8004c14 <LBF_Timer_Setup+0x16c>
 8004b1a:	4b53      	ldr	r3, [pc, #332]	; (8004c68 <LBF_Timer_Setup+0x1c0>)
 8004b1c:	4c56      	ldr	r4, [pc, #344]	; (8004c78 <LBF_Timer_Setup+0x1d0>)
 8004b1e:	6d9a      	ldr	r2, [r3, #88]	; 0x58
 8004b20:	f042 0202 	orr.w	r2, r2, #2
 8004b24:	659a      	str	r2, [r3, #88]	; 0x58
 8004b26:	6d9b      	ldr	r3, [r3, #88]	; 0x58
 8004b28:	f003 0302 	and.w	r3, r3, #2
 8004b2c:	9302      	str	r3, [sp, #8]
 8004b2e:	9b02      	ldr	r3, [sp, #8]
 8004b30:	4b52      	ldr	r3, [pc, #328]	; (8004c7c <LBF_Timer_Setup+0x1d4>)
 8004b32:	930b      	str	r3, [sp, #44]	; 0x2c
 8004b34:	e06e      	b.n	8004c14 <LBF_Timer_Setup+0x16c>
 8004b36:	4b4c      	ldr	r3, [pc, #304]	; (8004c68 <LBF_Timer_Setup+0x1c0>)
 8004b38:	4c51      	ldr	r4, [pc, #324]	; (8004c80 <LBF_Timer_Setup+0x1d8>)
 8004b3a:	6d9a      	ldr	r2, [r3, #88]	; 0x58
 8004b3c:	f042 0204 	orr.w	r2, r2, #4
 8004b40:	659a      	str	r2, [r3, #88]	; 0x58
 8004b42:	6d9b      	ldr	r3, [r3, #88]	; 0x58
 8004b44:	f003 0304 	and.w	r3, r3, #4
 8004b48:	9303      	str	r3, [sp, #12]
 8004b4a:	9b03      	ldr	r3, [sp, #12]
 8004b4c:	4b4d      	ldr	r3, [pc, #308]	; (8004c84 <LBF_Timer_Setup+0x1dc>)
 8004b4e:	930b      	str	r3, [sp, #44]	; 0x2c
 8004b50:	e060      	b.n	8004c14 <LBF_Timer_Setup+0x16c>
 8004b52:	4b45      	ldr	r3, [pc, #276]	; (8004c68 <LBF_Timer_Setup+0x1c0>)
 8004b54:	4c4c      	ldr	r4, [pc, #304]	; (8004c88 <LBF_Timer_Setup+0x1e0>)
 8004b56:	6d9a      	ldr	r2, [r3, #88]	; 0x58
 8004b58:	f042 0208 	orr.w	r2, r2, #8
 8004b5c:	659a      	str	r2, [r3, #88]	; 0x58
 8004b5e:	6d9b      	ldr	r3, [r3, #88]	; 0x58
 8004b60:	f003 0308 	and.w	r3, r3, #8
 8004b64:	9304      	str	r3, [sp, #16]
 8004b66:	9b04      	ldr	r3, [sp, #16]
 8004b68:	4b48      	ldr	r3, [pc, #288]	; (8004c8c <LBF_Timer_Setup+0x1e4>)
 8004b6a:	930b      	str	r3, [sp, #44]	; 0x2c
 8004b6c:	e052      	b.n	8004c14 <LBF_Timer_Setup+0x16c>
 8004b6e:	4b3e      	ldr	r3, [pc, #248]	; (8004c68 <LBF_Timer_Setup+0x1c0>)
 8004b70:	4c47      	ldr	r4, [pc, #284]	; (8004c90 <LBF_Timer_Setup+0x1e8>)
 8004b72:	6d9a      	ldr	r2, [r3, #88]	; 0x58
 8004b74:	f042 0210 	orr.w	r2, r2, #16
 8004b78:	659a      	str	r2, [r3, #88]	; 0x58
 8004b7a:	6d9b      	ldr	r3, [r3, #88]	; 0x58
 8004b7c:	f003 0310 	and.w	r3, r3, #16
 8004b80:	9305      	str	r3, [sp, #20]
 8004b82:	9b05      	ldr	r3, [sp, #20]
 8004b84:	4b43      	ldr	r3, [pc, #268]	; (8004c94 <LBF_Timer_Setup+0x1ec>)
 8004b86:	930b      	str	r3, [sp, #44]	; 0x2c
 8004b88:	e044      	b.n	8004c14 <LBF_Timer_Setup+0x16c>
 8004b8a:	4b37      	ldr	r3, [pc, #220]	; (8004c68 <LBF_Timer_Setup+0x1c0>)
 8004b8c:	4c42      	ldr	r4, [pc, #264]	; (8004c98 <LBF_Timer_Setup+0x1f0>)
 8004b8e:	6d9a      	ldr	r2, [r3, #88]	; 0x58
 8004b90:	f042 0220 	orr.w	r2, r2, #32
 8004b94:	659a      	str	r2, [r3, #88]	; 0x58
 8004b96:	6d9b      	ldr	r3, [r3, #88]	; 0x58
 8004b98:	f003 0320 	and.w	r3, r3, #32
 8004b9c:	9306      	str	r3, [sp, #24]
 8004b9e:	9b06      	ldr	r3, [sp, #24]
 8004ba0:	4b3e      	ldr	r3, [pc, #248]	; (8004c9c <LBF_Timer_Setup+0x1f4>)
 8004ba2:	930b      	str	r3, [sp, #44]	; 0x2c
 8004ba4:	e036      	b.n	8004c14 <LBF_Timer_Setup+0x16c>
 8004ba6:	4b30      	ldr	r3, [pc, #192]	; (8004c68 <LBF_Timer_Setup+0x1c0>)
 8004ba8:	4c3d      	ldr	r4, [pc, #244]	; (8004ca0 <LBF_Timer_Setup+0x1f8>)
 8004baa:	6e1a      	ldr	r2, [r3, #96]	; 0x60
 8004bac:	f442 5200 	orr.w	r2, r2, #8192	; 0x2000
 8004bb0:	661a      	str	r2, [r3, #96]	; 0x60
 8004bb2:	6e1b      	ldr	r3, [r3, #96]	; 0x60
 8004bb4:	f403 5300 	and.w	r3, r3, #8192	; 0x2000
 8004bb8:	9307      	str	r3, [sp, #28]
 8004bba:	9b07      	ldr	r3, [sp, #28]
 8004bbc:	4b39      	ldr	r3, [pc, #228]	; (8004ca4 <LBF_Timer_Setup+0x1fc>)
 8004bbe:	930b      	str	r3, [sp, #44]	; 0x2c
 8004bc0:	e028      	b.n	8004c14 <LBF_Timer_Setup+0x16c>
 8004bc2:	4b29      	ldr	r3, [pc, #164]	; (8004c68 <LBF_Timer_Setup+0x1c0>)
 8004bc4:	4c38      	ldr	r4, [pc, #224]	; (8004ca8 <LBF_Timer_Setup+0x200>)
 8004bc6:	6e1a      	ldr	r2, [r3, #96]	; 0x60
 8004bc8:	f442 3280 	orr.w	r2, r2, #65536	; 0x10000
 8004bcc:	661a      	str	r2, [r3, #96]	; 0x60
 8004bce:	6e1b      	ldr	r3, [r3, #96]	; 0x60
 8004bd0:	f403 3380 	and.w	r3, r3, #65536	; 0x10000
 8004bd4:	9308      	str	r3, [sp, #32]
 8004bd6:	9b08      	ldr	r3, [sp, #32]
 8004bd8:	4b34      	ldr	r3, [pc, #208]	; (8004cac <LBF_Timer_Setup+0x204>)
 8004bda:	930b      	str	r3, [sp, #44]	; 0x2c
 8004bdc:	e01a      	b.n	8004c14 <LBF_Timer_Setup+0x16c>
 8004bde:	4b22      	ldr	r3, [pc, #136]	; (8004c68 <LBF_Timer_Setup+0x1c0>)
 8004be0:	4c33      	ldr	r4, [pc, #204]	; (8004cb0 <LBF_Timer_Setup+0x208>)
 8004be2:	6e1a      	ldr	r2, [r3, #96]	; 0x60
 8004be4:	f442 3200 	orr.w	r2, r2, #131072	; 0x20000
 8004be8:	661a      	str	r2, [r3, #96]	; 0x60
 8004bea:	6e1b      	ldr	r3, [r3, #96]	; 0x60
 8004bec:	f403 3300 	and.w	r3, r3, #131072	; 0x20000
 8004bf0:	9309      	str	r3, [sp, #36]	; 0x24
 8004bf2:	9b09      	ldr	r3, [sp, #36]	; 0x24
 8004bf4:	4b2f      	ldr	r3, [pc, #188]	; (8004cb4 <LBF_Timer_Setup+0x20c>)
 8004bf6:	930b      	str	r3, [sp, #44]	; 0x2c
 8004bf8:	e00c      	b.n	8004c14 <LBF_Timer_Setup+0x16c>
 8004bfa:	4b1b      	ldr	r3, [pc, #108]	; (8004c68 <LBF_Timer_Setup+0x1c0>)
 8004bfc:	4c2e      	ldr	r4, [pc, #184]	; (8004cb8 <LBF_Timer_Setup+0x210>)
 8004bfe:	6e1a      	ldr	r2, [r3, #96]	; 0x60
 8004c00:	f442 2280 	orr.w	r2, r2, #262144	; 0x40000
 8004c04:	661a      	str	r2, [r3, #96]	; 0x60
 8004c06:	6e1b      	ldr	r3, [r3, #96]	; 0x60
 8004c08:	f403 2380 	and.w	r3, r3, #262144	; 0x40000
 8004c0c:	930a      	str	r3, [sp, #40]	; 0x28
 8004c0e:	9b0a      	ldr	r3, [sp, #40]	; 0x28
 8004c10:	4b2a      	ldr	r3, [pc, #168]	; (8004cbc <LBF_Timer_Setup+0x214>)
 8004c12:	930b      	str	r3, [sp, #44]	; 0x2c
 8004c14:	ad0b      	add	r5, sp, #44	; 0x2c
 8004c16:	cd0f      	ldmia	r5!, {r0, r1, r2, r3}
 8004c18:	c40f      	stmia	r4!, {r0, r1, r2, r3}
 8004c1a:	cd0f      	ldmia	r5!, {r0, r1, r2, r3}
 8004c1c:	c40f      	stmia	r4!, {r0, r1, r2, r3}
 8004c1e:	cd0f      	ldmia	r5!, {r0, r1, r2, r3}
 8004c20:	c40f      	stmia	r4!, {r0, r1, r2, r3}
 8004c22:	e895 0007 	ldmia.w	r5, {r0, r1, r2}
 8004c26:	e884 0007 	stmia.w	r4, {r0, r1, r2}
 8004c2a:	f1ae 0e02 	sub.w	lr, lr, #2
 8004c2e:	f1be 0f05 	cmp.w	lr, #5
 8004c32:	d802      	bhi.n	8004c3a <LBF_Timer_Setup+0x192>
 8004c34:	f7fd fdc0 	bl	80027b8 <HAL_RCC_GetPCLK1Freq>
 8004c38:	e001      	b.n	8004c3e <LBF_Timer_Setup+0x196>
 8004c3a:	f7fd fdd3 	bl	80027e4 <HAL_RCC_GetPCLK2Freq>
 8004c3e:	f44f 737a 	mov.w	r3, #1000	; 0x3e8
 8004c42:	0040      	lsls	r0, r0, #1
 8004c44:	fbb0 f0f3 	udiv	r0, r0, r3
 8004c48:	4347      	muls	r7, r0
 8004c4a:	fbb7 f3f3 	udiv	r3, r7, r3
 8004c4e:	3b01      	subs	r3, #1
 8004c50:	930c      	str	r3, [sp, #48]	; 0x30
 8004c52:	3e01      	subs	r6, #1
 8004c54:	2300      	movs	r3, #0
 8004c56:	a80b      	add	r0, sp, #44	; 0x2c
 8004c58:	960e      	str	r6, [sp, #56]	; 0x38
 8004c5a:	930d      	str	r3, [sp, #52]	; 0x34
 8004c5c:	930f      	str	r3, [sp, #60]	; 0x3c
 8004c5e:	f7fe fc2d 	bl	80034bc <HAL_TIM_Base_Init>
 8004c62:	b01b      	add	sp, #108	; 0x6c
 8004c64:	bdf0      	pop	{r4, r5, r6, r7, pc}
 8004c66:	bf00      	nop
 8004c68:	40021000 	.word	0x40021000
 8004c6c:	200006ec 	.word	0x200006ec
 8004c70:	40012c00 	.word	0x40012c00
 8004c74:	20000728 	.word	0x20000728
 8004c78:	20000674 	.word	0x20000674
 8004c7c:	40000400 	.word	0x40000400
 8004c80:	20000584 	.word	0x20000584
 8004c84:	40000800 	.word	0x40000800
 8004c88:	20000638 	.word	0x20000638
 8004c8c:	40000c00 	.word	0x40000c00
 8004c90:	200006b0 	.word	0x200006b0
 8004c94:	40001000 	.word	0x40001000
 8004c98:	200007a0 	.word	0x200007a0
 8004c9c:	40001400 	.word	0x40001400
 8004ca0:	20000548 	.word	0x20000548
 8004ca4:	40013400 	.word	0x40013400
 8004ca8:	200005c0 	.word	0x200005c0
 8004cac:	40014000 	.word	0x40014000
 8004cb0:	20000764 	.word	0x20000764
 8004cb4:	40014400 	.word	0x40014400
 8004cb8:	200005fc 	.word	0x200005fc
 8004cbc:	40014800 	.word	0x40014800

08004cc0 <LBF_BATT_IOcfg>:
 8004cc0:	b570      	push	{r4, r5, r6, lr}
 8004cc2:	4c0e      	ldr	r4, [pc, #56]	; (8004cfc <LBF_BATT_IOcfg+0x3c>)
 8004cc4:	b086      	sub	sp, #24
 8004cc6:	2500      	movs	r5, #0
 8004cc8:	2680      	movs	r6, #128	; 0x80
 8004cca:	2311      	movs	r3, #17
 8004ccc:	4620      	mov	r0, r4
 8004cce:	a901      	add	r1, sp, #4
 8004cd0:	9302      	str	r3, [sp, #8]
 8004cd2:	9601      	str	r6, [sp, #4]
 8004cd4:	9503      	str	r5, [sp, #12]
 8004cd6:	9504      	str	r5, [sp, #16]
 8004cd8:	f7fc f8cc 	bl	8000e74 <HAL_GPIO_Init>
 8004cdc:	2302      	movs	r3, #2
 8004cde:	9301      	str	r3, [sp, #4]
 8004ce0:	4620      	mov	r0, r4
 8004ce2:	2303      	movs	r3, #3
 8004ce4:	a901      	add	r1, sp, #4
 8004ce6:	9302      	str	r3, [sp, #8]
 8004ce8:	9503      	str	r5, [sp, #12]
 8004cea:	f7fc f8c3 	bl	8000e74 <HAL_GPIO_Init>
 8004cee:	4620      	mov	r0, r4
 8004cf0:	4631      	mov	r1, r6
 8004cf2:	2201      	movs	r2, #1
 8004cf4:	f7fc f99a 	bl	800102c <HAL_GPIO_WritePin>
 8004cf8:	b006      	add	sp, #24
 8004cfa:	bd70      	pop	{r4, r5, r6, pc}
 8004cfc:	48000800 	.word	0x48000800

08004d00 <LBF_Board_Fixed_Inits>:
 8004d00:	b51f      	push	{r0, r1, r2, r3, r4, lr}
 8004d02:	4b2b      	ldr	r3, [pc, #172]	; (8004db0 <LBF_Board_Fixed_Inits+0xb0>)
 8004d04:	681a      	ldr	r2, [r3, #0]
 8004d06:	f442 7280 	orr.w	r2, r2, #256	; 0x100
 8004d0a:	601a      	str	r2, [r3, #0]
 8004d0c:	2003      	movs	r0, #3
 8004d0e:	f7fc f83f 	bl	8000d90 <HAL_NVIC_SetPriorityGrouping>
 8004d12:	200f      	movs	r0, #15
 8004d14:	f7fc f81c 	bl	8000d50 <HAL_InitTick>
 8004d18:	f000 fdb8 	bl	800588c <LBF_SysClkCfg>
 8004d1c:	4b25      	ldr	r3, [pc, #148]	; (8004db4 <LBF_Board_Fixed_Inits+0xb4>)
 8004d1e:	6cda      	ldr	r2, [r3, #76]	; 0x4c
 8004d20:	f042 0201 	orr.w	r2, r2, #1
 8004d24:	64da      	str	r2, [r3, #76]	; 0x4c
 8004d26:	6cda      	ldr	r2, [r3, #76]	; 0x4c
 8004d28:	f002 0201 	and.w	r2, r2, #1
 8004d2c:	9200      	str	r2, [sp, #0]
 8004d2e:	9a00      	ldr	r2, [sp, #0]
 8004d30:	6cda      	ldr	r2, [r3, #76]	; 0x4c
 8004d32:	f042 0202 	orr.w	r2, r2, #2
 8004d36:	64da      	str	r2, [r3, #76]	; 0x4c
 8004d38:	6cda      	ldr	r2, [r3, #76]	; 0x4c
 8004d3a:	f002 0202 	and.w	r2, r2, #2
 8004d3e:	9201      	str	r2, [sp, #4]
 8004d40:	9a01      	ldr	r2, [sp, #4]
 8004d42:	6cda      	ldr	r2, [r3, #76]	; 0x4c
 8004d44:	f042 0204 	orr.w	r2, r2, #4
 8004d48:	64da      	str	r2, [r3, #76]	; 0x4c
 8004d4a:	6cda      	ldr	r2, [r3, #76]	; 0x4c
 8004d4c:	f002 0204 	and.w	r2, r2, #4
 8004d50:	9202      	str	r2, [sp, #8]
 8004d52:	9a02      	ldr	r2, [sp, #8]
 8004d54:	6cda      	ldr	r2, [r3, #76]	; 0x4c
 8004d56:	f042 0208 	orr.w	r2, r2, #8
 8004d5a:	64da      	str	r2, [r3, #76]	; 0x4c
 8004d5c:	6cdb      	ldr	r3, [r3, #76]	; 0x4c
 8004d5e:	f003 0308 	and.w	r3, r3, #8
 8004d62:	9303      	str	r3, [sp, #12]
 8004d64:	9b03      	ldr	r3, [sp, #12]
 8004d66:	f000 fcb7 	bl	80056d8 <LBF_PWR_IOcfg>
 8004d6a:	f000 fd6f 	bl	800584c <LBF_SPI3_IOcfg>
 8004d6e:	f000 fd2b 	bl	80057c8 <LBF_SPI1_IOcfg>
 8004d72:	f000 fde3 	bl	800593c <LBF_UART3_IOcfg>
 8004d76:	f7ff ffa3 	bl	8004cc0 <LBF_BATT_IOcfg>
 8004d7a:	f000 fb6b 	bl	8005454 <LBF_LED_IOcfg>
 8004d7e:	f000 fb7b 	bl	8005478 <LBF_SelSwitches_IOcfg>
 8004d82:	f000 fb45 	bl	8005410 <LBF_I2C2_IOcfg>
 8004d86:	f000 fb13 	bl	80053b0 <LBF_FLASH_IOcfg>
 8004d8a:	f000 fc67 	bl	800565c <LBF_OLED_IOcfg>
 8004d8e:	f000 f821 	bl	8004dd4 <LBF_BTLE_IOcfg>
 8004d92:	f000 fe0f 	bl	80059b4 <LBF_USB_IOcfg>
 8004d96:	f000 fcfd 	bl	8005794 <LBF_SPI1_Init>
 8004d9a:	f000 fd3d 	bl	8005818 <LBF_SPI3_Init>
 8004d9e:	f000 fb21 	bl	80053e4 <LBF_I2C2_Init>
 8004da2:	f000 fb85 	bl	80054b0 <LBF_LSE_RTC_Cfg>
 8004da6:	f000 fae5 	bl	8005374 <LBF_FLASH_Init>
 8004daa:	b005      	add	sp, #20
 8004dac:	f85d fb04 	ldr.w	pc, [sp], #4
 8004db0:	40022000 	.word	0x40022000
 8004db4:	40021000 	.word	0x40021000

08004db8 <LBF_Board_Selective_Inits>:
 8004db8:	b500      	push	{lr}
 8004dba:	b089      	sub	sp, #36	; 0x24
 8004dbc:	a801      	add	r0, sp, #4
 8004dbe:	f000 fe18 	bl	80059f2 <LBF_User_Conf>
 8004dc2:	a801      	add	r0, sp, #4
 8004dc4:	f000 f844 	bl	8004e50 <LBF_ExtPortConfig>
 8004dc8:	2000      	movs	r0, #0
 8004dca:	f000 fb91 	bl	80054f0 <LBF_OLED_Init>
 8004dce:	b009      	add	sp, #36	; 0x24
 8004dd0:	f85d fb04 	ldr.w	pc, [sp], #4

08004dd4 <LBF_BTLE_IOcfg>:
 8004dd4:	b570      	push	{r4, r5, r6, lr}
 8004dd6:	b086      	sub	sp, #24
 8004dd8:	a906      	add	r1, sp, #24
 8004dda:	4e0a      	ldr	r6, [pc, #40]	; (8004e04 <LBF_BTLE_IOcfg+0x30>)
 8004ddc:	f44f 7500 	mov.w	r5, #512	; 0x200
 8004de0:	2300      	movs	r3, #0
 8004de2:	2401      	movs	r4, #1
 8004de4:	f841 5d14 	str.w	r5, [r1, #-20]!
 8004de8:	4630      	mov	r0, r6
 8004dea:	9303      	str	r3, [sp, #12]
 8004dec:	9304      	str	r3, [sp, #16]
 8004dee:	9402      	str	r4, [sp, #8]
 8004df0:	f7fc f840 	bl	8000e74 <HAL_GPIO_Init>
 8004df4:	4630      	mov	r0, r6
 8004df6:	4629      	mov	r1, r5
 8004df8:	4622      	mov	r2, r4
 8004dfa:	f7fc f917 	bl	800102c <HAL_GPIO_WritePin>
 8004dfe:	b006      	add	sp, #24
 8004e00:	bd70      	pop	{r4, r5, r6, pc}
 8004e02:	bf00      	nop
 8004e04:	48000800 	.word	0x48000800

08004e08 <Set_GPIO_Mode_Pull>:
 8004e08:	2807      	cmp	r0, #7
 8004e0a:	d81b      	bhi.n	8004e44 <Set_GPIO_Mode_Pull+0x3c>
 8004e0c:	e8df f000 	tbb	[pc, r0]
 8004e10:	09070404 	.word	0x09070404
 8004e14:	16120d0b 	.word	0x16120d0b
 8004e18:	2300      	movs	r3, #0
 8004e1a:	604b      	str	r3, [r1, #4]
 8004e1c:	e011      	b.n	8004e42 <Set_GPIO_Mode_Pull+0x3a>
 8004e1e:	2300      	movs	r3, #0
 8004e20:	e00d      	b.n	8004e3e <Set_GPIO_Mode_Pull+0x36>
 8004e22:	2300      	movs	r3, #0
 8004e24:	e007      	b.n	8004e36 <Set_GPIO_Mode_Pull+0x2e>
 8004e26:	2301      	movs	r3, #1
 8004e28:	e000      	b.n	8004e2c <Set_GPIO_Mode_Pull+0x24>
 8004e2a:	2311      	movs	r3, #17
 8004e2c:	604b      	str	r3, [r1, #4]
 8004e2e:	2300      	movs	r3, #0
 8004e30:	60cb      	str	r3, [r1, #12]
 8004e32:	4770      	bx	lr
 8004e34:	4b04      	ldr	r3, [pc, #16]	; (8004e48 <Set_GPIO_Mode_Pull+0x40>)
 8004e36:	604b      	str	r3, [r1, #4]
 8004e38:	2302      	movs	r3, #2
 8004e3a:	e002      	b.n	8004e42 <Set_GPIO_Mode_Pull+0x3a>
 8004e3c:	4b03      	ldr	r3, [pc, #12]	; (8004e4c <Set_GPIO_Mode_Pull+0x44>)
 8004e3e:	604b      	str	r3, [r1, #4]
 8004e40:	2301      	movs	r3, #1
 8004e42:	608b      	str	r3, [r1, #8]
 8004e44:	4770      	bx	lr
 8004e46:	bf00      	nop
 8004e48:	10110000 	.word	0x10110000
 8004e4c:	10210000 	.word	0x10210000

08004e50 <LBF_ExtPortConfig>:
 8004e50:	b570      	push	{r4, r5, r6, lr}
 8004e52:	7c03      	ldrb	r3, [r0, #16]
 8004e54:	2b16      	cmp	r3, #22
 8004e56:	b08e      	sub	sp, #56	; 0x38
 8004e58:	4604      	mov	r4, r0
 8004e5a:	d104      	bne.n	8004e66 <LBF_ExtPortConfig+0x16>
 8004e5c:	48a7      	ldr	r0, [pc, #668]	; (80050fc <LBF_ExtPortConfig+0x2ac>)
 8004e5e:	2104      	movs	r1, #4
 8004e60:	2201      	movs	r2, #1
 8004e62:	f7fc f8e3 	bl	800102c <HAL_GPIO_WritePin>
 8004e66:	7a22      	ldrb	r2, [r4, #8]
 8004e68:	2a0a      	cmp	r2, #10
 8004e6a:	d002      	beq.n	8004e72 <LBF_ExtPortConfig+0x22>
 8004e6c:	7aa3      	ldrb	r3, [r4, #10]
 8004e6e:	2b0b      	cmp	r3, #11
 8004e70:	d13a      	bne.n	8004ee8 <LBF_ExtPortConfig+0x98>
 8004e72:	4ba3      	ldr	r3, [pc, #652]	; (8005100 <LBF_ExtPortConfig+0x2b0>)
 8004e74:	6d99      	ldr	r1, [r3, #88]	; 0x58
 8004e76:	f441 1100 	orr.w	r1, r1, #2097152	; 0x200000
 8004e7a:	6599      	str	r1, [r3, #88]	; 0x58
 8004e7c:	6d9b      	ldr	r3, [r3, #88]	; 0x58
 8004e7e:	f403 1300 	and.w	r3, r3, #2097152	; 0x200000
 8004e82:	9301      	str	r3, [sp, #4]
 8004e84:	9b01      	ldr	r3, [sp, #4]
 8004e86:	2300      	movs	r3, #0
 8004e88:	930c      	str	r3, [sp, #48]	; 0x30
 8004e8a:	2a0a      	cmp	r2, #10
 8004e8c:	f04f 0304 	mov.w	r3, #4
 8004e90:	930d      	str	r3, [sp, #52]	; 0x34
 8004e92:	d10a      	bne.n	8004eaa <LBF_ExtPortConfig+0x5a>
 8004e94:	f44f 7300 	mov.w	r3, #512	; 0x200
 8004e98:	9309      	str	r3, [sp, #36]	; 0x24
 8004e9a:	2301      	movs	r3, #1
 8004e9c:	930b      	str	r3, [sp, #44]	; 0x2c
 8004e9e:	4899      	ldr	r0, [pc, #612]	; (8005104 <LBF_ExtPortConfig+0x2b4>)
 8004ea0:	2302      	movs	r3, #2
 8004ea2:	a909      	add	r1, sp, #36	; 0x24
 8004ea4:	930a      	str	r3, [sp, #40]	; 0x28
 8004ea6:	f7fb ffe5 	bl	8000e74 <HAL_GPIO_Init>
 8004eaa:	7aa3      	ldrb	r3, [r4, #10]
 8004eac:	2b0b      	cmp	r3, #11
 8004eae:	d10b      	bne.n	8004ec8 <LBF_ExtPortConfig+0x78>
 8004eb0:	9b09      	ldr	r3, [sp, #36]	; 0x24
 8004eb2:	4894      	ldr	r0, [pc, #592]	; (8005104 <LBF_ExtPortConfig+0x2b4>)
 8004eb4:	f443 7380 	orr.w	r3, r3, #256	; 0x100
 8004eb8:	9309      	str	r3, [sp, #36]	; 0x24
 8004eba:	2300      	movs	r3, #0
 8004ebc:	930b      	str	r3, [sp, #44]	; 0x2c
 8004ebe:	a909      	add	r1, sp, #36	; 0x24
 8004ec0:	2312      	movs	r3, #18
 8004ec2:	930a      	str	r3, [sp, #40]	; 0x28
 8004ec4:	f7fb ffd6 	bl	8000e74 <HAL_GPIO_Init>
 8004ec8:	488f      	ldr	r0, [pc, #572]	; (8005108 <LBF_ExtPortConfig+0x2b8>)
 8004eca:	4b90      	ldr	r3, [pc, #576]	; (800510c <LBF_ExtPortConfig+0x2bc>)
 8004ecc:	f8df c254 	ldr.w	ip, [pc, #596]	; 8005124 <LBF_ExtPortConfig+0x2d4>
 8004ed0:	2201      	movs	r2, #1
 8004ed2:	e880 1008 	stmia.w	r0, {r3, ip}
 8004ed6:	2300      	movs	r3, #0
 8004ed8:	6083      	str	r3, [r0, #8]
 8004eda:	60c2      	str	r2, [r0, #12]
 8004edc:	6103      	str	r3, [r0, #16]
 8004ede:	6143      	str	r3, [r0, #20]
 8004ee0:	61c3      	str	r3, [r0, #28]
 8004ee2:	6203      	str	r3, [r0, #32]
 8004ee4:	f7fc f9fc 	bl	80012e0 <HAL_I2C_Init>
 8004ee8:	7ca3      	ldrb	r3, [r4, #18]
 8004eea:	2b0e      	cmp	r3, #14
 8004eec:	7ea3      	ldrb	r3, [r4, #26]
 8004eee:	d008      	beq.n	8004f02 <LBF_ExtPortConfig+0xb2>
 8004ef0:	7d22      	ldrb	r2, [r4, #20]
 8004ef2:	2a0d      	cmp	r2, #13
 8004ef4:	d005      	beq.n	8004f02 <LBF_ExtPortConfig+0xb2>
 8004ef6:	7da2      	ldrb	r2, [r4, #22]
 8004ef8:	2a0c      	cmp	r2, #12
 8004efa:	d002      	beq.n	8004f02 <LBF_ExtPortConfig+0xb2>
 8004efc:	2b0f      	cmp	r3, #15
 8004efe:	d164      	bne.n	8004fca <LBF_ExtPortConfig+0x17a>
 8004f00:	e001      	b.n	8004f06 <LBF_ExtPortConfig+0xb6>
 8004f02:	2b0f      	cmp	r3, #15
 8004f04:	d10e      	bne.n	8004f24 <LBF_ExtPortConfig+0xd4>
 8004f06:	2640      	movs	r6, #64	; 0x40
 8004f08:	2501      	movs	r5, #1
 8004f0a:	f04f 4090 	mov.w	r0, #1207959552	; 0x48000000
 8004f0e:	a909      	add	r1, sp, #36	; 0x24
 8004f10:	9609      	str	r6, [sp, #36]	; 0x24
 8004f12:	950a      	str	r5, [sp, #40]	; 0x28
 8004f14:	f7fb ffae 	bl	8000e74 <HAL_GPIO_Init>
 8004f18:	f04f 4090 	mov.w	r0, #1207959552	; 0x48000000
 8004f1c:	4631      	mov	r1, r6
 8004f1e:	462a      	mov	r2, r5
 8004f20:	f7fc f884 	bl	800102c <HAL_GPIO_WritePin>
 8004f24:	4b76      	ldr	r3, [pc, #472]	; (8005100 <LBF_ExtPortConfig+0x2b0>)
 8004f26:	6d9a      	ldr	r2, [r3, #88]	; 0x58
 8004f28:	f442 3200 	orr.w	r2, r2, #131072	; 0x20000
 8004f2c:	659a      	str	r2, [r3, #88]	; 0x58
 8004f2e:	6d9b      	ldr	r3, [r3, #88]	; 0x58
 8004f30:	f403 3300 	and.w	r3, r3, #131072	; 0x20000
 8004f34:	9302      	str	r3, [sp, #8]
 8004f36:	9b02      	ldr	r3, [sp, #8]
 8004f38:	2302      	movs	r3, #2
 8004f3a:	930a      	str	r3, [sp, #40]	; 0x28
 8004f3c:	2300      	movs	r3, #0
 8004f3e:	930b      	str	r3, [sp, #44]	; 0x2c
 8004f40:	2301      	movs	r3, #1
 8004f42:	930c      	str	r3, [sp, #48]	; 0x30
 8004f44:	2307      	movs	r3, #7
 8004f46:	930d      	str	r3, [sp, #52]	; 0x34
 8004f48:	7ca3      	ldrb	r3, [r4, #18]
 8004f4a:	2b0e      	cmp	r3, #14
 8004f4c:	d107      	bne.n	8004f5e <LBF_ExtPortConfig+0x10e>
 8004f4e:	a90e      	add	r1, sp, #56	; 0x38
 8004f50:	2304      	movs	r3, #4
 8004f52:	f841 3d14 	str.w	r3, [r1, #-20]!
 8004f56:	f04f 4090 	mov.w	r0, #1207959552	; 0x48000000
 8004f5a:	f7fb ff8b 	bl	8000e74 <HAL_GPIO_Init>
 8004f5e:	7d23      	ldrb	r3, [r4, #20]
 8004f60:	2b0d      	cmp	r3, #13
 8004f62:	d107      	bne.n	8004f74 <LBF_ExtPortConfig+0x124>
 8004f64:	a90e      	add	r1, sp, #56	; 0x38
 8004f66:	2308      	movs	r3, #8
 8004f68:	f841 3d14 	str.w	r3, [r1, #-20]!
 8004f6c:	f04f 4090 	mov.w	r0, #1207959552	; 0x48000000
 8004f70:	f7fb ff80 	bl	8000e74 <HAL_GPIO_Init>
 8004f74:	7da3      	ldrb	r3, [r4, #22]
 8004f76:	2b0c      	cmp	r3, #12
 8004f78:	d107      	bne.n	8004f8a <LBF_ExtPortConfig+0x13a>
 8004f7a:	a90e      	add	r1, sp, #56	; 0x38
 8004f7c:	2310      	movs	r3, #16
 8004f7e:	f841 3d14 	str.w	r3, [r1, #-20]!
 8004f82:	f04f 4090 	mov.w	r0, #1207959552	; 0x48000000
 8004f86:	f7fb ff75 	bl	8000e74 <HAL_GPIO_Init>
 8004f8a:	4d61      	ldr	r5, [pc, #388]	; (8005110 <LBF_ExtPortConfig+0x2c0>)
 8004f8c:	4b61      	ldr	r3, [pc, #388]	; (8005114 <LBF_ExtPortConfig+0x2c4>)
 8004f8e:	602b      	str	r3, [r5, #0]
 8004f90:	6823      	ldr	r3, [r4, #0]
 8004f92:	606b      	str	r3, [r5, #4]
 8004f94:	2300      	movs	r3, #0
 8004f96:	220c      	movs	r2, #12
 8004f98:	60ab      	str	r3, [r5, #8]
 8004f9a:	60eb      	str	r3, [r5, #12]
 8004f9c:	612b      	str	r3, [r5, #16]
 8004f9e:	61ab      	str	r3, [r5, #24]
 8004fa0:	61eb      	str	r3, [r5, #28]
 8004fa2:	4628      	mov	r0, r5
 8004fa4:	f44f 7380 	mov.w	r3, #256	; 0x100
 8004fa8:	616a      	str	r2, [r5, #20]
 8004faa:	622b      	str	r3, [r5, #32]
 8004fac:	f7fe fd24 	bl	80039f8 <HAL_USART_Init>
 8004fb0:	682b      	ldr	r3, [r5, #0]
 8004fb2:	681a      	ldr	r2, [r3, #0]
 8004fb4:	f022 0201 	bic.w	r2, r2, #1
 8004fb8:	601a      	str	r2, [r3, #0]
 8004fba:	685a      	ldr	r2, [r3, #4]
 8004fbc:	f442 2200 	orr.w	r2, r2, #524288	; 0x80000
 8004fc0:	605a      	str	r2, [r3, #4]
 8004fc2:	681a      	ldr	r2, [r3, #0]
 8004fc4:	f042 0201 	orr.w	r2, r2, #1
 8004fc8:	601a      	str	r2, [r3, #0]
 8004fca:	7ba2      	ldrb	r2, [r4, #14]
 8004fcc:	2a15      	cmp	r2, #21
 8004fce:	d002      	beq.n	8004fd6 <LBF_ExtPortConfig+0x186>
 8004fd0:	7b23      	ldrb	r3, [r4, #12]
 8004fd2:	2b14      	cmp	r3, #20
 8004fd4:	d134      	bne.n	8005040 <LBF_ExtPortConfig+0x1f0>
 8004fd6:	4b4a      	ldr	r3, [pc, #296]	; (8005100 <LBF_ExtPortConfig+0x2b0>)
 8004fd8:	6d99      	ldr	r1, [r3, #88]	; 0x58
 8004fda:	f441 2100 	orr.w	r1, r1, #524288	; 0x80000
 8004fde:	6599      	str	r1, [r3, #88]	; 0x58
 8004fe0:	6d9b      	ldr	r3, [r3, #88]	; 0x58
 8004fe2:	f403 2300 	and.w	r3, r3, #524288	; 0x80000
 8004fe6:	2101      	movs	r1, #1
 8004fe8:	9303      	str	r3, [sp, #12]
 8004fea:	9b03      	ldr	r3, [sp, #12]
 8004fec:	910b      	str	r1, [sp, #44]	; 0x2c
 8004fee:	2302      	movs	r3, #2
 8004ff0:	910c      	str	r1, [sp, #48]	; 0x30
 8004ff2:	2a15      	cmp	r2, #21
 8004ff4:	f04f 0108 	mov.w	r1, #8
 8004ff8:	930a      	str	r3, [sp, #40]	; 0x28
 8004ffa:	910d      	str	r1, [sp, #52]	; 0x34
 8004ffc:	d106      	bne.n	800500c <LBF_ExtPortConfig+0x1bc>
 8004ffe:	a90e      	add	r1, sp, #56	; 0x38
 8005000:	f04f 4090 	mov.w	r0, #1207959552	; 0x48000000
 8005004:	f841 3d14 	str.w	r3, [r1, #-20]!
 8005008:	f7fb ff34 	bl	8000e74 <HAL_GPIO_Init>
 800500c:	7b23      	ldrb	r3, [r4, #12]
 800500e:	2b14      	cmp	r3, #20
 8005010:	d107      	bne.n	8005022 <LBF_ExtPortConfig+0x1d2>
 8005012:	a90e      	add	r1, sp, #56	; 0x38
 8005014:	2301      	movs	r3, #1
 8005016:	f841 3d14 	str.w	r3, [r1, #-20]!
 800501a:	f04f 4090 	mov.w	r0, #1207959552	; 0x48000000
 800501e:	f7fb ff29 	bl	8000e74 <HAL_GPIO_Init>
 8005022:	483d      	ldr	r0, [pc, #244]	; (8005118 <LBF_ExtPortConfig+0x2c8>)
 8005024:	4b3d      	ldr	r3, [pc, #244]	; (800511c <LBF_ExtPortConfig+0x2cc>)
 8005026:	6003      	str	r3, [r0, #0]
 8005028:	6863      	ldr	r3, [r4, #4]
 800502a:	6043      	str	r3, [r0, #4]
 800502c:	220c      	movs	r2, #12
 800502e:	2300      	movs	r3, #0
 8005030:	6083      	str	r3, [r0, #8]
 8005032:	60c3      	str	r3, [r0, #12]
 8005034:	6103      	str	r3, [r0, #16]
 8005036:	6142      	str	r2, [r0, #20]
 8005038:	6183      	str	r3, [r0, #24]
 800503a:	61c3      	str	r3, [r0, #28]
 800503c:	f7fe fc79 	bl	8003932 <HAL_UART_Init>
 8005040:	7ca2      	ldrb	r2, [r4, #18]
 8005042:	2a10      	cmp	r2, #16
 8005044:	d008      	beq.n	8005058 <LBF_ExtPortConfig+0x208>
 8005046:	7d23      	ldrb	r3, [r4, #20]
 8005048:	2b11      	cmp	r3, #17
 800504a:	d005      	beq.n	8005058 <LBF_ExtPortConfig+0x208>
 800504c:	7b23      	ldrb	r3, [r4, #12]
 800504e:	2b13      	cmp	r3, #19
 8005050:	d002      	beq.n	8005058 <LBF_ExtPortConfig+0x208>
 8005052:	7ba3      	ldrb	r3, [r4, #14]
 8005054:	2b12      	cmp	r3, #18
 8005056:	d16c      	bne.n	8005132 <LBF_ExtPortConfig+0x2e2>
 8005058:	4b29      	ldr	r3, [pc, #164]	; (8005100 <LBF_ExtPortConfig+0x2b0>)
 800505a:	6d99      	ldr	r1, [r3, #88]	; 0x58
 800505c:	f441 3100 	orr.w	r1, r1, #131072	; 0x20000
 8005060:	6599      	str	r1, [r3, #88]	; 0x58
 8005062:	6d9b      	ldr	r3, [r3, #88]	; 0x58
 8005064:	f403 3300 	and.w	r3, r3, #131072	; 0x20000
 8005068:	9304      	str	r3, [sp, #16]
 800506a:	9b04      	ldr	r3, [sp, #16]
 800506c:	2302      	movs	r3, #2
 800506e:	930a      	str	r3, [sp, #40]	; 0x28
 8005070:	2300      	movs	r3, #0
 8005072:	930b      	str	r3, [sp, #44]	; 0x2c
 8005074:	2301      	movs	r3, #1
 8005076:	930c      	str	r3, [sp, #48]	; 0x30
 8005078:	2a10      	cmp	r2, #16
 800507a:	f04f 0307 	mov.w	r3, #7
 800507e:	930d      	str	r3, [sp, #52]	; 0x34
 8005080:	d107      	bne.n	8005092 <LBF_ExtPortConfig+0x242>
 8005082:	a90e      	add	r1, sp, #56	; 0x38
 8005084:	2304      	movs	r3, #4
 8005086:	f841 3d14 	str.w	r3, [r1, #-20]!
 800508a:	f04f 4090 	mov.w	r0, #1207959552	; 0x48000000
 800508e:	f7fb fef1 	bl	8000e74 <HAL_GPIO_Init>
 8005092:	7d23      	ldrb	r3, [r4, #20]
 8005094:	2b11      	cmp	r3, #17
 8005096:	d107      	bne.n	80050a8 <LBF_ExtPortConfig+0x258>
 8005098:	a90e      	add	r1, sp, #56	; 0x38
 800509a:	2308      	movs	r3, #8
 800509c:	f841 3d14 	str.w	r3, [r1, #-20]!
 80050a0:	f04f 4090 	mov.w	r0, #1207959552	; 0x48000000
 80050a4:	f7fb fee6 	bl	8000e74 <HAL_GPIO_Init>
 80050a8:	7b23      	ldrb	r3, [r4, #12]
 80050aa:	2b13      	cmp	r3, #19
 80050ac:	d109      	bne.n	80050c2 <LBF_ExtPortConfig+0x272>
 80050ae:	a90e      	add	r1, sp, #56	; 0x38
 80050b0:	2501      	movs	r5, #1
 80050b2:	f841 5d14 	str.w	r5, [r1, #-20]!
 80050b6:	f04f 4090 	mov.w	r0, #1207959552	; 0x48000000
 80050ba:	f7fb fedb 	bl	8000e74 <HAL_GPIO_Init>
 80050be:	4629      	mov	r1, r5
 80050c0:	e000      	b.n	80050c4 <LBF_ExtPortConfig+0x274>
 80050c2:	2100      	movs	r1, #0
 80050c4:	7ba3      	ldrb	r3, [r4, #14]
 80050c6:	2b12      	cmp	r3, #18
 80050c8:	d108      	bne.n	80050dc <LBF_ExtPortConfig+0x28c>
 80050ca:	a90e      	add	r1, sp, #56	; 0x38
 80050cc:	2302      	movs	r3, #2
 80050ce:	f841 3d14 	str.w	r3, [r1, #-20]!
 80050d2:	f04f 4090 	mov.w	r0, #1207959552	; 0x48000000
 80050d6:	f7fb fecd 	bl	8000e74 <HAL_GPIO_Init>
 80050da:	2101      	movs	r1, #1
 80050dc:	4b10      	ldr	r3, [pc, #64]	; (8005120 <LBF_ExtPortConfig+0x2d0>)
 80050de:	4a0d      	ldr	r2, [pc, #52]	; (8005114 <LBF_ExtPortConfig+0x2c4>)
 80050e0:	601a      	str	r2, [r3, #0]
 80050e2:	6822      	ldr	r2, [r4, #0]
 80050e4:	605a      	str	r2, [r3, #4]
 80050e6:	200c      	movs	r0, #12
 80050e8:	2200      	movs	r2, #0
 80050ea:	609a      	str	r2, [r3, #8]
 80050ec:	60da      	str	r2, [r3, #12]
 80050ee:	611a      	str	r2, [r3, #16]
 80050f0:	6158      	str	r0, [r3, #20]
 80050f2:	b1c9      	cbz	r1, 8005128 <LBF_ExtPortConfig+0x2d8>
 80050f4:	f44f 7140 	mov.w	r1, #768	; 0x300
 80050f8:	6199      	str	r1, [r3, #24]
 80050fa:	e016      	b.n	800512a <LBF_ExtPortConfig+0x2da>
 80050fc:	48000800 	.word	0x48000800
 8005100:	40021000 	.word	0x40021000
 8005104:	48000400 	.word	0x48000400
 8005108:	200007dc 	.word	0x200007dc
 800510c:	40005400 	.word	0x40005400
 8005110:	20000818 	.word	0x20000818
 8005114:	40004400 	.word	0x40004400
 8005118:	20000860 	.word	0x20000860
 800511c:	40004c00 	.word	0x40004c00
 8005120:	200008d0 	.word	0x200008d0
 8005124:	1042040b 	.word	0x1042040b
 8005128:	619a      	str	r2, [r3, #24]
 800512a:	488f      	ldr	r0, [pc, #572]	; (8005368 <LBF_ExtPortConfig+0x518>)
 800512c:	61da      	str	r2, [r3, #28]
 800512e:	f7fe fc00 	bl	8003932 <HAL_UART_Init>
 8005132:	7a23      	ldrb	r3, [r4, #8]
 8005134:	2b01      	cmp	r3, #1
 8005136:	d10a      	bne.n	800514e <LBF_ExtPortConfig+0x2fe>
 8005138:	7a60      	ldrb	r0, [r4, #9]
 800513a:	a909      	add	r1, sp, #36	; 0x24
 800513c:	f7ff fe64 	bl	8004e08 <Set_GPIO_Mode_Pull>
 8005140:	f44f 7300 	mov.w	r3, #512	; 0x200
 8005144:	4889      	ldr	r0, [pc, #548]	; (800536c <LBF_ExtPortConfig+0x51c>)
 8005146:	9309      	str	r3, [sp, #36]	; 0x24
 8005148:	a909      	add	r1, sp, #36	; 0x24
 800514a:	f7fb fe93 	bl	8000e74 <HAL_GPIO_Init>
 800514e:	7aa3      	ldrb	r3, [r4, #10]
 8005150:	2b01      	cmp	r3, #1
 8005152:	d10a      	bne.n	800516a <LBF_ExtPortConfig+0x31a>
 8005154:	7ae0      	ldrb	r0, [r4, #11]
 8005156:	a909      	add	r1, sp, #36	; 0x24
 8005158:	f7ff fe56 	bl	8004e08 <Set_GPIO_Mode_Pull>
 800515c:	f44f 7380 	mov.w	r3, #256	; 0x100
 8005160:	4882      	ldr	r0, [pc, #520]	; (800536c <LBF_ExtPortConfig+0x51c>)
 8005162:	9309      	str	r3, [sp, #36]	; 0x24
 8005164:	a909      	add	r1, sp, #36	; 0x24
 8005166:	f7fb fe85 	bl	8000e74 <HAL_GPIO_Init>
 800516a:	7b25      	ldrb	r5, [r4, #12]
 800516c:	2d01      	cmp	r5, #1
 800516e:	d109      	bne.n	8005184 <LBF_ExtPortConfig+0x334>
 8005170:	7b60      	ldrb	r0, [r4, #13]
 8005172:	a909      	add	r1, sp, #36	; 0x24
 8005174:	f7ff fe48 	bl	8004e08 <Set_GPIO_Mode_Pull>
 8005178:	f04f 4090 	mov.w	r0, #1207959552	; 0x48000000
 800517c:	a909      	add	r1, sp, #36	; 0x24
 800517e:	9509      	str	r5, [sp, #36]	; 0x24
 8005180:	f7fb fe78 	bl	8000e74 <HAL_GPIO_Init>
 8005184:	7ba3      	ldrb	r3, [r4, #14]
 8005186:	2b01      	cmp	r3, #1
 8005188:	d10a      	bne.n	80051a0 <LBF_ExtPortConfig+0x350>
 800518a:	7be0      	ldrb	r0, [r4, #15]
 800518c:	a909      	add	r1, sp, #36	; 0x24
 800518e:	f7ff fe3b 	bl	8004e08 <Set_GPIO_Mode_Pull>
 8005192:	2302      	movs	r3, #2
 8005194:	f04f 4090 	mov.w	r0, #1207959552	; 0x48000000
 8005198:	a909      	add	r1, sp, #36	; 0x24
 800519a:	9309      	str	r3, [sp, #36]	; 0x24
 800519c:	f7fb fe6a 	bl	8000e74 <HAL_GPIO_Init>
 80051a0:	7ca3      	ldrb	r3, [r4, #18]
 80051a2:	2b01      	cmp	r3, #1
 80051a4:	d10a      	bne.n	80051bc <LBF_ExtPortConfig+0x36c>
 80051a6:	7ce0      	ldrb	r0, [r4, #19]
 80051a8:	a909      	add	r1, sp, #36	; 0x24
 80051aa:	f7ff fe2d 	bl	8004e08 <Set_GPIO_Mode_Pull>
 80051ae:	2304      	movs	r3, #4
 80051b0:	f04f 4090 	mov.w	r0, #1207959552	; 0x48000000
 80051b4:	a909      	add	r1, sp, #36	; 0x24
 80051b6:	9309      	str	r3, [sp, #36]	; 0x24
 80051b8:	f7fb fe5c 	bl	8000e74 <HAL_GPIO_Init>
 80051bc:	7d23      	ldrb	r3, [r4, #20]
 80051be:	2b01      	cmp	r3, #1
 80051c0:	d10a      	bne.n	80051d8 <LBF_ExtPortConfig+0x388>
 80051c2:	7d60      	ldrb	r0, [r4, #21]
 80051c4:	a909      	add	r1, sp, #36	; 0x24
 80051c6:	f7ff fe1f 	bl	8004e08 <Set_GPIO_Mode_Pull>
 80051ca:	2308      	movs	r3, #8
 80051cc:	f04f 4090 	mov.w	r0, #1207959552	; 0x48000000
 80051d0:	a909      	add	r1, sp, #36	; 0x24
 80051d2:	9309      	str	r3, [sp, #36]	; 0x24
 80051d4:	f7fb fe4e 	bl	8000e74 <HAL_GPIO_Init>
 80051d8:	7da3      	ldrb	r3, [r4, #22]
 80051da:	2b01      	cmp	r3, #1
 80051dc:	d10a      	bne.n	80051f4 <LBF_ExtPortConfig+0x3a4>
 80051de:	7de0      	ldrb	r0, [r4, #23]
 80051e0:	a909      	add	r1, sp, #36	; 0x24
 80051e2:	f7ff fe11 	bl	8004e08 <Set_GPIO_Mode_Pull>
 80051e6:	2310      	movs	r3, #16
 80051e8:	f04f 4090 	mov.w	r0, #1207959552	; 0x48000000
 80051ec:	a909      	add	r1, sp, #36	; 0x24
 80051ee:	9309      	str	r3, [sp, #36]	; 0x24
 80051f0:	f7fb fe40 	bl	8000e74 <HAL_GPIO_Init>
 80051f4:	7e25      	ldrb	r5, [r4, #24]
 80051f6:	2d01      	cmp	r5, #1
 80051f8:	d108      	bne.n	800520c <LBF_ExtPortConfig+0x3bc>
 80051fa:	7e60      	ldrb	r0, [r4, #25]
 80051fc:	a909      	add	r1, sp, #36	; 0x24
 80051fe:	f7ff fe03 	bl	8004e08 <Set_GPIO_Mode_Pull>
 8005202:	485a      	ldr	r0, [pc, #360]	; (800536c <LBF_ExtPortConfig+0x51c>)
 8005204:	9509      	str	r5, [sp, #36]	; 0x24
 8005206:	a909      	add	r1, sp, #36	; 0x24
 8005208:	f7fb fe34 	bl	8000e74 <HAL_GPIO_Init>
 800520c:	7ea3      	ldrb	r3, [r4, #26]
 800520e:	2b01      	cmp	r3, #1
 8005210:	d10a      	bne.n	8005228 <LBF_ExtPortConfig+0x3d8>
 8005212:	7ee0      	ldrb	r0, [r4, #27]
 8005214:	a909      	add	r1, sp, #36	; 0x24
 8005216:	f7ff fdf7 	bl	8004e08 <Set_GPIO_Mode_Pull>
 800521a:	2340      	movs	r3, #64	; 0x40
 800521c:	f04f 4090 	mov.w	r0, #1207959552	; 0x48000000
 8005220:	a909      	add	r1, sp, #36	; 0x24
 8005222:	9309      	str	r3, [sp, #36]	; 0x24
 8005224:	f7fb fe26 	bl	8000e74 <HAL_GPIO_Init>
 8005228:	7a22      	ldrb	r2, [r4, #8]
 800522a:	2302      	movs	r3, #2
 800522c:	930a      	str	r3, [sp, #40]	; 0x28
 800522e:	2a02      	cmp	r2, #2
 8005230:	f04f 0300 	mov.w	r3, #0
 8005234:	930b      	str	r3, [sp, #44]	; 0x2c
 8005236:	930c      	str	r3, [sp, #48]	; 0x30
 8005238:	d002      	beq.n	8005240 <LBF_ExtPortConfig+0x3f0>
 800523a:	7aa3      	ldrb	r3, [r4, #10]
 800523c:	2b03      	cmp	r3, #3
 800523e:	d120      	bne.n	8005282 <LBF_ExtPortConfig+0x432>
 8005240:	4b4b      	ldr	r3, [pc, #300]	; (8005370 <LBF_ExtPortConfig+0x520>)
 8005242:	6d99      	ldr	r1, [r3, #88]	; 0x58
 8005244:	f041 0104 	orr.w	r1, r1, #4
 8005248:	6599      	str	r1, [r3, #88]	; 0x58
 800524a:	6d9b      	ldr	r3, [r3, #88]	; 0x58
 800524c:	f003 0304 	and.w	r3, r3, #4
 8005250:	9305      	str	r3, [sp, #20]
 8005252:	9b05      	ldr	r3, [sp, #20]
 8005254:	2302      	movs	r3, #2
 8005256:	429a      	cmp	r2, r3
 8005258:	930d      	str	r3, [sp, #52]	; 0x34
 800525a:	d107      	bne.n	800526c <LBF_ExtPortConfig+0x41c>
 800525c:	a90e      	add	r1, sp, #56	; 0x38
 800525e:	f44f 7300 	mov.w	r3, #512	; 0x200
 8005262:	f841 3d14 	str.w	r3, [r1, #-20]!
 8005266:	4841      	ldr	r0, [pc, #260]	; (800536c <LBF_ExtPortConfig+0x51c>)
 8005268:	f7fb fe04 	bl	8000e74 <HAL_GPIO_Init>
 800526c:	7aa3      	ldrb	r3, [r4, #10]
 800526e:	2b03      	cmp	r3, #3
 8005270:	d107      	bne.n	8005282 <LBF_ExtPortConfig+0x432>
 8005272:	a90e      	add	r1, sp, #56	; 0x38
 8005274:	f44f 7380 	mov.w	r3, #256	; 0x100
 8005278:	f841 3d14 	str.w	r3, [r1, #-20]!
 800527c:	483b      	ldr	r0, [pc, #236]	; (800536c <LBF_ExtPortConfig+0x51c>)
 800527e:	f7fb fdf9 	bl	8000e74 <HAL_GPIO_Init>
 8005282:	7b22      	ldrb	r2, [r4, #12]
 8005284:	2a07      	cmp	r2, #7
 8005286:	d008      	beq.n	800529a <LBF_ExtPortConfig+0x44a>
 8005288:	7ba3      	ldrb	r3, [r4, #14]
 800528a:	2b06      	cmp	r3, #6
 800528c:	d005      	beq.n	800529a <LBF_ExtPortConfig+0x44a>
 800528e:	7ca3      	ldrb	r3, [r4, #18]
 8005290:	2b05      	cmp	r3, #5
 8005292:	d002      	beq.n	800529a <LBF_ExtPortConfig+0x44a>
 8005294:	7d23      	ldrb	r3, [r4, #20]
 8005296:	2b04      	cmp	r3, #4
 8005298:	d136      	bne.n	8005308 <LBF_ExtPortConfig+0x4b8>
 800529a:	4b35      	ldr	r3, [pc, #212]	; (8005370 <LBF_ExtPortConfig+0x520>)
 800529c:	6d99      	ldr	r1, [r3, #88]	; 0x58
 800529e:	f041 0101 	orr.w	r1, r1, #1
 80052a2:	6599      	str	r1, [r3, #88]	; 0x58
 80052a4:	6d9b      	ldr	r3, [r3, #88]	; 0x58
 80052a6:	f003 0301 	and.w	r3, r3, #1
 80052aa:	9306      	str	r3, [sp, #24]
 80052ac:	9b06      	ldr	r3, [sp, #24]
 80052ae:	2a07      	cmp	r2, #7
 80052b0:	f04f 0301 	mov.w	r3, #1
 80052b4:	930d      	str	r3, [sp, #52]	; 0x34
 80052b6:	d106      	bne.n	80052c6 <LBF_ExtPortConfig+0x476>
 80052b8:	a90e      	add	r1, sp, #56	; 0x38
 80052ba:	f04f 4090 	mov.w	r0, #1207959552	; 0x48000000
 80052be:	f841 3d14 	str.w	r3, [r1, #-20]!
 80052c2:	f7fb fdd7 	bl	8000e74 <HAL_GPIO_Init>
 80052c6:	7ba3      	ldrb	r3, [r4, #14]
 80052c8:	2b06      	cmp	r3, #6
 80052ca:	d107      	bne.n	80052dc <LBF_ExtPortConfig+0x48c>
 80052cc:	a90e      	add	r1, sp, #56	; 0x38
 80052ce:	2302      	movs	r3, #2
 80052d0:	f841 3d14 	str.w	r3, [r1, #-20]!
 80052d4:	f04f 4090 	mov.w	r0, #1207959552	; 0x48000000
 80052d8:	f7fb fdcc 	bl	8000e74 <HAL_GPIO_Init>
 80052dc:	7ca3      	ldrb	r3, [r4, #18]
 80052de:	2b05      	cmp	r3, #5
 80052e0:	d107      	bne.n	80052f2 <LBF_ExtPortConfig+0x4a2>
 80052e2:	a90e      	add	r1, sp, #56	; 0x38
 80052e4:	2304      	movs	r3, #4
 80052e6:	f841 3d14 	str.w	r3, [r1, #-20]!
 80052ea:	f04f 4090 	mov.w	r0, #1207959552	; 0x48000000
 80052ee:	f7fb fdc1 	bl	8000e74 <HAL_GPIO_Init>
 80052f2:	7d23      	ldrb	r3, [r4, #20]
 80052f4:	2b04      	cmp	r3, #4
 80052f6:	d107      	bne.n	8005308 <LBF_ExtPortConfig+0x4b8>
 80052f8:	a90e      	add	r1, sp, #56	; 0x38
 80052fa:	2308      	movs	r3, #8
 80052fc:	f841 3d14 	str.w	r3, [r1, #-20]!
 8005300:	f04f 4090 	mov.w	r0, #1207959552	; 0x48000000
 8005304:	f7fb fdb6 	bl	8000e74 <HAL_GPIO_Init>
 8005308:	7da3      	ldrb	r3, [r4, #22]
 800530a:	2b08      	cmp	r3, #8
 800530c:	d113      	bne.n	8005336 <LBF_ExtPortConfig+0x4e6>
 800530e:	4b18      	ldr	r3, [pc, #96]	; (8005370 <LBF_ExtPortConfig+0x520>)
 8005310:	6dda      	ldr	r2, [r3, #92]	; 0x5c
 8005312:	f042 0220 	orr.w	r2, r2, #32
 8005316:	65da      	str	r2, [r3, #92]	; 0x5c
 8005318:	6ddb      	ldr	r3, [r3, #92]	; 0x5c
 800531a:	f003 0320 	and.w	r3, r3, #32
 800531e:	9307      	str	r3, [sp, #28]
 8005320:	9b07      	ldr	r3, [sp, #28]
 8005322:	a90e      	add	r1, sp, #56	; 0x38
 8005324:	230e      	movs	r3, #14
 8005326:	930d      	str	r3, [sp, #52]	; 0x34
 8005328:	2310      	movs	r3, #16
 800532a:	f841 3d14 	str.w	r3, [r1, #-20]!
 800532e:	f04f 4090 	mov.w	r0, #1207959552	; 0x48000000
 8005332:	f7fb fd9f 	bl	8000e74 <HAL_GPIO_Init>
 8005336:	7da3      	ldrb	r3, [r4, #22]
 8005338:	2b09      	cmp	r3, #9
 800533a:	d112      	bne.n	8005362 <LBF_ExtPortConfig+0x512>
 800533c:	4b0c      	ldr	r3, [pc, #48]	; (8005370 <LBF_ExtPortConfig+0x520>)
 800533e:	6e1a      	ldr	r2, [r3, #96]	; 0x60
 8005340:	f442 3200 	orr.w	r2, r2, #131072	; 0x20000
 8005344:	661a      	str	r2, [r3, #96]	; 0x60
 8005346:	6e1b      	ldr	r3, [r3, #96]	; 0x60
 8005348:	f403 3300 	and.w	r3, r3, #131072	; 0x20000
 800534c:	9308      	str	r3, [sp, #32]
 800534e:	9b08      	ldr	r3, [sp, #32]
 8005350:	2340      	movs	r3, #64	; 0x40
 8005352:	9309      	str	r3, [sp, #36]	; 0x24
 8005354:	f04f 4090 	mov.w	r0, #1207959552	; 0x48000000
 8005358:	230e      	movs	r3, #14
 800535a:	a909      	add	r1, sp, #36	; 0x24
 800535c:	930d      	str	r3, [sp, #52]	; 0x34
 800535e:	f7fb fd89 	bl	8000e74 <HAL_GPIO_Init>
 8005362:	b00e      	add	sp, #56	; 0x38
 8005364:	bd70      	pop	{r4, r5, r6, pc}
 8005366:	bf00      	nop
 8005368:	200008d0 	.word	0x200008d0
 800536c:	48000400 	.word	0x48000400
 8005370:	40021000 	.word	0x40021000

08005374 <LBF_FLASH_Init>:
 8005374:	b510      	push	{r4, lr}
 8005376:	4c0d      	ldr	r4, [pc, #52]	; (80053ac <LBF_FLASH_Init+0x38>)
 8005378:	2180      	movs	r1, #128	; 0x80
 800537a:	2200      	movs	r2, #0
 800537c:	4620      	mov	r0, r4
 800537e:	f7fb fe55 	bl	800102c <HAL_GPIO_WritePin>
 8005382:	203d      	movs	r0, #61	; 0x3d
 8005384:	f7ff f9f4 	bl	8004770 <LBF_FLASH_SendByte>
 8005388:	202a      	movs	r0, #42	; 0x2a
 800538a:	f7ff f9f1 	bl	8004770 <LBF_FLASH_SendByte>
 800538e:	2080      	movs	r0, #128	; 0x80
 8005390:	f7ff f9ee 	bl	8004770 <LBF_FLASH_SendByte>
 8005394:	20a6      	movs	r0, #166	; 0xa6
 8005396:	f7ff f9eb 	bl	8004770 <LBF_FLASH_SendByte>
 800539a:	4620      	mov	r0, r4
 800539c:	2180      	movs	r1, #128	; 0x80
 800539e:	2201      	movs	r2, #1
 80053a0:	f7fb fe44 	bl	800102c <HAL_GPIO_WritePin>
 80053a4:	e8bd 4010 	ldmia.w	sp!, {r4, lr}
 80053a8:	f7ff b9fa 	b.w	80047a0 <LBF_FLASH_WaitForWriteEnd>
 80053ac:	48000400 	.word	0x48000400

080053b0 <LBF_FLASH_IOcfg>:
 80053b0:	b570      	push	{r4, r5, r6, lr}
 80053b2:	b086      	sub	sp, #24
 80053b4:	a906      	add	r1, sp, #24
 80053b6:	4e0a      	ldr	r6, [pc, #40]	; (80053e0 <LBF_FLASH_IOcfg+0x30>)
 80053b8:	2580      	movs	r5, #128	; 0x80
 80053ba:	2300      	movs	r3, #0
 80053bc:	2401      	movs	r4, #1
 80053be:	9303      	str	r3, [sp, #12]
 80053c0:	f841 5d14 	str.w	r5, [r1, #-20]!
 80053c4:	2303      	movs	r3, #3
 80053c6:	4630      	mov	r0, r6
 80053c8:	9304      	str	r3, [sp, #16]
 80053ca:	9402      	str	r4, [sp, #8]
 80053cc:	f7fb fd52 	bl	8000e74 <HAL_GPIO_Init>
 80053d0:	4630      	mov	r0, r6
 80053d2:	4629      	mov	r1, r5
 80053d4:	4622      	mov	r2, r4
 80053d6:	f7fb fe29 	bl	800102c <HAL_GPIO_WritePin>
 80053da:	b006      	add	sp, #24
 80053dc:	bd70      	pop	{r4, r5, r6, pc}
 80053de:	bf00      	nop
 80053e0:	48000400 	.word	0x48000400

080053e4 <LBF_I2C2_Init>:
 80053e4:	4807      	ldr	r0, [pc, #28]	; (8005404 <LBF_I2C2_Init+0x20>)
 80053e6:	4b08      	ldr	r3, [pc, #32]	; (8005408 <LBF_I2C2_Init+0x24>)
 80053e8:	f8df c020 	ldr.w	ip, [pc, #32]	; 800540c <LBF_I2C2_Init+0x28>
 80053ec:	2201      	movs	r2, #1
 80053ee:	e880 1008 	stmia.w	r0, {r3, ip}
 80053f2:	2300      	movs	r3, #0
 80053f4:	6083      	str	r3, [r0, #8]
 80053f6:	60c2      	str	r2, [r0, #12]
 80053f8:	6103      	str	r3, [r0, #16]
 80053fa:	6143      	str	r3, [r0, #20]
 80053fc:	61c3      	str	r3, [r0, #28]
 80053fe:	6203      	str	r3, [r0, #32]
 8005400:	f7fb bf6e 	b.w	80012e0 <HAL_I2C_Init>
 8005404:	20000940 	.word	0x20000940
 8005408:	40005800 	.word	0x40005800
 800540c:	1042040b 	.word	0x1042040b

08005410 <LBF_I2C2_IOcfg>:
 8005410:	b57f      	push	{r0, r1, r2, r3, r4, r5, r6, lr}
 8005412:	4b0e      	ldr	r3, [pc, #56]	; (800544c <LBF_I2C2_IOcfg+0x3c>)
 8005414:	480e      	ldr	r0, [pc, #56]	; (8005450 <LBF_I2C2_IOcfg+0x40>)
 8005416:	6d9a      	ldr	r2, [r3, #88]	; 0x58
 8005418:	f442 0280 	orr.w	r2, r2, #4194304	; 0x400000
 800541c:	659a      	str	r2, [r3, #88]	; 0x58
 800541e:	6d9b      	ldr	r3, [r3, #88]	; 0x58
 8005420:	f403 0380 	and.w	r3, r3, #4194304	; 0x400000
 8005424:	9300      	str	r3, [sp, #0]
 8005426:	9b00      	ldr	r3, [sp, #0]
 8005428:	f44f 6340 	mov.w	r3, #3072	; 0xc00
 800542c:	9301      	str	r3, [sp, #4]
 800542e:	2312      	movs	r3, #18
 8005430:	9302      	str	r3, [sp, #8]
 8005432:	2300      	movs	r3, #0
 8005434:	9303      	str	r3, [sp, #12]
 8005436:	9304      	str	r3, [sp, #16]
 8005438:	2304      	movs	r3, #4
 800543a:	eb0d 0103 	add.w	r1, sp, r3
 800543e:	9305      	str	r3, [sp, #20]
 8005440:	f7fb fd18 	bl	8000e74 <HAL_GPIO_Init>
 8005444:	b007      	add	sp, #28
 8005446:	f85d fb04 	ldr.w	pc, [sp], #4
 800544a:	bf00      	nop
 800544c:	40021000 	.word	0x40021000
 8005450:	48000400 	.word	0x48000400

08005454 <LBF_LED_IOcfg>:
 8005454:	b57f      	push	{r0, r1, r2, r3, r4, r5, r6, lr}
 8005456:	2308      	movs	r3, #8
 8005458:	9301      	str	r3, [sp, #4]
 800545a:	2301      	movs	r3, #1
 800545c:	9302      	str	r3, [sp, #8]
 800545e:	4805      	ldr	r0, [pc, #20]	; (8005474 <LBF_LED_IOcfg+0x20>)
 8005460:	2300      	movs	r3, #0
 8005462:	a901      	add	r1, sp, #4
 8005464:	9303      	str	r3, [sp, #12]
 8005466:	9304      	str	r3, [sp, #16]
 8005468:	f7fb fd04 	bl	8000e74 <HAL_GPIO_Init>
 800546c:	b007      	add	sp, #28
 800546e:	f85d fb04 	ldr.w	pc, [sp], #4
 8005472:	bf00      	nop
 8005474:	48000800 	.word	0x48000800

08005478 <LBF_SelSwitches_IOcfg>:
 8005478:	b510      	push	{r4, lr}
 800547a:	b086      	sub	sp, #24
 800547c:	2300      	movs	r3, #0
 800547e:	ac06      	add	r4, sp, #24
 8005480:	9302      	str	r3, [sp, #8]
 8005482:	2302      	movs	r3, #2
 8005484:	9303      	str	r3, [sp, #12]
 8005486:	f44f 4300 	mov.w	r3, #32768	; 0x8000
 800548a:	f844 3d14 	str.w	r3, [r4, #-20]!
 800548e:	f04f 4090 	mov.w	r0, #1207959552	; 0x48000000
 8005492:	4621      	mov	r1, r4
 8005494:	f7fb fcee 	bl	8000e74 <HAL_GPIO_Init>
 8005498:	f44f 7380 	mov.w	r3, #256	; 0x100
 800549c:	4803      	ldr	r0, [pc, #12]	; (80054ac <LBF_SelSwitches_IOcfg+0x34>)
 800549e:	9301      	str	r3, [sp, #4]
 80054a0:	4621      	mov	r1, r4
 80054a2:	f7fb fce7 	bl	8000e74 <HAL_GPIO_Init>
 80054a6:	b006      	add	sp, #24
 80054a8:	bd10      	pop	{r4, pc}
 80054aa:	bf00      	nop
 80054ac:	48000800 	.word	0x48000800

080054b0 <LBF_LSE_RTC_Cfg>:
 80054b0:	b500      	push	{lr}
 80054b2:	b0af      	sub	sp, #188	; 0xbc
 80054b4:	4668      	mov	r0, sp
 80054b6:	2100      	movs	r1, #0
 80054b8:	2240      	movs	r2, #64	; 0x40
 80054ba:	f005 fd99 	bl	800aff0 <memset>
 80054be:	2100      	movs	r1, #0
 80054c0:	2278      	movs	r2, #120	; 0x78
 80054c2:	a810      	add	r0, sp, #64	; 0x40
 80054c4:	f005 fd94 	bl	800aff0 <memset>
 80054c8:	2304      	movs	r3, #4
 80054ca:	9300      	str	r3, [sp, #0]
 80054cc:	4668      	mov	r0, sp
 80054ce:	2301      	movs	r3, #1
 80054d0:	9302      	str	r3, [sp, #8]
 80054d2:	f7fc fc19 	bl	8001d08 <HAL_RCC_OscConfig>
 80054d6:	f44f 3300 	mov.w	r3, #131072	; 0x20000
 80054da:	9310      	str	r3, [sp, #64]	; 0x40
 80054dc:	a810      	add	r0, sp, #64	; 0x40
 80054de:	f44f 7380 	mov.w	r3, #256	; 0x100
 80054e2:	932d      	str	r3, [sp, #180]	; 0xb4
 80054e4:	f7fd faa2 	bl	8002a2c <HAL_RCCEx_PeriphCLKConfig>
 80054e8:	b02f      	add	sp, #188	; 0xbc
 80054ea:	f85d fb04 	ldr.w	pc, [sp], #4
	...

080054f0 <LBF_OLED_Init>:
 80054f0:	b510      	push	{r4, lr}
 80054f2:	2102      	movs	r1, #2
 80054f4:	2200      	movs	r2, #0
 80054f6:	4604      	mov	r4, r0
 80054f8:	4857      	ldr	r0, [pc, #348]	; (8005658 <LBF_OLED_Init+0x168>)
 80054fa:	f7fb fd97 	bl	800102c <HAL_GPIO_WritePin>
 80054fe:	2002      	movs	r0, #2
 8005500:	f7ff faba 	bl	8004a78 <LBF_Delay_ms>
 8005504:	2201      	movs	r2, #1
 8005506:	2102      	movs	r1, #2
 8005508:	4853      	ldr	r0, [pc, #332]	; (8005658 <LBF_OLED_Init+0x168>)
 800550a:	f7fb fd8f 	bl	800102c <HAL_GPIO_WritePin>
 800550e:	2002      	movs	r0, #2
 8005510:	f7ff fab2 	bl	8004a78 <LBF_Delay_ms>
 8005514:	2101      	movs	r1, #1
 8005516:	2004      	movs	r0, #4
 8005518:	f7ff f9e4 	bl	80048e4 <LBF_OLED_WriteReg>
 800551c:	200a      	movs	r0, #10
 800551e:	f7ff faab 	bl	8004a78 <LBF_Delay_ms>
 8005522:	2100      	movs	r1, #0
 8005524:	2004      	movs	r0, #4
 8005526:	f7ff f9dd 	bl	80048e4 <LBF_OLED_WriteReg>
 800552a:	200a      	movs	r0, #10
 800552c:	f7ff faa4 	bl	8004a78 <LBF_Delay_ms>
 8005530:	2006      	movs	r0, #6
 8005532:	2100      	movs	r1, #0
 8005534:	f7ff f9d6 	bl	80048e4 <LBF_OLED_WriteReg>
 8005538:	2002      	movs	r0, #2
 800553a:	2101      	movs	r1, #1
 800553c:	f7ff f9d2 	bl	80048e4 <LBF_OLED_WriteReg>
 8005540:	2080      	movs	r0, #128	; 0x80
 8005542:	2100      	movs	r1, #0
 8005544:	f7ff f9ce 	bl	80048e4 <LBF_OLED_WriteReg>
 8005548:	bb34      	cbnz	r4, 8005598 <LBF_OLED_Init+0xa8>
 800554a:	2003      	movs	r0, #3
 800554c:	2130      	movs	r1, #48	; 0x30
 800554e:	f7ff f9c9 	bl	80048e4 <LBF_OLED_WriteReg>
 8005552:	2010      	movs	r0, #16
 8005554:	2152      	movs	r1, #82	; 0x52
 8005556:	f7ff f9c5 	bl	80048e4 <LBF_OLED_WriteReg>
 800555a:	2011      	movs	r0, #17
 800555c:	2138      	movs	r1, #56	; 0x38
 800555e:	f7ff f9c1 	bl	80048e4 <LBF_OLED_WriteReg>
 8005562:	2012      	movs	r0, #18
 8005564:	213a      	movs	r1, #58	; 0x3a
 8005566:	f7ff f9bd 	bl	80048e4 <LBF_OLED_WriteReg>
 800556a:	2008      	movs	r0, #8
 800556c:	2101      	movs	r1, #1
 800556e:	f7ff f9b9 	bl	80048e4 <LBF_OLED_WriteReg>
 8005572:	2009      	movs	r0, #9
 8005574:	2101      	movs	r1, #1
 8005576:	f7ff f9b5 	bl	80048e4 <LBF_OLED_WriteReg>
 800557a:	200a      	movs	r0, #10
 800557c:	2101      	movs	r1, #1
 800557e:	f7ff f9b1 	bl	80048e4 <LBF_OLED_WriteReg>
 8005582:	200b      	movs	r0, #11
 8005584:	210a      	movs	r1, #10
 8005586:	f7ff f9ad 	bl	80048e4 <LBF_OLED_WriteReg>
 800558a:	200c      	movs	r0, #12
 800558c:	210a      	movs	r1, #10
 800558e:	f7ff f9a9 	bl	80048e4 <LBF_OLED_WriteReg>
 8005592:	200d      	movs	r0, #13
 8005594:	210a      	movs	r1, #10
 8005596:	e02c      	b.n	80055f2 <LBF_OLED_Init+0x102>
 8005598:	8861      	ldrh	r1, [r4, #2]
 800559a:	2305      	movs	r3, #5
 800559c:	fbb1 f1f3 	udiv	r1, r1, r3
 80055a0:	390f      	subs	r1, #15
 80055a2:	0109      	lsls	r1, r1, #4
 80055a4:	2003      	movs	r0, #3
 80055a6:	f001 01f0 	and.w	r1, r1, #240	; 0xf0
 80055aa:	f7ff f99b 	bl	80048e4 <LBF_OLED_WriteReg>
 80055ae:	2010      	movs	r0, #16
 80055b0:	7921      	ldrb	r1, [r4, #4]
 80055b2:	f7ff f997 	bl	80048e4 <LBF_OLED_WriteReg>
 80055b6:	2011      	movs	r0, #17
 80055b8:	79a1      	ldrb	r1, [r4, #6]
 80055ba:	f7ff f993 	bl	80048e4 <LBF_OLED_WriteReg>
 80055be:	2012      	movs	r0, #18
 80055c0:	7a21      	ldrb	r1, [r4, #8]
 80055c2:	f7ff f98f 	bl	80048e4 <LBF_OLED_WriteReg>
 80055c6:	2008      	movs	r0, #8
 80055c8:	7aa1      	ldrb	r1, [r4, #10]
 80055ca:	f7ff f98b 	bl	80048e4 <LBF_OLED_WriteReg>
 80055ce:	2009      	movs	r0, #9
 80055d0:	7b21      	ldrb	r1, [r4, #12]
 80055d2:	f7ff f987 	bl	80048e4 <LBF_OLED_WriteReg>
 80055d6:	200a      	movs	r0, #10
 80055d8:	7ba1      	ldrb	r1, [r4, #14]
 80055da:	f7ff f983 	bl	80048e4 <LBF_OLED_WriteReg>
 80055de:	200b      	movs	r0, #11
 80055e0:	7c21      	ldrb	r1, [r4, #16]
 80055e2:	f7ff f97f 	bl	80048e4 <LBF_OLED_WriteReg>
 80055e6:	200c      	movs	r0, #12
 80055e8:	7ca1      	ldrb	r1, [r4, #18]
 80055ea:	f7ff f97b 	bl	80048e4 <LBF_OLED_WriteReg>
 80055ee:	7d21      	ldrb	r1, [r4, #20]
 80055f0:	200d      	movs	r0, #13
 80055f2:	f7ff f977 	bl	80048e4 <LBF_OLED_WriteReg>
 80055f6:	2013      	movs	r0, #19
 80055f8:	2100      	movs	r1, #0
 80055fa:	f7ff f973 	bl	80048e4 <LBF_OLED_WriteReg>
 80055fe:	2014      	movs	r0, #20
 8005600:	2131      	movs	r1, #49	; 0x31
 8005602:	f7ff f96f 	bl	80048e4 <LBF_OLED_WriteReg>
 8005606:	2016      	movs	r0, #22
 8005608:	2166      	movs	r1, #102	; 0x66
 800560a:	f7ff f96b 	bl	80048e4 <LBF_OLED_WriteReg>
 800560e:	2028      	movs	r0, #40	; 0x28
 8005610:	217f      	movs	r1, #127	; 0x7f
 8005612:	f7ff f967 	bl	80048e4 <LBF_OLED_WriteReg>
 8005616:	2029      	movs	r0, #41	; 0x29
 8005618:	2100      	movs	r1, #0
 800561a:	f7ff f963 	bl	80048e4 <LBF_OLED_WriteReg>
 800561e:	202e      	movs	r0, #46	; 0x2e
 8005620:	2100      	movs	r1, #0
 8005622:	f7ff f95f 	bl	80048e4 <LBF_OLED_WriteReg>
 8005626:	202f      	movs	r0, #47	; 0x2f
 8005628:	2100      	movs	r1, #0
 800562a:	f7ff f95b 	bl	80048e4 <LBF_OLED_WriteReg>
 800562e:	2033      	movs	r0, #51	; 0x33
 8005630:	2100      	movs	r1, #0
 8005632:	f7ff f957 	bl	80048e4 <LBF_OLED_WriteReg>
 8005636:	2034      	movs	r0, #52	; 0x34
 8005638:	219f      	movs	r1, #159	; 0x9f
 800563a:	f7ff f953 	bl	80048e4 <LBF_OLED_WriteReg>
 800563e:	2035      	movs	r0, #53	; 0x35
 8005640:	2100      	movs	r1, #0
 8005642:	f7ff f94f 	bl	80048e4 <LBF_OLED_WriteReg>
 8005646:	2036      	movs	r0, #54	; 0x36
 8005648:	217f      	movs	r1, #127	; 0x7f
 800564a:	f7ff f94b 	bl	80048e4 <LBF_OLED_WriteReg>
 800564e:	e8bd 4010 	ldmia.w	sp!, {r4, lr}
 8005652:	f7ff b9de 	b.w	8004a12 <LBF_OLED_Clear>
 8005656:	bf00      	nop
 8005658:	48000400 	.word	0x48000400

0800565c <LBF_OLED_IOcfg>:
 800565c:	e92d 47f0 	stmdb	sp!, {r4, r5, r6, r7, r8, r9, sl, lr}
 8005660:	4e1b      	ldr	r6, [pc, #108]	; (80056d0 <LBF_OLED_IOcfg+0x74>)
 8005662:	f8df 8070 	ldr.w	r8, [pc, #112]	; 80056d4 <LBF_OLED_IOcfg+0x78>
 8005666:	b086      	sub	sp, #24
 8005668:	2400      	movs	r4, #0
 800566a:	2501      	movs	r5, #1
 800566c:	f04f 0920 	mov.w	r9, #32
 8005670:	4630      	mov	r0, r6
 8005672:	a901      	add	r1, sp, #4
 8005674:	f04f 0a10 	mov.w	sl, #16
 8005678:	9502      	str	r5, [sp, #8]
 800567a:	9403      	str	r4, [sp, #12]
 800567c:	f8cd 9004 	str.w	r9, [sp, #4]
 8005680:	9404      	str	r4, [sp, #16]
 8005682:	f7fb fbf7 	bl	8000e74 <HAL_GPIO_Init>
 8005686:	4630      	mov	r0, r6
 8005688:	a901      	add	r1, sp, #4
 800568a:	2702      	movs	r7, #2
 800568c:	f8cd a004 	str.w	sl, [sp, #4]
 8005690:	9404      	str	r4, [sp, #16]
 8005692:	f7fb fbef 	bl	8000e74 <HAL_GPIO_Init>
 8005696:	4640      	mov	r0, r8
 8005698:	a901      	add	r1, sp, #4
 800569a:	9701      	str	r7, [sp, #4]
 800569c:	9404      	str	r4, [sp, #16]
 800569e:	f7fb fbe9 	bl	8000e74 <HAL_GPIO_Init>
 80056a2:	4640      	mov	r0, r8
 80056a4:	4639      	mov	r1, r7
 80056a6:	4622      	mov	r2, r4
 80056a8:	f7fb fcc0 	bl	800102c <HAL_GPIO_WritePin>
 80056ac:	4630      	mov	r0, r6
 80056ae:	4651      	mov	r1, sl
 80056b0:	462a      	mov	r2, r5
 80056b2:	f7fb fcbb 	bl	800102c <HAL_GPIO_WritePin>
 80056b6:	4630      	mov	r0, r6
 80056b8:	4649      	mov	r1, r9
 80056ba:	462a      	mov	r2, r5
 80056bc:	f7fb fcb6 	bl	800102c <HAL_GPIO_WritePin>
 80056c0:	4640      	mov	r0, r8
 80056c2:	4639      	mov	r1, r7
 80056c4:	462a      	mov	r2, r5
 80056c6:	f7fb fcb1 	bl	800102c <HAL_GPIO_WritePin>
 80056ca:	b006      	add	sp, #24
 80056cc:	e8bd 87f0 	ldmia.w	sp!, {r4, r5, r6, r7, r8, r9, sl, pc}
 80056d0:	48000800 	.word	0x48000800
 80056d4:	48000400 	.word	0x48000400

080056d8 <LBF_PWR_IOcfg>:
 80056d8:	e92d 47f0 	stmdb	sp!, {r4, r5, r6, r7, r8, r9, sl, lr}
 80056dc:	f8df a0ac 	ldr.w	sl, [pc, #172]	; 800578c <LBF_PWR_IOcfg+0xb4>
 80056e0:	4e28      	ldr	r6, [pc, #160]	; (8005784 <LBF_PWR_IOcfg+0xac>)
 80056e2:	f8df 80ac 	ldr.w	r8, [pc, #172]	; 8005790 <LBF_PWR_IOcfg+0xb8>
 80056e6:	b086      	sub	sp, #24
 80056e8:	2704      	movs	r7, #4
 80056ea:	2401      	movs	r4, #1
 80056ec:	2500      	movs	r5, #0
 80056ee:	f04f 0940 	mov.w	r9, #64	; 0x40
 80056f2:	4650      	mov	r0, sl
 80056f4:	a901      	add	r1, sp, #4
 80056f6:	f8cd 9004 	str.w	r9, [sp, #4]
 80056fa:	9402      	str	r4, [sp, #8]
 80056fc:	9503      	str	r5, [sp, #12]
 80056fe:	9504      	str	r5, [sp, #16]
 8005700:	f7fb fbb8 	bl	8000e74 <HAL_GPIO_Init>
 8005704:	4630      	mov	r0, r6
 8005706:	eb0d 0107 	add.w	r1, sp, r7
 800570a:	9701      	str	r7, [sp, #4]
 800570c:	9402      	str	r4, [sp, #8]
 800570e:	9503      	str	r5, [sp, #12]
 8005710:	9504      	str	r5, [sp, #16]
 8005712:	f7fb fbaf 	bl	8000e74 <HAL_GPIO_Init>
 8005716:	4640      	mov	r0, r8
 8005718:	eb0d 0107 	add.w	r1, sp, r7
 800571c:	9701      	str	r7, [sp, #4]
 800571e:	f7fb fba9 	bl	8000e74 <HAL_GPIO_Init>
 8005722:	2302      	movs	r3, #2
 8005724:	4630      	mov	r0, r6
 8005726:	eb0d 0107 	add.w	r1, sp, r7
 800572a:	9303      	str	r3, [sp, #12]
 800572c:	9401      	str	r4, [sp, #4]
 800572e:	9402      	str	r4, [sp, #8]
 8005730:	9504      	str	r5, [sp, #16]
 8005732:	f7fb fb9f 	bl	8000e74 <HAL_GPIO_Init>
 8005736:	4650      	mov	r0, sl
 8005738:	4649      	mov	r1, r9
 800573a:	4622      	mov	r2, r4
 800573c:	f7fb fc76 	bl	800102c <HAL_GPIO_WritePin>
 8005740:	4630      	mov	r0, r6
 8005742:	4639      	mov	r1, r7
 8005744:	462a      	mov	r2, r5
 8005746:	f7fb fc71 	bl	800102c <HAL_GPIO_WritePin>
 800574a:	4622      	mov	r2, r4
 800574c:	4640      	mov	r0, r8
 800574e:	4639      	mov	r1, r7
 8005750:	f7fb fc6c 	bl	800102c <HAL_GPIO_WritePin>
 8005754:	f7ff f982 	bl	8004a5c <Turn_VDDH_Off>
 8005758:	f44f 5300 	mov.w	r3, #8192	; 0x2000
 800575c:	9301      	str	r3, [sp, #4]
 800575e:	4630      	mov	r0, r6
 8005760:	4b09      	ldr	r3, [pc, #36]	; (8005788 <LBF_PWR_IOcfg+0xb0>)
 8005762:	9302      	str	r3, [sp, #8]
 8005764:	eb0d 0107 	add.w	r1, sp, r7
 8005768:	9403      	str	r4, [sp, #12]
 800576a:	f7fb fb83 	bl	8000e74 <HAL_GPIO_Init>
 800576e:	210a      	movs	r1, #10
 8005770:	462a      	mov	r2, r5
 8005772:	2028      	movs	r0, #40	; 0x28
 8005774:	f7fb fb1e 	bl	8000db4 <HAL_NVIC_SetPriority>
 8005778:	2028      	movs	r0, #40	; 0x28
 800577a:	f7fb fb4d 	bl	8000e18 <HAL_NVIC_EnableIRQ>
 800577e:	b006      	add	sp, #24
 8005780:	e8bd 87f0 	ldmia.w	sp!, {r4, r5, r6, r7, r8, r9, sl, pc}
 8005784:	48000800 	.word	0x48000800
 8005788:	10210000 	.word	0x10210000
 800578c:	48000400 	.word	0x48000400
 8005790:	48000c00 	.word	0x48000c00

08005794 <LBF_SPI1_Init>:
 8005794:	480a      	ldr	r0, [pc, #40]	; (80057c0 <LBF_SPI1_Init+0x2c>)
 8005796:	4b0b      	ldr	r3, [pc, #44]	; (80057c4 <LBF_SPI1_Init+0x30>)
 8005798:	f44f 62e0 	mov.w	r2, #1792	; 0x700
 800579c:	f44f 7c82 	mov.w	ip, #260	; 0x104
 80057a0:	e880 1008 	stmia.w	r0, {r3, ip}
 80057a4:	60c2      	str	r2, [r0, #12]
 80057a6:	2300      	movs	r3, #0
 80057a8:	f44f 7200 	mov.w	r2, #512	; 0x200
 80057ac:	6083      	str	r3, [r0, #8]
 80057ae:	6103      	str	r3, [r0, #16]
 80057b0:	6143      	str	r3, [r0, #20]
 80057b2:	6182      	str	r2, [r0, #24]
 80057b4:	61c3      	str	r3, [r0, #28]
 80057b6:	6203      	str	r3, [r0, #32]
 80057b8:	6243      	str	r3, [r0, #36]	; 0x24
 80057ba:	6283      	str	r3, [r0, #40]	; 0x28
 80057bc:	f7fd bc7c 	b.w	80030b8 <HAL_SPI_Init>
 80057c0:	2000097c 	.word	0x2000097c
 80057c4:	40013000 	.word	0x40013000

080057c8 <LBF_SPI1_IOcfg>:
 80057c8:	4b12      	ldr	r3, [pc, #72]	; (8005814 <LBF_SPI1_IOcfg+0x4c>)
 80057ca:	b510      	push	{r4, lr}
 80057cc:	6e1a      	ldr	r2, [r3, #96]	; 0x60
 80057ce:	f442 5280 	orr.w	r2, r2, #4096	; 0x1000
 80057d2:	661a      	str	r2, [r3, #96]	; 0x60
 80057d4:	6e1b      	ldr	r3, [r3, #96]	; 0x60
 80057d6:	b086      	sub	sp, #24
 80057d8:	f403 5380 	and.w	r3, r3, #4096	; 0x1000
 80057dc:	9300      	str	r3, [sp, #0]
 80057de:	9b00      	ldr	r3, [sp, #0]
 80057e0:	23a0      	movs	r3, #160	; 0xa0
 80057e2:	9301      	str	r3, [sp, #4]
 80057e4:	2302      	movs	r3, #2
 80057e6:	2400      	movs	r4, #0
 80057e8:	9302      	str	r3, [sp, #8]
 80057ea:	a901      	add	r1, sp, #4
 80057ec:	2305      	movs	r3, #5
 80057ee:	f04f 4090 	mov.w	r0, #1207959552	; 0x48000000
 80057f2:	9305      	str	r3, [sp, #20]
 80057f4:	9403      	str	r4, [sp, #12]
 80057f6:	9404      	str	r4, [sp, #16]
 80057f8:	f7fb fb3c 	bl	8000e74 <HAL_GPIO_Init>
 80057fc:	2340      	movs	r3, #64	; 0x40
 80057fe:	f04f 4090 	mov.w	r0, #1207959552	; 0x48000000
 8005802:	a901      	add	r1, sp, #4
 8005804:	9301      	str	r3, [sp, #4]
 8005806:	9402      	str	r4, [sp, #8]
 8005808:	9403      	str	r4, [sp, #12]
 800580a:	f7fb fb33 	bl	8000e74 <HAL_GPIO_Init>
 800580e:	b006      	add	sp, #24
 8005810:	bd10      	pop	{r4, pc}
 8005812:	bf00      	nop
 8005814:	40021000 	.word	0x40021000

08005818 <LBF_SPI3_Init>:
 8005818:	480a      	ldr	r0, [pc, #40]	; (8005844 <LBF_SPI3_Init+0x2c>)
 800581a:	4b0b      	ldr	r3, [pc, #44]	; (8005848 <LBF_SPI3_Init+0x30>)
 800581c:	f44f 62e0 	mov.w	r2, #1792	; 0x700
 8005820:	f44f 7c82 	mov.w	ip, #260	; 0x104
 8005824:	e880 1008 	stmia.w	r0, {r3, ip}
 8005828:	60c2      	str	r2, [r0, #12]
 800582a:	2300      	movs	r3, #0
 800582c:	f44f 7200 	mov.w	r2, #512	; 0x200
 8005830:	6083      	str	r3, [r0, #8]
 8005832:	6103      	str	r3, [r0, #16]
 8005834:	6143      	str	r3, [r0, #20]
 8005836:	6182      	str	r2, [r0, #24]
 8005838:	61c3      	str	r3, [r0, #28]
 800583a:	6203      	str	r3, [r0, #32]
 800583c:	6243      	str	r3, [r0, #36]	; 0x24
 800583e:	6283      	str	r3, [r0, #40]	; 0x28
 8005840:	f7fd bc3a 	b.w	80030b8 <HAL_SPI_Init>
 8005844:	200009e0 	.word	0x200009e0
 8005848:	40003c00 	.word	0x40003c00

0800584c <LBF_SPI3_IOcfg>:
 800584c:	b57f      	push	{r0, r1, r2, r3, r4, r5, r6, lr}
 800584e:	4b0d      	ldr	r3, [pc, #52]	; (8005884 <LBF_SPI3_IOcfg+0x38>)
 8005850:	480d      	ldr	r0, [pc, #52]	; (8005888 <LBF_SPI3_IOcfg+0x3c>)
 8005852:	6d9a      	ldr	r2, [r3, #88]	; 0x58
 8005854:	f442 4200 	orr.w	r2, r2, #32768	; 0x8000
 8005858:	659a      	str	r2, [r3, #88]	; 0x58
 800585a:	6d9b      	ldr	r3, [r3, #88]	; 0x58
 800585c:	f403 4300 	and.w	r3, r3, #32768	; 0x8000
 8005860:	9300      	str	r3, [sp, #0]
 8005862:	9b00      	ldr	r3, [sp, #0]
 8005864:	2338      	movs	r3, #56	; 0x38
 8005866:	9301      	str	r3, [sp, #4]
 8005868:	2302      	movs	r3, #2
 800586a:	9302      	str	r3, [sp, #8]
 800586c:	2300      	movs	r3, #0
 800586e:	9303      	str	r3, [sp, #12]
 8005870:	2303      	movs	r3, #3
 8005872:	9304      	str	r3, [sp, #16]
 8005874:	a901      	add	r1, sp, #4
 8005876:	2306      	movs	r3, #6
 8005878:	9305      	str	r3, [sp, #20]
 800587a:	f7fb fafb 	bl	8000e74 <HAL_GPIO_Init>
 800587e:	b007      	add	sp, #28
 8005880:	f85d fb04 	ldr.w	pc, [sp], #4
 8005884:	40021000 	.word	0x40021000
 8005888:	48000400 	.word	0x48000400

0800588c <LBF_SysClkCfg>:
 800588c:	b530      	push	{r4, r5, lr}
 800588e:	b0b7      	sub	sp, #220	; 0xdc
 8005890:	2305      	movs	r3, #5
 8005892:	9308      	str	r3, [sp, #32]
 8005894:	f44f 3380 	mov.w	r3, #65536	; 0x10000
 8005898:	9309      	str	r3, [sp, #36]	; 0x24
 800589a:	2301      	movs	r3, #1
 800589c:	930a      	str	r3, [sp, #40]	; 0x28
 800589e:	9313      	str	r3, [sp, #76]	; 0x4c
 80058a0:	2324      	movs	r3, #36	; 0x24
 80058a2:	9314      	str	r3, [sp, #80]	; 0x50
 80058a4:	2307      	movs	r3, #7
 80058a6:	2202      	movs	r2, #2
 80058a8:	2503      	movs	r5, #3
 80058aa:	9315      	str	r3, [sp, #84]	; 0x54
 80058ac:	2404      	movs	r4, #4
 80058ae:	2306      	movs	r3, #6
 80058b0:	a808      	add	r0, sp, #32
 80058b2:	9211      	str	r2, [sp, #68]	; 0x44
 80058b4:	9512      	str	r5, [sp, #72]	; 0x48
 80058b6:	9316      	str	r3, [sp, #88]	; 0x58
 80058b8:	9417      	str	r4, [sp, #92]	; 0x5c
 80058ba:	f7fc fa25 	bl	8001d08 <HAL_RCC_OscConfig>
 80058be:	230f      	movs	r3, #15
 80058c0:	4621      	mov	r1, r4
 80058c2:	9303      	str	r3, [sp, #12]
 80058c4:	9504      	str	r5, [sp, #16]
 80058c6:	f44f 63a0 	mov.w	r3, #1280	; 0x500
 80058ca:	2500      	movs	r5, #0
 80058cc:	a803      	add	r0, sp, #12
 80058ce:	9306      	str	r3, [sp, #24]
 80058d0:	9307      	str	r3, [sp, #28]
 80058d2:	9505      	str	r5, [sp, #20]
 80058d4:	f7fc fda8 	bl	8002428 <HAL_RCC_ClockConfig>
 80058d8:	f44f 3308 	mov.w	r3, #139264	; 0x22000
 80058dc:	4c16      	ldr	r4, [pc, #88]	; (8005938 <LBF_SysClkCfg+0xac>)
 80058de:	9318      	str	r3, [sp, #96]	; 0x60
 80058e0:	f44f 7380 	mov.w	r3, #256	; 0x100
 80058e4:	9335      	str	r3, [sp, #212]	; 0xd4
 80058e6:	a818      	add	r0, sp, #96	; 0x60
 80058e8:	f04f 6300 	mov.w	r3, #134217728	; 0x8000000
 80058ec:	932f      	str	r3, [sp, #188]	; 0xbc
 80058ee:	f7fd f89d 	bl	8002a2c <HAL_RCCEx_PeriphCLKConfig>
 80058f2:	6da3      	ldr	r3, [r4, #88]	; 0x58
 80058f4:	f043 5380 	orr.w	r3, r3, #268435456	; 0x10000000
 80058f8:	65a3      	str	r3, [r4, #88]	; 0x58
 80058fa:	6da3      	ldr	r3, [r4, #88]	; 0x58
 80058fc:	f003 5380 	and.w	r3, r3, #268435456	; 0x10000000
 8005900:	9301      	str	r3, [sp, #4]
 8005902:	f44f 7000 	mov.w	r0, #512	; 0x200
 8005906:	9b01      	ldr	r3, [sp, #4]
 8005908:	f7fc f986 	bl	8001c18 <HAL_PWREx_ControlVoltageScaling>
 800590c:	f7fc ff3a 	bl	8002784 <HAL_RCC_GetHCLKFreq>
 8005910:	f44f 53fa 	mov.w	r3, #8000	; 0x1f40
 8005914:	fbb0 f0f3 	udiv	r0, r0, r3
 8005918:	f7fb fa8a 	bl	8000e30 <HAL_SYSTICK_Config>
 800591c:	4628      	mov	r0, r5
 800591e:	f7fb fa9d 	bl	8000e5c <HAL_SYSTICK_CLKSourceConfig>
 8005922:	6e23      	ldr	r3, [r4, #96]	; 0x60
 8005924:	f043 0301 	orr.w	r3, r3, #1
 8005928:	6623      	str	r3, [r4, #96]	; 0x60
 800592a:	6e23      	ldr	r3, [r4, #96]	; 0x60
 800592c:	f003 0301 	and.w	r3, r3, #1
 8005930:	9302      	str	r3, [sp, #8]
 8005932:	9b02      	ldr	r3, [sp, #8]
 8005934:	b037      	add	sp, #220	; 0xdc
 8005936:	bd30      	pop	{r4, r5, pc}
 8005938:	40021000 	.word	0x40021000

0800593c <LBF_UART3_IOcfg>:
 800593c:	4b1a      	ldr	r3, [pc, #104]	; (80059a8 <LBF_UART3_IOcfg+0x6c>)
 800593e:	b570      	push	{r4, r5, r6, lr}
 8005940:	6d9a      	ldr	r2, [r3, #88]	; 0x58
 8005942:	4e1a      	ldr	r6, [pc, #104]	; (80059ac <LBF_UART3_IOcfg+0x70>)
 8005944:	f442 2280 	orr.w	r2, r2, #262144	; 0x40000
 8005948:	659a      	str	r2, [r3, #88]	; 0x58
 800594a:	6d9b      	ldr	r3, [r3, #88]	; 0x58
 800594c:	b086      	sub	sp, #24
 800594e:	f403 2380 	and.w	r3, r3, #262144	; 0x40000
 8005952:	9300      	str	r3, [sp, #0]
 8005954:	9b00      	ldr	r3, [sp, #0]
 8005956:	2301      	movs	r3, #1
 8005958:	ac06      	add	r4, sp, #24
 800595a:	9303      	str	r3, [sp, #12]
 800595c:	9304      	str	r3, [sp, #16]
 800595e:	2307      	movs	r3, #7
 8005960:	9305      	str	r3, [sp, #20]
 8005962:	f44f 6380 	mov.w	r3, #1024	; 0x400
 8005966:	f844 3d14 	str.w	r3, [r4, #-20]!
 800596a:	2502      	movs	r5, #2
 800596c:	4630      	mov	r0, r6
 800596e:	4621      	mov	r1, r4
 8005970:	9502      	str	r5, [sp, #8]
 8005972:	f7fb fa7f 	bl	8000e74 <HAL_GPIO_Init>
 8005976:	f44f 6300 	mov.w	r3, #2048	; 0x800
 800597a:	4630      	mov	r0, r6
 800597c:	4621      	mov	r1, r4
 800597e:	9301      	str	r3, [sp, #4]
 8005980:	f7fb fa78 	bl	8000e74 <HAL_GPIO_Init>
 8005984:	9503      	str	r5, [sp, #12]
 8005986:	4d0a      	ldr	r5, [pc, #40]	; (80059b0 <LBF_UART3_IOcfg+0x74>)
 8005988:	f44f 5300 	mov.w	r3, #8192	; 0x2000
 800598c:	4628      	mov	r0, r5
 800598e:	4621      	mov	r1, r4
 8005990:	9301      	str	r3, [sp, #4]
 8005992:	f7fb fa6f 	bl	8000e74 <HAL_GPIO_Init>
 8005996:	f44f 4380 	mov.w	r3, #16384	; 0x4000
 800599a:	4628      	mov	r0, r5
 800599c:	4621      	mov	r1, r4
 800599e:	9301      	str	r3, [sp, #4]
 80059a0:	f7fb fa68 	bl	8000e74 <HAL_GPIO_Init>
 80059a4:	b006      	add	sp, #24
 80059a6:	bd70      	pop	{r4, r5, r6, pc}
 80059a8:	40021000 	.word	0x40021000
 80059ac:	48000800 	.word	0x48000800
 80059b0:	48000400 	.word	0x48000400

080059b4 <LBF_USB_IOcfg>:
 80059b4:	b530      	push	{r4, r5, lr}
 80059b6:	b087      	sub	sp, #28
 80059b8:	f44f 53c0 	mov.w	r3, #6144	; 0x1800
 80059bc:	9301      	str	r3, [sp, #4]
 80059be:	2302      	movs	r3, #2
 80059c0:	2400      	movs	r4, #0
 80059c2:	9302      	str	r3, [sp, #8]
 80059c4:	250a      	movs	r5, #10
 80059c6:	2303      	movs	r3, #3
 80059c8:	a901      	add	r1, sp, #4
 80059ca:	f04f 4090 	mov.w	r0, #1207959552	; 0x48000000
 80059ce:	9304      	str	r3, [sp, #16]
 80059d0:	9403      	str	r4, [sp, #12]
 80059d2:	9505      	str	r5, [sp, #20]
 80059d4:	f7fb fa4e 	bl	8000e74 <HAL_GPIO_Init>
 80059d8:	f44f 7300 	mov.w	r3, #512	; 0x200
 80059dc:	f04f 4090 	mov.w	r0, #1207959552	; 0x48000000
 80059e0:	a901      	add	r1, sp, #4
 80059e2:	9301      	str	r3, [sp, #4]
 80059e4:	9402      	str	r4, [sp, #8]
 80059e6:	9403      	str	r4, [sp, #12]
 80059e8:	9505      	str	r5, [sp, #20]
 80059ea:	f7fb fa43 	bl	8000e74 <HAL_GPIO_Init>
 80059ee:	b007      	add	sp, #28
 80059f0:	bd30      	pop	{r4, r5, pc}

080059f2 <LBF_User_Conf>:
 80059f2:	2300      	movs	r3, #0
 80059f4:	6003      	str	r3, [r0, #0]
 80059f6:	6043      	str	r3, [r0, #4]
 80059f8:	7203      	strb	r3, [r0, #8]
 80059fa:	7243      	strb	r3, [r0, #9]
 80059fc:	7283      	strb	r3, [r0, #10]
 80059fe:	72c3      	strb	r3, [r0, #11]
 8005a00:	7303      	strb	r3, [r0, #12]
 8005a02:	7343      	strb	r3, [r0, #13]
 8005a04:	7383      	strb	r3, [r0, #14]
 8005a06:	73c3      	strb	r3, [r0, #15]
 8005a08:	7403      	strb	r3, [r0, #16]
 8005a0a:	7483      	strb	r3, [r0, #18]
 8005a0c:	74c3      	strb	r3, [r0, #19]
 8005a0e:	7503      	strb	r3, [r0, #20]
 8005a10:	7543      	strb	r3, [r0, #21]
 8005a12:	7583      	strb	r3, [r0, #22]
 8005a14:	75c3      	strb	r3, [r0, #23]
 8005a16:	4770      	bx	lr

08005a18 <HAL_PCD_SetupStageCallback>:
 8005a18:	4601      	mov	r1, r0
 8005a1a:	f501 7161 	add.w	r1, r1, #900	; 0x384
 8005a1e:	f8d0 03c4 	ldr.w	r0, [r0, #964]	; 0x3c4
 8005a22:	f7fe bbbf 	b.w	80041a4 <USBD_LL_SetupStage>

08005a26 <HAL_PCD_DataOutStageCallback>:
 8005a26:	231c      	movs	r3, #28
 8005a28:	fb03 0301 	mla	r3, r3, r1, r0
 8005a2c:	f8d0 03c4 	ldr.w	r0, [r0, #964]	; 0x3c4
 8005a30:	f8d3 21e8 	ldr.w	r2, [r3, #488]	; 0x1e8
 8005a34:	f7fe bbe3 	b.w	80041fe <USBD_LL_DataOutStage>

08005a38 <HAL_PCD_DataInStageCallback>:
 8005a38:	231c      	movs	r3, #28
 8005a3a:	fb03 0301 	mla	r3, r3, r1, r0
 8005a3e:	f8d0 03c4 	ldr.w	r0, [r0, #964]	; 0x3c4
 8005a42:	6c5a      	ldr	r2, [r3, #68]	; 0x44
 8005a44:	f7fe bc0b 	b.w	800425e <USBD_LL_DataInStage>

08005a48 <HAL_PCD_SOFCallback>:
 8005a48:	f8d0 03c4 	ldr.w	r0, [r0, #964]	; 0x3c4
 8005a4c:	f7fe bc86 	b.w	800435c <USBD_LL_SOF>

08005a50 <HAL_PCD_ResetCallback>:
 8005a50:	b510      	push	{r4, lr}
 8005a52:	4604      	mov	r4, r0
 8005a54:	f8d0 03c4 	ldr.w	r0, [r0, #964]	; 0x3c4
 8005a58:	f7fe fc4f 	bl	80042fa <USBD_LL_Reset>
 8005a5c:	f8d4 03c4 	ldr.w	r0, [r4, #964]	; 0x3c4
 8005a60:	2101      	movs	r1, #1
 8005a62:	e8bd 4010 	ldmia.w	sp!, {r4, lr}
 8005a66:	f7fe bc67 	b.w	8004338 <USBD_LL_SetSpeed>

08005a6a <HAL_PCD_SuspendCallback>:
 8005a6a:	f8d0 03c4 	ldr.w	r0, [r0, #964]	; 0x3c4
 8005a6e:	f7fe bc66 	b.w	800433e <USBD_LL_Suspend>

08005a72 <HAL_PCD_ResumeCallback>:
 8005a72:	f8d0 03c4 	ldr.w	r0, [r0, #964]	; 0x3c4
 8005a76:	f7fe bc6b 	b.w	8004350 <USBD_LL_Resume>

08005a7a <HAL_PCD_ISOOUTIncompleteCallback>:
 8005a7a:	f8d0 03c4 	ldr.w	r0, [r0, #964]	; 0x3c4
 8005a7e:	f7fe bc7b 	b.w	8004378 <USBD_LL_IsoOUTIncomplete>

08005a82 <HAL_PCD_ISOINIncompleteCallback>:
 8005a82:	f8d0 03c4 	ldr.w	r0, [r0, #964]	; 0x3c4
 8005a86:	f7fe bc75 	b.w	8004374 <USBD_LL_IsoINIncomplete>

08005a8a <HAL_PCD_ConnectCallback>:
 8005a8a:	f8d0 03c4 	ldr.w	r0, [r0, #964]	; 0x3c4
 8005a8e:	f7fe bc75 	b.w	800437c <USBD_LL_DevConnected>

08005a92 <HAL_PCD_DisconnectCallback>:
 8005a92:	f8d0 03c4 	ldr.w	r0, [r0, #964]	; 0x3c4
 8005a96:	f7fe bc73 	b.w	8004380 <USBD_LL_DevDisconnected>

08005a9a <USBD_LL_OpenEP>:
 8005a9a:	b510      	push	{r4, lr}
 8005a9c:	4614      	mov	r4, r2
 8005a9e:	f8d0 0220 	ldr.w	r0, [r0, #544]	; 0x220
 8005aa2:	461a      	mov	r2, r3
 8005aa4:	4623      	mov	r3, r4
 8005aa6:	f7fb ffdb 	bl	8001a60 <HAL_PCD_EP_Open>
 8005aaa:	2000      	movs	r0, #0
 8005aac:	bd10      	pop	{r4, pc}

08005aae <USBD_LL_StallEP>:
 8005aae:	b508      	push	{r3, lr}
 8005ab0:	f8d0 0220 	ldr.w	r0, [r0, #544]	; 0x220
 8005ab4:	f7fc f854 	bl	8001b60 <HAL_PCD_EP_SetStall>
 8005ab8:	2000      	movs	r0, #0
 8005aba:	bd08      	pop	{r3, pc}

08005abc <USBD_LL_ClearStallEP>:
 8005abc:	b508      	push	{r3, lr}
 8005abe:	f8d0 0220 	ldr.w	r0, [r0, #544]	; 0x220
 8005ac2:	f7fc f87a 	bl	8001bba <HAL_PCD_EP_ClrStall>
 8005ac6:	2000      	movs	r0, #0
 8005ac8:	bd08      	pop	{r3, pc}

08005aca <USBD_LL_IsStallEP>:
 8005aca:	f011 0f80 	tst.w	r1, #128	; 0x80
 8005ace:	f8d0 3220 	ldr.w	r3, [r0, #544]	; 0x220
 8005ad2:	f04f 021c 	mov.w	r2, #28
 8005ad6:	d006      	beq.n	8005ae6 <USBD_LL_IsStallEP+0x1c>
 8005ad8:	f001 017f 	and.w	r1, r1, #127	; 0x7f
 8005adc:	fb02 3301 	mla	r3, r2, r1, r3
 8005ae0:	f893 003a 	ldrb.w	r0, [r3, #58]	; 0x3a
 8005ae4:	4770      	bx	lr
 8005ae6:	fb02 3101 	mla	r1, r2, r1, r3
 8005aea:	f891 01de 	ldrb.w	r0, [r1, #478]	; 0x1de
 8005aee:	4770      	bx	lr

08005af0 <USBD_LL_SetUSBAddress>:
 8005af0:	b508      	push	{r3, lr}
 8005af2:	f8d0 0220 	ldr.w	r0, [r0, #544]	; 0x220
 8005af6:	f7fb ffa1 	bl	8001a3c <HAL_PCD_SetAddress>
 8005afa:	2000      	movs	r0, #0
 8005afc:	bd08      	pop	{r3, pc}

08005afe <USBD_LL_Transmit>:
 8005afe:	b508      	push	{r3, lr}
 8005b00:	f8d0 0220 	ldr.w	r0, [r0, #544]	; 0x220
 8005b04:	f7fc f803 	bl	8001b0e <HAL_PCD_EP_Transmit>
 8005b08:	2000      	movs	r0, #0
 8005b0a:	bd08      	pop	{r3, pc}

08005b0c <USBD_LL_PrepareReceive>:
 8005b0c:	b508      	push	{r3, lr}
 8005b0e:	f8d0 0220 	ldr.w	r0, [r0, #544]	; 0x220
 8005b12:	f7fb ffd2 	bl	8001aba <HAL_PCD_EP_Receive>
 8005b16:	2000      	movs	r0, #0
 8005b18:	bd08      	pop	{r3, pc}

08005b1a <GUI_X_Init>:
 8005b1a:	4770      	bx	lr

08005b1c <GUI_X_Config>:
 8005b1c:	4802      	ldr	r0, [pc, #8]	; (8005b28 <GUI_X_Config+0xc>)
 8005b1e:	f44f 5100 	mov.w	r1, #8192	; 0x2000
 8005b22:	f003 ba79 	b.w	8009018 <GUI_ALLOC_AssignMemory>
 8005b26:	bf00      	nop
 8005b28:	20000e0c 	.word	0x20000e0c

08005b2c <LBF_emWin_Init>:
 8005b2c:	4b0b      	ldr	r3, [pc, #44]	; (8005b5c <LBF_emWin_Init+0x30>)
 8005b2e:	b507      	push	{r0, r1, r2, lr}
 8005b30:	6c9a      	ldr	r2, [r3, #72]	; 0x48
 8005b32:	f442 5280 	orr.w	r2, r2, #4096	; 0x1000
 8005b36:	649a      	str	r2, [r3, #72]	; 0x48
 8005b38:	6c9b      	ldr	r3, [r3, #72]	; 0x48
 8005b3a:	f403 5380 	and.w	r3, r3, #4096	; 0x1000
 8005b3e:	9301      	str	r3, [sp, #4]
 8005b40:	2004      	movs	r0, #4
 8005b42:	9b01      	ldr	r3, [sp, #4]
 8005b44:	f000 f88c 	bl	8005c60 <WM_SetCreateFlags>
 8005b48:	f002 ff3c 	bl	80089c4 <GUI_Init>
 8005b4c:	f1d0 0001 	rsbs	r0, r0, #1
 8005b50:	bf38      	it	cc
 8005b52:	2000      	movcc	r0, #0
 8005b54:	b003      	add	sp, #12
 8005b56:	f85d fb04 	ldr.w	pc, [sp], #4
 8005b5a:	bf00      	nop
 8005b5c:	40021000 	.word	0x40021000

08005b60 <LcdReadDataMultiple>:
 8005b60:	4401      	add	r1, r0
 8005b62:	4288      	cmp	r0, r1
 8005b64:	d003      	beq.n	8005b6e <LcdReadDataMultiple+0xe>
 8005b66:	2300      	movs	r3, #0
 8005b68:	f800 3b01 	strb.w	r3, [r0], #1
 8005b6c:	e7f9      	b.n	8005b62 <LcdReadDataMultiple+0x2>
 8005b6e:	4770      	bx	lr

08005b70 <LcdSend8BitDataMultiple>:
 8005b70:	b538      	push	{r3, r4, r5, lr}
 8005b72:	2200      	movs	r2, #0
 8005b74:	4604      	mov	r4, r0
 8005b76:	460d      	mov	r5, r1
 8005b78:	4809      	ldr	r0, [pc, #36]	; (8005ba0 <LcdSend8BitDataMultiple+0x30>)
 8005b7a:	2120      	movs	r1, #32
 8005b7c:	f7fb fa56 	bl	800102c <HAL_GPIO_WritePin>
 8005b80:	4425      	add	r5, r4
 8005b82:	42ac      	cmp	r4, r5
 8005b84:	d004      	beq.n	8005b90 <LcdSend8BitDataMultiple+0x20>
 8005b86:	f814 0b01 	ldrb.w	r0, [r4], #1
 8005b8a:	f7fe fe6b 	bl	8004864 <LBF_OLED_SPI_TransferByte>
 8005b8e:	e7f8      	b.n	8005b82 <LcdSend8BitDataMultiple+0x12>
 8005b90:	4803      	ldr	r0, [pc, #12]	; (8005ba0 <LcdSend8BitDataMultiple+0x30>)
 8005b92:	2120      	movs	r1, #32
 8005b94:	2201      	movs	r2, #1
 8005b96:	e8bd 4038 	ldmia.w	sp!, {r3, r4, r5, lr}
 8005b9a:	f7fb ba47 	b.w	800102c <HAL_GPIO_WritePin>
 8005b9e:	bf00      	nop
 8005ba0:	48000800 	.word	0x48000800

08005ba4 <LcdSend8BitData>:
 8005ba4:	b538      	push	{r3, r4, r5, lr}
 8005ba6:	4c08      	ldr	r4, [pc, #32]	; (8005bc8 <LcdSend8BitData+0x24>)
 8005ba8:	4605      	mov	r5, r0
 8005baa:	2120      	movs	r1, #32
 8005bac:	4620      	mov	r0, r4
 8005bae:	2200      	movs	r2, #0
 8005bb0:	f7fb fa3c 	bl	800102c <HAL_GPIO_WritePin>
 8005bb4:	4628      	mov	r0, r5
 8005bb6:	f7fe fe55 	bl	8004864 <LBF_OLED_SPI_TransferByte>
 8005bba:	4620      	mov	r0, r4
 8005bbc:	2120      	movs	r1, #32
 8005bbe:	2201      	movs	r2, #1
 8005bc0:	e8bd 4038 	ldmia.w	sp!, {r3, r4, r5, lr}
 8005bc4:	f7fb ba32 	b.w	800102c <HAL_GPIO_WritePin>
 8005bc8:	48000800 	.word	0x48000800

08005bcc <LcdSendCmd>:
 8005bcc:	f7fe be62 	b.w	8004894 <LBF_OLED_SendCmd>

08005bd0 <LCD_X_Config>:
 8005bd0:	b510      	push	{r4, lr}
 8005bd2:	b0a0      	sub	sp, #128	; 0x80
 8005bd4:	a801      	add	r0, sp, #4
 8005bd6:	2100      	movs	r1, #0
 8005bd8:	2214      	movs	r2, #20
 8005bda:	f005 fa09 	bl	800aff0 <memset>
 8005bde:	a806      	add	r0, sp, #24
 8005be0:	2100      	movs	r1, #0
 8005be2:	2268      	movs	r2, #104	; 0x68
 8005be4:	f005 fa04 	bl	800aff0 <memset>
 8005be8:	2200      	movs	r2, #0
 8005bea:	4613      	mov	r3, r2
 8005bec:	4911      	ldr	r1, [pc, #68]	; (8005c34 <LCD_X_Config+0x64>)
 8005bee:	4812      	ldr	r0, [pc, #72]	; (8005c38 <LCD_X_Config+0x68>)
 8005bf0:	f002 fe12 	bl	8008818 <GUI_DEVICE_CreateAndLink>
 8005bf4:	21a0      	movs	r1, #160	; 0xa0
 8005bf6:	4604      	mov	r4, r0
 8005bf8:	2280      	movs	r2, #128	; 0x80
 8005bfa:	2000      	movs	r0, #0
 8005bfc:	f001 ff4a 	bl	8007a94 <LCD_SetSizeEx>
 8005c00:	2280      	movs	r2, #128	; 0x80
 8005c02:	21a0      	movs	r1, #160	; 0xa0
 8005c04:	2000      	movs	r0, #0
 8005c06:	f001 ff2d 	bl	8007a64 <LCD_SetVSizeEx>
 8005c0a:	4620      	mov	r0, r4
 8005c0c:	a901      	add	r1, sp, #4
 8005c0e:	f001 fec8 	bl	80079a2 <GUIDRV_FlexColor_Config>
 8005c12:	4b0a      	ldr	r3, [pc, #40]	; (8005c3c <LCD_X_Config+0x6c>)
 8005c14:	9306      	str	r3, [sp, #24]
 8005c16:	4b0a      	ldr	r3, [pc, #40]	; (8005c40 <LCD_X_Config+0x70>)
 8005c18:	9307      	str	r3, [sp, #28]
 8005c1a:	4b0a      	ldr	r3, [pc, #40]	; (8005c44 <LCD_X_Config+0x74>)
 8005c1c:	9309      	str	r3, [sp, #36]	; 0x24
 8005c1e:	4b0a      	ldr	r3, [pc, #40]	; (8005c48 <LCD_X_Config+0x78>)
 8005c20:	930d      	str	r3, [sp, #52]	; 0x34
 8005c22:	4620      	mov	r0, r4
 8005c24:	a906      	add	r1, sp, #24
 8005c26:	4a09      	ldr	r2, [pc, #36]	; (8005c4c <LCD_X_Config+0x7c>)
 8005c28:	4b09      	ldr	r3, [pc, #36]	; (8005c50 <LCD_X_Config+0x80>)
 8005c2a:	f001 fed8 	bl	80079de <GUIDRV_FlexColor_SetFunc>
 8005c2e:	b020      	add	sp, #128	; 0x80
 8005c30:	bd10      	pop	{r4, pc}
 8005c32:	bf00      	nop
 8005c34:	0800c77c 	.word	0x0800c77c
 8005c38:	0800c634 	.word	0x0800c634
 8005c3c:	08005bcd 	.word	0x08005bcd
 8005c40:	08005ba5 	.word	0x08005ba5
 8005c44:	08005b71 	.word	0x08005b71
 8005c48:	08005b61 	.word	0x08005b61
 8005c4c:	08006cbd 	.word	0x08006cbd
 8005c50:	080073a9 	.word	0x080073a9

08005c54 <LCD_X_DisplayDriver>:
 8005c54:	2901      	cmp	r1, #1
 8005c56:	bf14      	ite	ne
 8005c58:	f04f 30ff 	movne.w	r0, #4294967295
 8005c5c:	2000      	moveq	r0, #0
 8005c5e:	4770      	bx	lr

08005c60 <WM_SetCreateFlags>:
 8005c60:	4b02      	ldr	r3, [pc, #8]	; (8005c6c <WM_SetCreateFlags+0xc>)
 8005c62:	681a      	ldr	r2, [r3, #0]
 8005c64:	6018      	str	r0, [r3, #0]
 8005c66:	4610      	mov	r0, r2
 8005c68:	4770      	bx	lr
 8005c6a:	bf00      	nop
 8005c6c:	20002e3c 	.word	0x20002e3c

08005c70 <_OnExit>:
 8005c70:	4a0a      	ldr	r2, [pc, #40]	; (8005c9c <_OnExit+0x2c>)
 8005c72:	490b      	ldr	r1, [pc, #44]	; (8005ca0 <_OnExit+0x30>)
 8005c74:	2300      	movs	r3, #0
 8005c76:	7013      	strb	r3, [r2, #0]
 8005c78:	4a0a      	ldr	r2, [pc, #40]	; (8005ca4 <_OnExit+0x34>)
 8005c7a:	600b      	str	r3, [r1, #0]
 8005c7c:	6013      	str	r3, [r2, #0]
 8005c7e:	4a0a      	ldr	r2, [pc, #40]	; (8005ca8 <_OnExit+0x38>)
 8005c80:	604b      	str	r3, [r1, #4]
 8005c82:	6013      	str	r3, [r2, #0]
 8005c84:	4a09      	ldr	r2, [pc, #36]	; (8005cac <_OnExit+0x3c>)
 8005c86:	6013      	str	r3, [r2, #0]
 8005c88:	6053      	str	r3, [r2, #4]
 8005c8a:	4a09      	ldr	r2, [pc, #36]	; (8005cb0 <_OnExit+0x40>)
 8005c8c:	6013      	str	r3, [r2, #0]
 8005c8e:	4a09      	ldr	r2, [pc, #36]	; (8005cb4 <_OnExit+0x44>)
 8005c90:	6013      	str	r3, [r2, #0]
 8005c92:	4a09      	ldr	r2, [pc, #36]	; (8005cb8 <_OnExit+0x48>)
 8005c94:	6013      	str	r3, [r2, #0]
 8005c96:	4a09      	ldr	r2, [pc, #36]	; (8005cbc <_OnExit+0x4c>)
 8005c98:	6013      	str	r3, [r2, #0]
 8005c9a:	4770      	bx	lr
 8005c9c:	2000048c 	.word	0x2000048c
 8005ca0:	20002e24 	.word	0x20002e24
 8005ca4:	20000464 	.word	0x20000464
 8005ca8:	20002e48 	.word	0x20002e48
 8005cac:	20002e50 	.word	0x20002e50
 8005cb0:	20002e5c 	.word	0x20002e5c
 8005cb4:	20002e10 	.word	0x20002e10
 8005cb8:	20002e3c 	.word	0x20002e3c
 8005cbc:	20002e4c 	.word	0x20002e4c

08005cc0 <_Findy1>:
 8005cc0:	b5f0      	push	{r4, r5, r6, r7, lr}
 8005cc2:	4605      	mov	r5, r0
 8005cc4:	b085      	sub	sp, #20
 8005cc6:	460c      	mov	r4, r1
 8005cc8:	4616      	mov	r6, r2
 8005cca:	2d00      	cmp	r5, #0
 8005ccc:	d04c      	beq.n	8005d68 <_Findy1+0xa8>
 8005cce:	4628      	mov	r0, r5
 8005cd0:	f003 f97c 	bl	8008fcc <GUI_ALLOC_LockH>
 8005cd4:	6a87      	ldr	r7, [r0, #40]	; 0x28
 8005cd6:	9001      	str	r0, [sp, #4]
 8005cd8:	07bb      	lsls	r3, r7, #30
 8005cda:	4601      	mov	r1, r0
 8005cdc:	d53d      	bpl.n	8005d5a <_Findy1+0x9a>
 8005cde:	ad02      	add	r5, sp, #8
 8005ce0:	b126      	cbz	r6, 8005cec <_Findy1+0x2c>
 8005ce2:	4628      	mov	r0, r5
 8005ce4:	4632      	mov	r2, r6
 8005ce6:	f002 fb8d 	bl	8008404 <GUI__IntersectRects>
 8005cea:	e002      	b.n	8005cf2 <_Findy1+0x32>
 8005cec:	c803      	ldmia	r0, {r0, r1}
 8005cee:	e885 0003 	stmia.w	r5, {r0, r1}
 8005cf2:	4620      	mov	r0, r4
 8005cf4:	4629      	mov	r1, r5
 8005cf6:	f002 fc10 	bl	800851a <GUI_RectsIntersect>
 8005cfa:	b370      	cbz	r0, 8005d5a <_Findy1+0x9a>
 8005cfc:	f017 0f01 	tst.w	r7, #1
 8005d00:	9b01      	ldr	r3, [sp, #4]
 8005d02:	d11e      	bne.n	8005d42 <_Findy1+0x82>
 8005d04:	b13e      	cbz	r6, 8005d16 <_Findy1+0x56>
 8005d06:	f9b3 2002 	ldrsh.w	r2, [r3, #2]
 8005d0a:	f9b6 3002 	ldrsh.w	r3, [r6, #2]
 8005d0e:	429a      	cmp	r2, r3
 8005d10:	bfa8      	it	ge
 8005d12:	4613      	movge	r3, r2
 8005d14:	e001      	b.n	8005d1a <_Findy1+0x5a>
 8005d16:	f9b3 3002 	ldrsh.w	r3, [r3, #2]
 8005d1a:	f9b4 2002 	ldrsh.w	r2, [r4, #2]
 8005d1e:	4293      	cmp	r3, r2
 8005d20:	f9b4 2006 	ldrsh.w	r2, [r4, #6]
 8005d24:	dd06      	ble.n	8005d34 <_Findy1+0x74>
 8005d26:	f8bd 300a 	ldrh.w	r3, [sp, #10]
 8005d2a:	b219      	sxth	r1, r3
 8005d2c:	428a      	cmp	r2, r1
 8005d2e:	db14      	blt.n	8005d5a <_Findy1+0x9a>
 8005d30:	3b01      	subs	r3, #1
 8005d32:	e004      	b.n	8005d3e <_Findy1+0x7e>
 8005d34:	f8bd 300e 	ldrh.w	r3, [sp, #14]
 8005d38:	b219      	sxth	r1, r3
 8005d3a:	428a      	cmp	r2, r1
 8005d3c:	dd0d      	ble.n	8005d5a <_Findy1+0x9a>
 8005d3e:	80e3      	strh	r3, [r4, #6]
 8005d40:	e00b      	b.n	8005d5a <_Findy1+0x9a>
 8005d42:	69df      	ldr	r7, [r3, #28]
 8005d44:	b14f      	cbz	r7, 8005d5a <_Findy1+0x9a>
 8005d46:	4638      	mov	r0, r7
 8005d48:	4621      	mov	r1, r4
 8005d4a:	462a      	mov	r2, r5
 8005d4c:	f7ff ffb8 	bl	8005cc0 <_Findy1>
 8005d50:	4638      	mov	r0, r7
 8005d52:	f003 f931 	bl	8008fb8 <GUI_ALLOC_h2p>
 8005d56:	6a07      	ldr	r7, [r0, #32]
 8005d58:	e7f4      	b.n	8005d44 <_Findy1+0x84>
 8005d5a:	a804      	add	r0, sp, #16
 8005d5c:	f850 3d0c 	ldr.w	r3, [r0, #-12]!
 8005d60:	6a1d      	ldr	r5, [r3, #32]
 8005d62:	f003 f941 	bl	8008fe8 <GUI_ALLOC_UnlockH>
 8005d66:	e7b0      	b.n	8005cca <_Findy1+0xa>
 8005d68:	b005      	add	sp, #20
 8005d6a:	bdf0      	pop	{r4, r5, r6, r7, pc}

08005d6c <_Findx0>:
 8005d6c:	e92d 41ff 	stmdb	sp!, {r0, r1, r2, r3, r4, r5, r6, r7, r8, lr}
 8005d70:	4604      	mov	r4, r0
 8005d72:	460f      	mov	r7, r1
 8005d74:	4690      	mov	r8, r2
 8005d76:	2500      	movs	r5, #0
 8005d78:	2c00      	cmp	r4, #0
 8005d7a:	d037      	beq.n	8005dec <_Findx0+0x80>
 8005d7c:	4620      	mov	r0, r4
 8005d7e:	f003 f925 	bl	8008fcc <GUI_ALLOC_LockH>
 8005d82:	6a86      	ldr	r6, [r0, #40]	; 0x28
 8005d84:	9001      	str	r0, [sp, #4]
 8005d86:	07b2      	lsls	r2, r6, #30
 8005d88:	4601      	mov	r1, r0
 8005d8a:	d528      	bpl.n	8005dde <_Findx0+0x72>
 8005d8c:	ac02      	add	r4, sp, #8
 8005d8e:	f1b8 0f00 	cmp.w	r8, #0
 8005d92:	d004      	beq.n	8005d9e <_Findx0+0x32>
 8005d94:	4620      	mov	r0, r4
 8005d96:	4642      	mov	r2, r8
 8005d98:	f002 fb34 	bl	8008404 <GUI__IntersectRects>
 8005d9c:	e002      	b.n	8005da4 <_Findx0+0x38>
 8005d9e:	c803      	ldmia	r0, {r0, r1}
 8005da0:	e884 0003 	stmia.w	r4, {r0, r1}
 8005da4:	4638      	mov	r0, r7
 8005da6:	4621      	mov	r1, r4
 8005da8:	f002 fbb7 	bl	800851a <GUI_RectsIntersect>
 8005dac:	b1b8      	cbz	r0, 8005dde <_Findx0+0x72>
 8005dae:	07f3      	lsls	r3, r6, #31
 8005db0:	d405      	bmi.n	8005dbe <_Findx0+0x52>
 8005db2:	f8bd 300c 	ldrh.w	r3, [sp, #12]
 8005db6:	3301      	adds	r3, #1
 8005db8:	803b      	strh	r3, [r7, #0]
 8005dba:	2501      	movs	r5, #1
 8005dbc:	e00f      	b.n	8005dde <_Findx0+0x72>
 8005dbe:	9b01      	ldr	r3, [sp, #4]
 8005dc0:	69de      	ldr	r6, [r3, #28]
 8005dc2:	b166      	cbz	r6, 8005dde <_Findx0+0x72>
 8005dc4:	4630      	mov	r0, r6
 8005dc6:	4639      	mov	r1, r7
 8005dc8:	4622      	mov	r2, r4
 8005dca:	f7ff ffcf 	bl	8005d6c <_Findx0>
 8005dce:	2800      	cmp	r0, #0
 8005dd0:	4630      	mov	r0, r6
 8005dd2:	bf18      	it	ne
 8005dd4:	2501      	movne	r5, #1
 8005dd6:	f003 f8ef 	bl	8008fb8 <GUI_ALLOC_h2p>
 8005dda:	6a06      	ldr	r6, [r0, #32]
 8005ddc:	e7f1      	b.n	8005dc2 <_Findx0+0x56>
 8005dde:	a804      	add	r0, sp, #16
 8005de0:	f850 3d0c 	ldr.w	r3, [r0, #-12]!
 8005de4:	6a1c      	ldr	r4, [r3, #32]
 8005de6:	f003 f8ff 	bl	8008fe8 <GUI_ALLOC_UnlockH>
 8005dea:	e7c5      	b.n	8005d78 <_Findx0+0xc>
 8005dec:	4628      	mov	r0, r5
 8005dee:	b004      	add	sp, #16
 8005df0:	e8bd 81f0 	ldmia.w	sp!, {r4, r5, r6, r7, r8, pc}

08005df4 <_Findx1>:
 8005df4:	b5f0      	push	{r4, r5, r6, r7, lr}
 8005df6:	4604      	mov	r4, r0
 8005df8:	b085      	sub	sp, #20
 8005dfa:	460e      	mov	r6, r1
 8005dfc:	4617      	mov	r7, r2
 8005dfe:	2c00      	cmp	r4, #0
 8005e00:	d031      	beq.n	8005e66 <_Findx1+0x72>
 8005e02:	4620      	mov	r0, r4
 8005e04:	f003 f8e2 	bl	8008fcc <GUI_ALLOC_LockH>
 8005e08:	6a85      	ldr	r5, [r0, #40]	; 0x28
 8005e0a:	9001      	str	r0, [sp, #4]
 8005e0c:	07aa      	lsls	r2, r5, #30
 8005e0e:	4601      	mov	r1, r0
 8005e10:	d522      	bpl.n	8005e58 <_Findx1+0x64>
 8005e12:	ac02      	add	r4, sp, #8
 8005e14:	b127      	cbz	r7, 8005e20 <_Findx1+0x2c>
 8005e16:	4620      	mov	r0, r4
 8005e18:	463a      	mov	r2, r7
 8005e1a:	f002 faf3 	bl	8008404 <GUI__IntersectRects>
 8005e1e:	e002      	b.n	8005e26 <_Findx1+0x32>
 8005e20:	c803      	ldmia	r0, {r0, r1}
 8005e22:	e884 0003 	stmia.w	r4, {r0, r1}
 8005e26:	4630      	mov	r0, r6
 8005e28:	4621      	mov	r1, r4
 8005e2a:	f002 fb76 	bl	800851a <GUI_RectsIntersect>
 8005e2e:	b198      	cbz	r0, 8005e58 <_Findx1+0x64>
 8005e30:	07eb      	lsls	r3, r5, #31
 8005e32:	d404      	bmi.n	8005e3e <_Findx1+0x4a>
 8005e34:	f8bd 3008 	ldrh.w	r3, [sp, #8]
 8005e38:	3b01      	subs	r3, #1
 8005e3a:	80b3      	strh	r3, [r6, #4]
 8005e3c:	e00c      	b.n	8005e58 <_Findx1+0x64>
 8005e3e:	9b01      	ldr	r3, [sp, #4]
 8005e40:	69dd      	ldr	r5, [r3, #28]
 8005e42:	b14d      	cbz	r5, 8005e58 <_Findx1+0x64>
 8005e44:	4628      	mov	r0, r5
 8005e46:	4631      	mov	r1, r6
 8005e48:	4622      	mov	r2, r4
 8005e4a:	f7ff ffd3 	bl	8005df4 <_Findx1>
 8005e4e:	4628      	mov	r0, r5
 8005e50:	f003 f8b2 	bl	8008fb8 <GUI_ALLOC_h2p>
 8005e54:	6a05      	ldr	r5, [r0, #32]
 8005e56:	e7f4      	b.n	8005e42 <_Findx1+0x4e>
 8005e58:	a804      	add	r0, sp, #16
 8005e5a:	f850 3d0c 	ldr.w	r3, [r0, #-12]!
 8005e5e:	6a1c      	ldr	r4, [r3, #32]
 8005e60:	f003 f8c2 	bl	8008fe8 <GUI_ALLOC_UnlockH>
 8005e64:	e7cb      	b.n	8005dfe <_Findx1+0xa>
 8005e66:	b005      	add	sp, #20
 8005e68:	bdf0      	pop	{r4, r5, r6, r7, pc}
	...

08005e6c <WM__ClipAtParentBorders>:
 8005e6c:	b5f7      	push	{r0, r1, r2, r4, r5, r6, r7, lr}
 8005e6e:	4607      	mov	r7, r0
 8005e70:	460d      	mov	r5, r1
 8005e72:	4628      	mov	r0, r5
 8005e74:	f003 f8aa 	bl	8008fcc <GUI_ALLOC_LockH>
 8005e78:	6a83      	ldr	r3, [r0, #40]	; 0x28
 8005e7a:	ac02      	add	r4, sp, #8
 8005e7c:	f013 0602 	ands.w	r6, r3, #2
 8005e80:	4601      	mov	r1, r0
 8005e82:	f844 0d04 	str.w	r0, [r4, #-4]!
 8005e86:	d104      	bne.n	8005e92 <WM__ClipAtParentBorders+0x26>
 8005e88:	4620      	mov	r0, r4
 8005e8a:	f003 f8ad 	bl	8008fe8 <GUI_ALLOC_UnlockH>
 8005e8e:	4630      	mov	r0, r6
 8005e90:	e016      	b.n	8005ec0 <WM__ClipAtParentBorders+0x54>
 8005e92:	4638      	mov	r0, r7
 8005e94:	f002 fae8 	bl	8008468 <GUI__IntersectRect>
 8005e98:	9b01      	ldr	r3, [sp, #4]
 8005e9a:	699e      	ldr	r6, [r3, #24]
 8005e9c:	4620      	mov	r0, r4
 8005e9e:	b956      	cbnz	r6, 8005eb6 <WM__ClipAtParentBorders+0x4a>
 8005ea0:	f003 f8a2 	bl	8008fe8 <GUI_ALLOC_UnlockH>
 8005ea4:	4b07      	ldr	r3, [pc, #28]	; (8005ec4 <WM__ClipAtParentBorders+0x58>)
 8005ea6:	681a      	ldr	r2, [r3, #0]
 8005ea8:	4295      	cmp	r5, r2
 8005eaa:	d008      	beq.n	8005ebe <WM__ClipAtParentBorders+0x52>
 8005eac:	6858      	ldr	r0, [r3, #4]
 8005eae:	1a2b      	subs	r3, r5, r0
 8005eb0:	4258      	negs	r0, r3
 8005eb2:	4158      	adcs	r0, r3
 8005eb4:	e004      	b.n	8005ec0 <WM__ClipAtParentBorders+0x54>
 8005eb6:	f003 f897 	bl	8008fe8 <GUI_ALLOC_UnlockH>
 8005eba:	4635      	mov	r5, r6
 8005ebc:	e7d9      	b.n	8005e72 <WM__ClipAtParentBorders+0x6>
 8005ebe:	2001      	movs	r0, #1
 8005ec0:	b003      	add	sp, #12
 8005ec2:	bdf0      	pop	{r4, r5, r6, r7, pc}
 8005ec4:	20002e14 	.word	0x20002e14

08005ec8 <WM__InsertWindowIntoList>:
 8005ec8:	b5f0      	push	{r4, r5, r6, r7, lr}
 8005eca:	4604      	mov	r4, r0
 8005ecc:	b085      	sub	sp, #20
 8005ece:	460d      	mov	r5, r1
 8005ed0:	2900      	cmp	r1, #0
 8005ed2:	d049      	beq.n	8005f68 <WM__InsertWindowIntoList+0xa0>
 8005ed4:	f003 f87a 	bl	8008fcc <GUI_ALLOC_LockH>
 8005ed8:	2300      	movs	r3, #0
 8005eda:	6203      	str	r3, [r0, #32]
 8005edc:	6185      	str	r5, [r0, #24]
 8005ede:	9001      	str	r0, [sp, #4]
 8005ee0:	4628      	mov	r0, r5
 8005ee2:	f003 f873 	bl	8008fcc <GUI_ALLOC_LockH>
 8005ee6:	9b01      	ldr	r3, [sp, #4]
 8005ee8:	69c5      	ldr	r5, [r0, #28]
 8005eea:	9002      	str	r0, [sp, #8]
 8005eec:	6a9f      	ldr	r7, [r3, #40]	; 0x28
 8005eee:	b92d      	cbnz	r5, 8005efc <WM__InsertWindowIntoList+0x34>
 8005ef0:	61c4      	str	r4, [r0, #28]
 8005ef2:	a801      	add	r0, sp, #4
 8005ef4:	f003 f878 	bl	8008fe8 <GUI_ALLOC_UnlockH>
 8005ef8:	a802      	add	r0, sp, #8
 8005efa:	e033      	b.n	8005f64 <WM__InsertWindowIntoList+0x9c>
 8005efc:	4628      	mov	r0, r5
 8005efe:	f003 f865 	bl	8008fcc <GUI_ALLOC_LockH>
 8005f02:	ae04      	add	r6, sp, #16
 8005f04:	f007 0708 	and.w	r7, r7, #8
 8005f08:	f846 0d04 	str.w	r0, [r6, #-4]!
 8005f0c:	b977      	cbnz	r7, 8005f2c <WM__InsertWindowIntoList+0x64>
 8005f0e:	6a83      	ldr	r3, [r0, #40]	; 0x28
 8005f10:	071a      	lsls	r2, r3, #28
 8005f12:	d50b      	bpl.n	8005f2c <WM__InsertWindowIntoList+0x64>
 8005f14:	9b01      	ldr	r3, [sp, #4]
 8005f16:	621d      	str	r5, [r3, #32]
 8005f18:	9b02      	ldr	r3, [sp, #8]
 8005f1a:	a801      	add	r0, sp, #4
 8005f1c:	61dc      	str	r4, [r3, #28]
 8005f1e:	f003 f863 	bl	8008fe8 <GUI_ALLOC_UnlockH>
 8005f22:	a802      	add	r0, sp, #8
 8005f24:	f003 f860 	bl	8008fe8 <GUI_ALLOC_UnlockH>
 8005f28:	4630      	mov	r0, r6
 8005f2a:	e01b      	b.n	8005f64 <WM__InsertWindowIntoList+0x9c>
 8005f2c:	a802      	add	r0, sp, #8
 8005f2e:	f003 f85b 	bl	8008fe8 <GUI_ALLOC_UnlockH>
 8005f32:	4630      	mov	r0, r6
 8005f34:	f003 f858 	bl	8008fe8 <GUI_ALLOC_UnlockH>
 8005f38:	4628      	mov	r0, r5
 8005f3a:	f003 f83d 	bl	8008fb8 <GUI_ALLOC_h2p>
 8005f3e:	9003      	str	r0, [sp, #12]
 8005f40:	9b03      	ldr	r3, [sp, #12]
 8005f42:	6a1d      	ldr	r5, [r3, #32]
 8005f44:	b90d      	cbnz	r5, 8005f4a <WM__InsertWindowIntoList+0x82>
 8005f46:	621c      	str	r4, [r3, #32]
 8005f48:	e00b      	b.n	8005f62 <WM__InsertWindowIntoList+0x9a>
 8005f4a:	4628      	mov	r0, r5
 8005f4c:	f003 f834 	bl	8008fb8 <GUI_ALLOC_h2p>
 8005f50:	2f00      	cmp	r7, #0
 8005f52:	d1f4      	bne.n	8005f3e <WM__InsertWindowIntoList+0x76>
 8005f54:	6a83      	ldr	r3, [r0, #40]	; 0x28
 8005f56:	071b      	lsls	r3, r3, #28
 8005f58:	d5f1      	bpl.n	8005f3e <WM__InsertWindowIntoList+0x76>
 8005f5a:	9b03      	ldr	r3, [sp, #12]
 8005f5c:	621c      	str	r4, [r3, #32]
 8005f5e:	9b01      	ldr	r3, [sp, #4]
 8005f60:	621d      	str	r5, [r3, #32]
 8005f62:	a801      	add	r0, sp, #4
 8005f64:	f003 f840 	bl	8008fe8 <GUI_ALLOC_UnlockH>
 8005f68:	b005      	add	sp, #20
 8005f6a:	bdf0      	pop	{r4, r5, r6, r7, pc}

08005f6c <WM__Client2Screen>:
 8005f6c:	4603      	mov	r3, r0
 8005f6e:	4608      	mov	r0, r1
 8005f70:	f9b3 2002 	ldrsh.w	r2, [r3, #2]
 8005f74:	f9b3 1000 	ldrsh.w	r1, [r3]
 8005f78:	f002 baf4 	b.w	8008564 <GUI_MoveRect>

08005f7c <_SetClipRectUserIntersect>:
 8005f7c:	4b11      	ldr	r3, [pc, #68]	; (8005fc4 <_SetClipRectUserIntersect+0x48>)
 8005f7e:	b530      	push	{r4, r5, lr}
 8005f80:	681c      	ldr	r4, [r3, #0]
 8005f82:	6c62      	ldr	r2, [r4, #68]	; 0x44
 8005f84:	b085      	sub	sp, #20
 8005f86:	4605      	mov	r5, r0
 8005f88:	b1ba      	cbz	r2, 8005fba <_SetClipRectUserIntersect+0x3e>
 8005f8a:	6810      	ldr	r0, [r2, #0]
 8005f8c:	6851      	ldr	r1, [r2, #4]
 8005f8e:	ab02      	add	r3, sp, #8
 8005f90:	c303      	stmia	r3!, {r0, r1}
 8005f92:	4b0d      	ldr	r3, [pc, #52]	; (8005fc8 <_SetClipRectUserIntersect+0x4c>)
 8005f94:	6818      	ldr	r0, [r3, #0]
 8005f96:	b900      	cbnz	r0, 8005f9a <_SetClipRectUserIntersect+0x1e>
 8005f98:	6ca0      	ldr	r0, [r4, #72]	; 0x48
 8005f9a:	f003 f817 	bl	8008fcc <GUI_ALLOC_LockH>
 8005f9e:	ac04      	add	r4, sp, #16
 8005fa0:	a902      	add	r1, sp, #8
 8005fa2:	f844 0d0c 	str.w	r0, [r4, #-12]!
 8005fa6:	f7ff ffe1 	bl	8005f6c <WM__Client2Screen>
 8005faa:	4620      	mov	r0, r4
 8005fac:	f003 f81c 	bl	8008fe8 <GUI_ALLOC_UnlockH>
 8005fb0:	a802      	add	r0, sp, #8
 8005fb2:	4629      	mov	r1, r5
 8005fb4:	f002 fa58 	bl	8008468 <GUI__IntersectRect>
 8005fb8:	a802      	add	r0, sp, #8
 8005fba:	f001 fd3b 	bl	8007a34 <LCD_SetClipRectEx>
 8005fbe:	b005      	add	sp, #20
 8005fc0:	bd30      	pop	{r4, r5, pc}
 8005fc2:	bf00      	nop
 8005fc4:	20000008 	.word	0x20000008
 8005fc8:	20002e10 	.word	0x20002e10

08005fcc <WM__ActivateClipRect>:
 8005fcc:	b51f      	push	{r0, r1, r2, r3, r4, lr}
 8005fce:	4b0e      	ldr	r3, [pc, #56]	; (8006008 <WM__ActivateClipRect+0x3c>)
 8005fd0:	681b      	ldr	r3, [r3, #0]
 8005fd2:	f893 2054 	ldrb.w	r2, [r3, #84]	; 0x54
 8005fd6:	b10a      	cbz	r2, 8005fdc <WM__ActivateClipRect+0x10>
 8005fd8:	480c      	ldr	r0, [pc, #48]	; (800600c <WM__ActivateClipRect+0x40>)
 8005fda:	e011      	b.n	8006000 <WM__ActivateClipRect+0x34>
 8005fdc:	6c98      	ldr	r0, [r3, #72]	; 0x48
 8005fde:	f002 fff5 	bl	8008fcc <GUI_ALLOC_LockH>
 8005fe2:	9001      	str	r0, [sp, #4]
 8005fe4:	c803      	ldmia	r0, {r0, r1}
 8005fe6:	ac02      	add	r4, sp, #8
 8005fe8:	e884 0003 	stmia.w	r4, {r0, r1}
 8005fec:	a801      	add	r0, sp, #4
 8005fee:	f002 fffb 	bl	8008fe8 <GUI_ALLOC_UnlockH>
 8005ff2:	4b07      	ldr	r3, [pc, #28]	; (8006010 <WM__ActivateClipRect+0x44>)
 8005ff4:	6819      	ldr	r1, [r3, #0]
 8005ff6:	b111      	cbz	r1, 8005ffe <WM__ActivateClipRect+0x32>
 8005ff8:	4620      	mov	r0, r4
 8005ffa:	f7ff ff37 	bl	8005e6c <WM__ClipAtParentBorders>
 8005ffe:	4620      	mov	r0, r4
 8006000:	f7ff ffbc 	bl	8005f7c <_SetClipRectUserIntersect>
 8006004:	b004      	add	sp, #16
 8006006:	bd10      	pop	{r4, pc}
 8006008:	20000008 	.word	0x20000008
 800600c:	20000478 	.word	0x20000478
 8006010:	20002e10 	.word	0x20002e10

08006014 <WM__InvalidateDrawAndDescs>:
 8006014:	b513      	push	{r0, r1, r4, lr}
 8006016:	4604      	mov	r4, r0
 8006018:	b300      	cbz	r0, 800605c <WM__InvalidateDrawAndDescs+0x48>
 800601a:	f002 ffd7 	bl	8008fcc <GUI_ALLOC_LockH>
 800601e:	6a82      	ldr	r2, [r0, #40]	; 0x28
 8006020:	9001      	str	r0, [sp, #4]
 8006022:	0793      	lsls	r3, r2, #30
 8006024:	d517      	bpl.n	8006056 <WM__InvalidateDrawAndDescs+0x42>
 8006026:	6a40      	ldr	r0, [r0, #36]	; 0x24
 8006028:	b140      	cbz	r0, 800603c <WM__InvalidateDrawAndDescs+0x28>
 800602a:	4b0d      	ldr	r3, [pc, #52]	; (8006060 <WM__InvalidateDrawAndDescs+0x4c>)
 800602c:	681b      	ldr	r3, [r3, #0]
 800602e:	42a3      	cmp	r3, r4
 8006030:	d004      	beq.n	800603c <WM__InvalidateDrawAndDescs+0x28>
 8006032:	f000 fc5d 	bl	80068f0 <GUI_MEMDEV_Delete>
 8006036:	9b01      	ldr	r3, [sp, #4]
 8006038:	2200      	movs	r2, #0
 800603a:	625a      	str	r2, [r3, #36]	; 0x24
 800603c:	4620      	mov	r0, r4
 800603e:	f003 fa97 	bl	8009570 <WM_GetFirstChild>
 8006042:	4604      	mov	r4, r0
 8006044:	b13c      	cbz	r4, 8006056 <WM__InvalidateDrawAndDescs+0x42>
 8006046:	4620      	mov	r0, r4
 8006048:	f7ff ffe4 	bl	8006014 <WM__InvalidateDrawAndDescs>
 800604c:	4620      	mov	r0, r4
 800604e:	f002 ffb3 	bl	8008fb8 <GUI_ALLOC_h2p>
 8006052:	6a04      	ldr	r4, [r0, #32]
 8006054:	e7f6      	b.n	8006044 <WM__InvalidateDrawAndDescs+0x30>
 8006056:	a801      	add	r0, sp, #4
 8006058:	f002 ffc6 	bl	8008fe8 <GUI_ALLOC_UnlockH>
 800605c:	b002      	add	sp, #8
 800605e:	bd10      	pop	{r4, pc}
 8006060:	20002e58 	.word	0x20002e58

08006064 <WM__RectIsNZ>:
 8006064:	f9b0 2000 	ldrsh.w	r2, [r0]
 8006068:	f9b0 3004 	ldrsh.w	r3, [r0, #4]
 800606c:	429a      	cmp	r2, r3
 800606e:	dc08      	bgt.n	8006082 <WM__RectIsNZ+0x1e>
 8006070:	f9b0 2002 	ldrsh.w	r2, [r0, #2]
 8006074:	f9b0 3006 	ldrsh.w	r3, [r0, #6]
 8006078:	429a      	cmp	r2, r3
 800607a:	bfcc      	ite	gt
 800607c:	2000      	movgt	r0, #0
 800607e:	2001      	movle	r0, #1
 8006080:	4770      	bx	lr
 8006082:	2000      	movs	r0, #0
 8006084:	4770      	bx	lr
	...

08006088 <_Invalidate1Abs>:
 8006088:	b5f0      	push	{r4, r5, r6, r7, lr}
 800608a:	b085      	sub	sp, #20
 800608c:	4606      	mov	r6, r0
 800608e:	460d      	mov	r5, r1
 8006090:	4617      	mov	r7, r2
 8006092:	f002 ff91 	bl	8008fb8 <GUI_ALLOC_h2p>
 8006096:	6a84      	ldr	r4, [r0, #40]	; 0x28
 8006098:	9001      	str	r0, [sp, #4]
 800609a:	07a3      	lsls	r3, r4, #30
 800609c:	d534      	bpl.n	8006108 <_Invalidate1Abs+0x80>
 800609e:	4628      	mov	r0, r5
 80060a0:	f7ff ffe0 	bl	8006064 <WM__RectIsNZ>
 80060a4:	2800      	cmp	r0, #0
 80060a6:	d02f      	beq.n	8006108 <_Invalidate1Abs+0x80>
 80060a8:	f640 0301 	movw	r3, #2049	; 0x801
 80060ac:	4023      	ands	r3, r4
 80060ae:	2b01      	cmp	r3, #1
 80060b0:	d02a      	beq.n	8006108 <_Invalidate1Abs+0x80>
 80060b2:	4630      	mov	r0, r6
 80060b4:	f002 ff8a 	bl	8008fcc <GUI_ALLOC_LockH>
 80060b8:	ac02      	add	r4, sp, #8
 80060ba:	4602      	mov	r2, r0
 80060bc:	9001      	str	r0, [sp, #4]
 80060be:	4629      	mov	r1, r5
 80060c0:	4620      	mov	r0, r4
 80060c2:	f002 f99f 	bl	8008404 <GUI__IntersectRects>
 80060c6:	4620      	mov	r0, r4
 80060c8:	f7ff ffcc 	bl	8006064 <WM__RectIsNZ>
 80060cc:	b1c8      	cbz	r0, 8006102 <_Invalidate1Abs+0x7a>
 80060ce:	9b01      	ldr	r3, [sp, #4]
 80060d0:	6a9e      	ldr	r6, [r3, #40]	; 0x28
 80060d2:	f244 0120 	movw	r1, #16416	; 0x4020
 80060d6:	4031      	ands	r1, r6
 80060d8:	f103 0508 	add.w	r5, r3, #8
 80060dc:	b129      	cbz	r1, 80060ea <_Invalidate1Abs+0x62>
 80060de:	4628      	mov	r0, r5
 80060e0:	4629      	mov	r1, r5
 80060e2:	4622      	mov	r2, r4
 80060e4:	f002 fa4e 	bl	8008584 <GUI_MergeRect>
 80060e8:	e00b      	b.n	8006102 <_Invalidate1Abs+0x7a>
 80060ea:	e894 0003 	ldmia.w	r4, {r0, r1}
 80060ee:	433e      	orrs	r6, r7
 80060f0:	e885 0003 	stmia.w	r5, {r0, r1}
 80060f4:	629e      	str	r6, [r3, #40]	; 0x28
 80060f6:	4b05      	ldr	r3, [pc, #20]	; (800610c <_Invalidate1Abs+0x84>)
 80060f8:	881a      	ldrh	r2, [r3, #0]
 80060fa:	3201      	adds	r2, #1
 80060fc:	801a      	strh	r2, [r3, #0]
 80060fe:	f002 f9d1 	bl	80084a4 <GUI_SignalEvent>
 8006102:	a801      	add	r0, sp, #4
 8006104:	f002 ff70 	bl	8008fe8 <GUI_ALLOC_UnlockH>
 8006108:	b005      	add	sp, #20
 800610a:	bdf0      	pop	{r4, r5, r6, r7, pc}
 800610c:	20002e2c 	.word	0x20002e2c

08006110 <WM__Invalidate1Abs>:
 8006110:	2220      	movs	r2, #32
 8006112:	f7ff bfb9 	b.w	8006088 <_Invalidate1Abs>

08006116 <WM_InvalidateWindowAndDescsEx>:
 8006116:	b5f0      	push	{r4, r5, r6, r7, lr}
 8006118:	460f      	mov	r7, r1
 800611a:	b085      	sub	sp, #20
 800611c:	4615      	mov	r5, r2
 800611e:	4606      	mov	r6, r0
 8006120:	b348      	cbz	r0, 8006176 <WM_InvalidateWindowAndDescsEx+0x60>
 8006122:	f002 ff53 	bl	8008fcc <GUI_ALLOC_LockH>
 8006126:	6a83      	ldr	r3, [r0, #40]	; 0x28
 8006128:	ac04      	add	r4, sp, #16
 800612a:	079b      	lsls	r3, r3, #30
 800612c:	4602      	mov	r2, r0
 800612e:	f844 0d0c 	str.w	r0, [r4, #-12]!
 8006132:	d403      	bmi.n	800613c <WM_InvalidateWindowAndDescsEx+0x26>
 8006134:	4620      	mov	r0, r4
 8006136:	f002 ff57 	bl	8008fe8 <GUI_ALLOC_UnlockH>
 800613a:	e01c      	b.n	8006176 <WM_InvalidateWindowAndDescsEx+0x60>
 800613c:	a802      	add	r0, sp, #8
 800613e:	4639      	mov	r1, r7
 8006140:	f002 f960 	bl	8008404 <GUI__IntersectRects>
 8006144:	2800      	cmp	r0, #0
 8006146:	d0f5      	beq.n	8006134 <WM_InvalidateWindowAndDescsEx+0x1e>
 8006148:	4620      	mov	r0, r4
 800614a:	f002 ff4d 	bl	8008fe8 <GUI_ALLOC_UnlockH>
 800614e:	4630      	mov	r0, r6
 8006150:	a902      	add	r1, sp, #8
 8006152:	462a      	mov	r2, r5
 8006154:	f7ff ff98 	bl	8006088 <_Invalidate1Abs>
 8006158:	4630      	mov	r0, r6
 800615a:	f003 fa09 	bl	8009570 <WM_GetFirstChild>
 800615e:	4604      	mov	r4, r0
 8006160:	b14c      	cbz	r4, 8006176 <WM_InvalidateWindowAndDescsEx+0x60>
 8006162:	4620      	mov	r0, r4
 8006164:	a902      	add	r1, sp, #8
 8006166:	462a      	mov	r2, r5
 8006168:	f7ff ffd5 	bl	8006116 <WM_InvalidateWindowAndDescsEx>
 800616c:	4620      	mov	r0, r4
 800616e:	f002 ff23 	bl	8008fb8 <GUI_ALLOC_h2p>
 8006172:	6a04      	ldr	r4, [r0, #32]
 8006174:	e7f4      	b.n	8006160 <WM_InvalidateWindowAndDescsEx+0x4a>
 8006176:	b005      	add	sp, #20
 8006178:	bdf0      	pop	{r4, r5, r6, r7, pc}

0800617a <WM__InvalidateRect>:
 800617a:	e92d 41ff 	stmdb	sp!, {r0, r1, r2, r3, r4, r5, r6, r7, r8, lr}
 800617e:	4680      	mov	r8, r0
 8006180:	4617      	mov	r7, r2
 8006182:	461d      	mov	r5, r3
 8006184:	460c      	mov	r4, r1
 8006186:	2900      	cmp	r1, #0
 8006188:	d030      	beq.n	80061ec <WM__InvalidateRect+0x72>
 800618a:	4608      	mov	r0, r1
 800618c:	f002 ff1e 	bl	8008fcc <GUI_ALLOC_LockH>
 8006190:	6a86      	ldr	r6, [r0, #40]	; 0x28
 8006192:	9001      	str	r0, [sp, #4]
 8006194:	07b3      	lsls	r3, r6, #30
 8006196:	4602      	mov	r2, r0
 8006198:	d525      	bpl.n	80061e6 <WM__InvalidateRect+0x6c>
 800619a:	a802      	add	r0, sp, #8
 800619c:	4641      	mov	r1, r8
 800619e:	f002 f931 	bl	8008404 <GUI__IntersectRects>
 80061a2:	b300      	cbz	r0, 80061e6 <WM__InvalidateRect+0x6c>
 80061a4:	f640 0301 	movw	r3, #2049	; 0x801
 80061a8:	4033      	ands	r3, r6
 80061aa:	2b01      	cmp	r3, #1
 80061ac:	d107      	bne.n	80061be <WM__InvalidateRect+0x44>
 80061ae:	9b01      	ldr	r3, [sp, #4]
 80061b0:	a802      	add	r0, sp, #8
 80061b2:	6999      	ldr	r1, [r3, #24]
 80061b4:	6a1a      	ldr	r2, [r3, #32]
 80061b6:	462b      	mov	r3, r5
 80061b8:	f7ff ffdf 	bl	800617a <WM__InvalidateRect>
 80061bc:	e004      	b.n	80061c8 <WM__InvalidateRect+0x4e>
 80061be:	4620      	mov	r0, r4
 80061c0:	a902      	add	r1, sp, #8
 80061c2:	462a      	mov	r2, r5
 80061c4:	f7ff ff60 	bl	8006088 <_Invalidate1Abs>
 80061c8:	9b01      	ldr	r3, [sp, #4]
 80061ca:	69dc      	ldr	r4, [r3, #28]
 80061cc:	b15c      	cbz	r4, 80061e6 <WM__InvalidateRect+0x6c>
 80061ce:	42bc      	cmp	r4, r7
 80061d0:	d009      	beq.n	80061e6 <WM__InvalidateRect+0x6c>
 80061d2:	4620      	mov	r0, r4
 80061d4:	a902      	add	r1, sp, #8
 80061d6:	462a      	mov	r2, r5
 80061d8:	f7ff ff9d 	bl	8006116 <WM_InvalidateWindowAndDescsEx>
 80061dc:	4620      	mov	r0, r4
 80061de:	f002 feeb 	bl	8008fb8 <GUI_ALLOC_h2p>
 80061e2:	6a04      	ldr	r4, [r0, #32]
 80061e4:	e7f2      	b.n	80061cc <WM__InvalidateRect+0x52>
 80061e6:	a801      	add	r0, sp, #4
 80061e8:	f002 fefe 	bl	8008fe8 <GUI_ALLOC_UnlockH>
 80061ec:	b004      	add	sp, #16
 80061ee:	e8bd 81f0 	ldmia.w	sp!, {r4, r5, r6, r7, r8, pc}

080061f2 <WM__InvalidateRectEx>:
 80061f2:	2320      	movs	r3, #32
 80061f4:	f7ff bfc1 	b.w	800617a <WM__InvalidateRect>

080061f8 <WM__SendMsgNoData>:
 80061f8:	b51f      	push	{r0, r1, r2, r3, r4, lr}
 80061fa:	ab04      	add	r3, sp, #16
 80061fc:	9001      	str	r0, [sp, #4]
 80061fe:	f843 1d10 	str.w	r1, [r3, #-16]!
 8006202:	4669      	mov	r1, sp
 8006204:	f003 f980 	bl	8009508 <WM__SendMessage>
 8006208:	b005      	add	sp, #20
 800620a:	f85d fb04 	ldr.w	pc, [sp], #4

0800620e <WM__GetClientRectWin>:
 800620e:	2300      	movs	r3, #0
 8006210:	800b      	strh	r3, [r1, #0]
 8006212:	8882      	ldrh	r2, [r0, #4]
 8006214:	804b      	strh	r3, [r1, #2]
 8006216:	8803      	ldrh	r3, [r0, #0]
 8006218:	1ad3      	subs	r3, r2, r3
 800621a:	808b      	strh	r3, [r1, #4]
 800621c:	88c2      	ldrh	r2, [r0, #6]
 800621e:	8843      	ldrh	r3, [r0, #2]
 8006220:	1ad3      	subs	r3, r2, r3
 8006222:	80cb      	strh	r3, [r1, #6]
 8006224:	4770      	bx	lr

08006226 <WM_InvalidateRect>:
 8006226:	b5f0      	push	{r4, r5, r6, r7, lr}
 8006228:	460f      	mov	r7, r1
 800622a:	b087      	sub	sp, #28
 800622c:	4605      	mov	r5, r0
 800622e:	2800      	cmp	r0, #0
 8006230:	d033      	beq.n	800629a <WM_InvalidateRect+0x74>
 8006232:	f002 fecb 	bl	8008fcc <GUI_ALLOC_LockH>
 8006236:	6a86      	ldr	r6, [r0, #40]	; 0x28
 8006238:	9001      	str	r0, [sp, #4]
 800623a:	07b2      	lsls	r2, r6, #30
 800623c:	d52a      	bpl.n	8006294 <WM_InvalidateRect+0x6e>
 800623e:	c803      	ldmia	r0, {r0, r1}
 8006240:	ac04      	add	r4, sp, #16
 8006242:	03f3      	lsls	r3, r6, #15
 8006244:	e884 0003 	stmia.w	r4, {r0, r1}
 8006248:	d502      	bpl.n	8006250 <WM_InvalidateRect+0x2a>
 800624a:	4628      	mov	r0, r5
 800624c:	f7ff fee2 	bl	8006014 <WM__InvalidateDrawAndDescs>
 8006250:	b15f      	cbz	r7, 800626a <WM_InvalidateRect+0x44>
 8006252:	6838      	ldr	r0, [r7, #0]
 8006254:	6879      	ldr	r1, [r7, #4]
 8006256:	ab02      	add	r3, sp, #8
 8006258:	c303      	stmia	r3!, {r0, r1}
 800625a:	9801      	ldr	r0, [sp, #4]
 800625c:	a902      	add	r1, sp, #8
 800625e:	f7ff fe85 	bl	8005f6c <WM__Client2Screen>
 8006262:	4620      	mov	r0, r4
 8006264:	a902      	add	r1, sp, #8
 8006266:	f002 f8ff 	bl	8008468 <GUI__IntersectRect>
 800626a:	4620      	mov	r0, r4
 800626c:	4629      	mov	r1, r5
 800626e:	f7ff fdfd 	bl	8005e6c <WM__ClipAtParentBorders>
 8006272:	b178      	cbz	r0, 8006294 <WM_InvalidateRect+0x6e>
 8006274:	f640 0301 	movw	r3, #2049	; 0x801
 8006278:	4033      	ands	r3, r6
 800627a:	2b01      	cmp	r3, #1
 800627c:	d106      	bne.n	800628c <WM_InvalidateRect+0x66>
 800627e:	9b01      	ldr	r3, [sp, #4]
 8006280:	4620      	mov	r0, r4
 8006282:	6999      	ldr	r1, [r3, #24]
 8006284:	6a1a      	ldr	r2, [r3, #32]
 8006286:	f7ff ffb4 	bl	80061f2 <WM__InvalidateRectEx>
 800628a:	e003      	b.n	8006294 <WM_InvalidateRect+0x6e>
 800628c:	4628      	mov	r0, r5
 800628e:	4621      	mov	r1, r4
 8006290:	f7ff ff3e 	bl	8006110 <WM__Invalidate1Abs>
 8006294:	a801      	add	r0, sp, #4
 8006296:	f002 fea7 	bl	8008fe8 <GUI_ALLOC_UnlockH>
 800629a:	b007      	add	sp, #28
 800629c:	bdf0      	pop	{r4, r5, r6, r7, pc}

0800629e <WM_InvalidateWindow>:
 800629e:	2100      	movs	r1, #0
 80062a0:	f7ff bfc1 	b.w	8006226 <WM_InvalidateRect>

080062a4 <WM__GetTopLevelLayer>:
 80062a4:	b510      	push	{r4, lr}
 80062a6:	4604      	mov	r4, r0
 80062a8:	f002 fe86 	bl	8008fb8 <GUI_ALLOC_h2p>
 80062ac:	6980      	ldr	r0, [r0, #24]
 80062ae:	2800      	cmp	r0, #0
 80062b0:	d1f9      	bne.n	80062a6 <WM__GetTopLevelLayer+0x2>
 80062b2:	4b05      	ldr	r3, [pc, #20]	; (80062c8 <WM__GetTopLevelLayer+0x24>)
 80062b4:	681a      	ldr	r2, [r3, #0]
 80062b6:	4294      	cmp	r4, r2
 80062b8:	d005      	beq.n	80062c6 <WM__GetTopLevelLayer+0x22>
 80062ba:	6858      	ldr	r0, [r3, #4]
 80062bc:	4284      	cmp	r4, r0
 80062be:	bf14      	ite	ne
 80062c0:	f04f 30ff 	movne.w	r0, #4294967295
 80062c4:	2001      	moveq	r0, #1
 80062c6:	bd10      	pop	{r4, pc}
 80062c8:	20002e14 	.word	0x20002e14

080062cc <WM__SelectTopLevelLayer>:
 80062cc:	b508      	push	{r3, lr}
 80062ce:	f7ff ffe9 	bl	80062a4 <WM__GetTopLevelLayer>
 80062d2:	2800      	cmp	r0, #0
 80062d4:	db03      	blt.n	80062de <WM__SelectTopLevelLayer+0x12>
 80062d6:	e8bd 4008 	ldmia.w	sp!, {r3, lr}
 80062da:	f002 b903 	b.w	80084e4 <GUI_SelectLayer>
 80062de:	bd08      	pop	{r3, pc}

080062e0 <WM_SelectWindow>:
 80062e0:	4a0d      	ldr	r2, [pc, #52]	; (8006318 <WM_SelectWindow+0x38>)
 80062e2:	6813      	ldr	r3, [r2, #0]
 80062e4:	b570      	push	{r4, r5, r6, lr}
 80062e6:	6c9d      	ldr	r5, [r3, #72]	; 0x48
 80062e8:	4604      	mov	r4, r0
 80062ea:	4616      	mov	r6, r2
 80062ec:	b908      	cbnz	r0, 80062f2 <WM_SelectWindow+0x12>
 80062ee:	4a0b      	ldr	r2, [pc, #44]	; (800631c <WM_SelectWindow+0x3c>)
 80062f0:	6814      	ldr	r4, [r2, #0]
 80062f2:	649c      	str	r4, [r3, #72]	; 0x48
 80062f4:	4620      	mov	r0, r4
 80062f6:	f7ff ffe9 	bl	80062cc <WM__SelectTopLevelLayer>
 80062fa:	f001 ff23 	bl	8008144 <LCD_SetClipRectMax>
 80062fe:	4620      	mov	r0, r4
 8006300:	f002 fe5a 	bl	8008fb8 <GUI_ALLOC_h2p>
 8006304:	6833      	ldr	r3, [r6, #0]
 8006306:	f9b0 1000 	ldrsh.w	r1, [r0]
 800630a:	f9b0 2002 	ldrsh.w	r2, [r0, #2]
 800630e:	64d9      	str	r1, [r3, #76]	; 0x4c
 8006310:	651a      	str	r2, [r3, #80]	; 0x50
 8006312:	4628      	mov	r0, r5
 8006314:	bd70      	pop	{r4, r5, r6, pc}
 8006316:	bf00      	nop
 8006318:	20000008 	.word	0x20000008
 800631c:	20002e30 	.word	0x20002e30

08006320 <WM_CreateWindowAsChild>:
 8006320:	e92d 4ff7 	stmdb	sp!, {r0, r1, r2, r4, r5, r6, r7, r8, r9, sl, fp, lr}
 8006324:	9d0c      	ldr	r5, [sp, #48]	; 0x30
 8006326:	469b      	mov	fp, r3
 8006328:	4b4b      	ldr	r3, [pc, #300]	; (8006458 <WM_CreateWindowAsChild+0x138>)
 800632a:	4607      	mov	r7, r0
 800632c:	4688      	mov	r8, r1
 800632e:	4692      	mov	sl, r2
 8006330:	681e      	ldr	r6, [r3, #0]
 8006332:	bb65      	cbnz	r5, 800638e <WM_CreateWindowAsChild+0x6e>
 8006334:	4b49      	ldr	r3, [pc, #292]	; (800645c <WM_CreateWindowAsChild+0x13c>)
 8006336:	881b      	ldrh	r3, [r3, #0]
 8006338:	b363      	cbz	r3, 8006394 <WM_CreateWindowAsChild+0x74>
 800633a:	4b49      	ldr	r3, [pc, #292]	; (8006460 <WM_CreateWindowAsChild+0x140>)
 800633c:	681b      	ldr	r3, [r3, #0]
 800633e:	7c5a      	ldrb	r2, [r3, #17]
 8006340:	4b48      	ldr	r3, [pc, #288]	; (8006464 <WM_CreateWindowAsChild+0x144>)
 8006342:	f853 3022 	ldr.w	r3, [r3, r2, lsl #2]
 8006346:	1c5a      	adds	r2, r3, #1
 8006348:	d024      	beq.n	8006394 <WM_CreateWindowAsChild+0x74>
 800634a:	b31b      	cbz	r3, 8006394 <WM_CreateWindowAsChild+0x74>
 800634c:	461d      	mov	r5, r3
 800634e:	4628      	mov	r0, r5
 8006350:	f002 fe3c 	bl	8008fcc <GUI_ALLOC_LockH>
 8006354:	f9b0 2000 	ldrsh.w	r2, [r0]
 8006358:	f9b0 3002 	ldrsh.w	r3, [r0, #2]
 800635c:	9001      	str	r0, [sp, #4]
 800635e:	4417      	add	r7, r2
 8006360:	4498      	add	r8, r3
 8006362:	f1ba 0f00 	cmp.w	sl, #0
 8006366:	d105      	bne.n	8006374 <WM_CreateWindowAsChild+0x54>
 8006368:	f9b0 a004 	ldrsh.w	sl, [r0, #4]
 800636c:	ebc2 0a0a 	rsb	sl, r2, sl
 8006370:	f10a 0a01 	add.w	sl, sl, #1
 8006374:	f1bb 0f00 	cmp.w	fp, #0
 8006378:	d105      	bne.n	8006386 <WM_CreateWindowAsChild+0x66>
 800637a:	f9b0 b006 	ldrsh.w	fp, [r0, #6]
 800637e:	ebc3 0b0b 	rsb	fp, r3, fp
 8006382:	f10b 0b01 	add.w	fp, fp, #1
 8006386:	a801      	add	r0, sp, #4
 8006388:	f002 fe2e 	bl	8008fe8 <GUI_ALLOC_UnlockH>
 800638c:	e002      	b.n	8006394 <WM_CreateWindowAsChild+0x74>
 800638e:	1c6b      	adds	r3, r5, #1
 8006390:	d1dd      	bne.n	800634e <WM_CreateWindowAsChild+0x2e>
 8006392:	2500      	movs	r5, #0
 8006394:	980f      	ldr	r0, [sp, #60]	; 0x3c
 8006396:	302c      	adds	r0, #44	; 0x2c
 8006398:	f003 f834 	bl	8009404 <GUI_ALLOC_AllocZero>
 800639c:	4604      	mov	r4, r0
 800639e:	2800      	cmp	r0, #0
 80063a0:	d056      	beq.n	8006450 <WM_CreateWindowAsChild+0x130>
 80063a2:	9b0d      	ldr	r3, [sp, #52]	; 0x34
 80063a4:	431e      	orrs	r6, r3
 80063a6:	4b2d      	ldr	r3, [pc, #180]	; (800645c <WM_CreateWindowAsChild+0x13c>)
 80063a8:	881a      	ldrh	r2, [r3, #0]
 80063aa:	3201      	adds	r2, #1
 80063ac:	801a      	strh	r2, [r3, #0]
 80063ae:	f002 fe0d 	bl	8008fcc <GUI_ALLOC_LockH>
 80063b2:	9b0e      	ldr	r3, [sp, #56]	; 0x38
 80063b4:	6103      	str	r3, [r0, #16]
 80063b6:	f10d 0908 	add.w	r9, sp, #8
 80063ba:	4b2b      	ldr	r3, [pc, #172]	; (8006468 <WM_CreateWindowAsChild+0x148>)
 80063bc:	6a82      	ldr	r2, [r0, #40]	; 0x28
 80063be:	f849 0d08 	str.w	r0, [r9, #-8]!
 80063c2:	4033      	ands	r3, r6
 80063c4:	8007      	strh	r7, [r0, #0]
 80063c6:	f8a0 8002 	strh.w	r8, [r0, #2]
 80063ca:	4457      	add	r7, sl
 80063cc:	44d8      	add	r8, fp
 80063ce:	4313      	orrs	r3, r2
 80063d0:	3f01      	subs	r7, #1
 80063d2:	f108 38ff 	add.w	r8, r8, #4294967295
 80063d6:	6283      	str	r3, [r0, #40]	; 0x28
 80063d8:	8087      	strh	r7, [r0, #4]
 80063da:	f8a0 8006 	strh.w	r8, [r0, #6]
 80063de:	4668      	mov	r0, sp
 80063e0:	f002 fe02 	bl	8008fe8 <GUI_ALLOC_UnlockH>
 80063e4:	4b21      	ldr	r3, [pc, #132]	; (800646c <WM_CreateWindowAsChild+0x14c>)
 80063e6:	6818      	ldr	r0, [r3, #0]
 80063e8:	b148      	cbz	r0, 80063fe <WM_CreateWindowAsChild+0xde>
 80063ea:	f002 fde5 	bl	8008fb8 <GUI_ALLOC_h2p>
 80063ee:	4607      	mov	r7, r0
 80063f0:	4620      	mov	r0, r4
 80063f2:	f002 fde1 	bl	8008fb8 <GUI_ALLOC_h2p>
 80063f6:	697b      	ldr	r3, [r7, #20]
 80063f8:	6143      	str	r3, [r0, #20]
 80063fa:	617c      	str	r4, [r7, #20]
 80063fc:	e000      	b.n	8006400 <WM_CreateWindowAsChild+0xe0>
 80063fe:	601c      	str	r4, [r3, #0]
 8006400:	4629      	mov	r1, r5
 8006402:	4620      	mov	r0, r4
 8006404:	f7ff fd60 	bl	8005ec8 <WM__InsertWindowIntoList>
 8006408:	06b5      	lsls	r5, r6, #26
 800640a:	d502      	bpl.n	8006412 <WM_CreateWindowAsChild+0xf2>
 800640c:	4620      	mov	r0, r4
 800640e:	f7ff ff67 	bl	80062e0 <WM_SelectWindow>
 8006412:	07f0      	lsls	r0, r6, #31
 8006414:	d503      	bpl.n	800641e <WM_CreateWindowAsChild+0xfe>
 8006416:	4b16      	ldr	r3, [pc, #88]	; (8006470 <WM_CreateWindowAsChild+0x150>)
 8006418:	681a      	ldr	r2, [r3, #0]
 800641a:	3201      	adds	r2, #1
 800641c:	601a      	str	r2, [r3, #0]
 800641e:	0671      	lsls	r1, r6, #25
 8006420:	d502      	bpl.n	8006428 <WM_CreateWindowAsChild+0x108>
 8006422:	4620      	mov	r0, r4
 8006424:	f003 f8d2 	bl	80095cc <WM_BringToBottom>
 8006428:	07b2      	lsls	r2, r6, #30
 800642a:	d50d      	bpl.n	8006448 <WM_CreateWindowAsChild+0x128>
 800642c:	4620      	mov	r0, r4
 800642e:	f002 fdcd 	bl	8008fcc <GUI_ALLOC_LockH>
 8006432:	6a83      	ldr	r3, [r0, #40]	; 0x28
 8006434:	9000      	str	r0, [sp, #0]
 8006436:	f043 0302 	orr.w	r3, r3, #2
 800643a:	6283      	str	r3, [r0, #40]	; 0x28
 800643c:	4668      	mov	r0, sp
 800643e:	f002 fdd3 	bl	8008fe8 <GUI_ALLOC_UnlockH>
 8006442:	4620      	mov	r0, r4
 8006444:	f7ff ff2b 	bl	800629e <WM_InvalidateWindow>
 8006448:	4620      	mov	r0, r4
 800644a:	2101      	movs	r1, #1
 800644c:	f7ff fed4 	bl	80061f8 <WM__SendMsgNoData>
 8006450:	4620      	mov	r0, r4
 8006452:	b003      	add	sp, #12
 8006454:	e8bd 8ff0 	ldmia.w	sp!, {r4, r5, r6, r7, r8, r9, sl, fp, pc}
 8006458:	20002e3c 	.word	0x20002e3c
 800645c:	20002e0c 	.word	0x20002e0c
 8006460:	20000008 	.word	0x20000008
 8006464:	20002e14 	.word	0x20002e14
 8006468:	003f3f9f 	.word	0x003f3f9f
 800646c:	20002e30 	.word	0x20002e30
 8006470:	20002e5c 	.word	0x20002e5c

08006474 <WM__GetNextIVR>:
 8006474:	e92d 41ff 	stmdb	sp!, {r0, r1, r2, r3, r4, r5, r6, r7, r8, lr}
 8006478:	4f5d      	ldr	r7, [pc, #372]	; (80065f0 <WM__GetNextIVR+0x17c>)
 800647a:	683b      	ldr	r3, [r7, #0]
 800647c:	f893 0054 	ldrb.w	r0, [r3, #84]	; 0x54
 8006480:	2800      	cmp	r0, #0
 8006482:	f000 80b2 	beq.w	80065ea <WM__GetNextIVR+0x176>
 8006486:	4b5b      	ldr	r3, [pc, #364]	; (80065f4 <WM__GetNextIVR+0x180>)
 8006488:	695a      	ldr	r2, [r3, #20]
 800648a:	2a01      	cmp	r2, #1
 800648c:	461c      	mov	r4, r3
 800648e:	dd03      	ble.n	8006498 <WM__GetNextIVR+0x24>
 8006490:	3a01      	subs	r2, #1
 8006492:	615a      	str	r2, [r3, #20]
 8006494:	2000      	movs	r0, #0
 8006496:	e0a8      	b.n	80065ea <WM__GetNextIVR+0x176>
 8006498:	f104 0608 	add.w	r6, r4, #8
 800649c:	691b      	ldr	r3, [r3, #16]
 800649e:	e896 0003 	ldmia.w	r6, {r0, r1}
 80064a2:	3301      	adds	r3, #1
 80064a4:	ad02      	add	r5, sp, #8
 80064a6:	6123      	str	r3, [r4, #16]
 80064a8:	e885 0003 	stmia.w	r5, {r0, r1}
 80064ac:	b923      	cbnz	r3, 80064b8 <WM__GetNextIVR+0x44>
 80064ae:	8823      	ldrh	r3, [r4, #0]
 80064b0:	f8ad 3008 	strh.w	r3, [sp, #8]
 80064b4:	8863      	ldrh	r3, [r4, #2]
 80064b6:	e011      	b.n	80064dc <WM__GetNextIVR+0x68>
 80064b8:	89a3      	ldrh	r3, [r4, #12]
 80064ba:	8962      	ldrh	r2, [r4, #10]
 80064bc:	f8ad 200a 	strh.w	r2, [sp, #10]
 80064c0:	3301      	adds	r3, #1
 80064c2:	b29b      	uxth	r3, r3
 80064c4:	f9b4 2004 	ldrsh.w	r2, [r4, #4]
 80064c8:	f8ad 3008 	strh.w	r3, [sp, #8]
 80064cc:	b21b      	sxth	r3, r3
 80064ce:	429a      	cmp	r2, r3
 80064d0:	da06      	bge.n	80064e0 <WM__GetNextIVR+0x6c>
 80064d2:	8823      	ldrh	r3, [r4, #0]
 80064d4:	f8ad 3008 	strh.w	r3, [sp, #8]
 80064d8:	89e3      	ldrh	r3, [r4, #14]
 80064da:	3301      	adds	r3, #1
 80064dc:	f8ad 300a 	strh.w	r3, [sp, #10]
 80064e0:	f9bd 200a 	ldrsh.w	r2, [sp, #10]
 80064e4:	f9b4 3006 	ldrsh.w	r3, [r4, #6]
 80064e8:	f8df 8108 	ldr.w	r8, [pc, #264]	; 80065f4 <WM__GetNextIVR+0x180>
 80064ec:	429a      	cmp	r2, r3
 80064ee:	dd04      	ble.n	80064fa <WM__GetNextIVR+0x86>
 80064f0:	6963      	ldr	r3, [r4, #20]
 80064f2:	3b01      	subs	r3, #1
 80064f4:	2000      	movs	r0, #0
 80064f6:	6163      	str	r3, [r4, #20]
 80064f8:	e077      	b.n	80065ea <WM__GetNextIVR+0x176>
 80064fa:	683b      	ldr	r3, [r7, #0]
 80064fc:	6c98      	ldr	r0, [r3, #72]	; 0x48
 80064fe:	f002 fd65 	bl	8008fcc <GUI_ALLOC_LockH>
 8006502:	f9bd 2008 	ldrsh.w	r2, [sp, #8]
 8006506:	f9b8 3000 	ldrsh.w	r3, [r8]
 800650a:	9001      	str	r0, [sp, #4]
 800650c:	429a      	cmp	r2, r3
 800650e:	d11c      	bne.n	800654a <WM__GetNextIVR+0xd6>
 8006510:	f8b8 3006 	ldrh.w	r3, [r8, #6]
 8006514:	f8ad 300e 	strh.w	r3, [sp, #14]
 8006518:	f8b8 3004 	ldrh.w	r3, [r8, #4]
 800651c:	f8ad 300c 	strh.w	r3, [sp, #12]
 8006520:	4b33      	ldr	r3, [pc, #204]	; (80065f0 <WM__GetNextIVR+0x17c>)
 8006522:	681b      	ldr	r3, [r3, #0]
 8006524:	6c9a      	ldr	r2, [r3, #72]	; 0x48
 8006526:	b15a      	cbz	r2, 8006540 <WM__GetNextIVR+0xcc>
 8006528:	4610      	mov	r0, r2
 800652a:	f002 fd45 	bl	8008fb8 <GUI_ALLOC_h2p>
 800652e:	4680      	mov	r8, r0
 8006530:	2200      	movs	r2, #0
 8006532:	6a00      	ldr	r0, [r0, #32]
 8006534:	4629      	mov	r1, r5
 8006536:	f7ff fbc3 	bl	8005cc0 <_Findy1>
 800653a:	f8d8 2018 	ldr.w	r2, [r8, #24]
 800653e:	e7f2      	b.n	8006526 <WM__GetNextIVR+0xb2>
 8006540:	9b01      	ldr	r3, [sp, #4]
 8006542:	4629      	mov	r1, r5
 8006544:	69d8      	ldr	r0, [r3, #28]
 8006546:	f7ff fbbb 	bl	8005cc0 <_Findy1>
 800654a:	f8bd 3008 	ldrh.w	r3, [sp, #8]
 800654e:	f8ad 300c 	strh.w	r3, [sp, #12]
 8006552:	683b      	ldr	r3, [r7, #0]
 8006554:	6c9a      	ldr	r2, [r3, #72]	; 0x48
 8006556:	b16a      	cbz	r2, 8006574 <WM__GetNextIVR+0x100>
 8006558:	4610      	mov	r0, r2
 800655a:	f002 fd2d 	bl	8008fb8 <GUI_ALLOC_h2p>
 800655e:	4629      	mov	r1, r5
 8006560:	4680      	mov	r8, r0
 8006562:	2200      	movs	r2, #0
 8006564:	6a00      	ldr	r0, [r0, #32]
 8006566:	f7ff fc01 	bl	8005d6c <_Findx0>
 800656a:	2800      	cmp	r0, #0
 800656c:	d1ed      	bne.n	800654a <WM__GetNextIVR+0xd6>
 800656e:	f8d8 2018 	ldr.w	r2, [r8, #24]
 8006572:	e7f0      	b.n	8006556 <WM__GetNextIVR+0xe2>
 8006574:	9b01      	ldr	r3, [sp, #4]
 8006576:	4629      	mov	r1, r5
 8006578:	69d8      	ldr	r0, [r3, #28]
 800657a:	f7ff fbf7 	bl	8005d6c <_Findx0>
 800657e:	2800      	cmp	r0, #0
 8006580:	d1e3      	bne.n	800654a <WM__GetNextIVR+0xd6>
 8006582:	88a3      	ldrh	r3, [r4, #4]
 8006584:	f9bd 2008 	ldrsh.w	r2, [sp, #8]
 8006588:	f8ad 300c 	strh.w	r3, [sp, #12]
 800658c:	b21b      	sxth	r3, r3
 800658e:	429a      	cmp	r2, r3
 8006590:	dd07      	ble.n	80065a2 <WM__GetNextIVR+0x12e>
 8006592:	e895 0003 	ldmia.w	r5, {r0, r1}
 8006596:	e886 0003 	stmia.w	r6, {r0, r1}
 800659a:	a801      	add	r0, sp, #4
 800659c:	f002 fd24 	bl	8008fe8 <GUI_ALLOC_UnlockH>
 80065a0:	e797      	b.n	80064d2 <WM__GetNextIVR+0x5e>
 80065a2:	683b      	ldr	r3, [r7, #0]
 80065a4:	6c9a      	ldr	r2, [r3, #72]	; 0x48
 80065a6:	b152      	cbz	r2, 80065be <WM__GetNextIVR+0x14a>
 80065a8:	4610      	mov	r0, r2
 80065aa:	f002 fd05 	bl	8008fb8 <GUI_ALLOC_h2p>
 80065ae:	4607      	mov	r7, r0
 80065b0:	2200      	movs	r2, #0
 80065b2:	6a00      	ldr	r0, [r0, #32]
 80065b4:	4629      	mov	r1, r5
 80065b6:	f7ff fc1d 	bl	8005df4 <_Findx1>
 80065ba:	69ba      	ldr	r2, [r7, #24]
 80065bc:	e7f3      	b.n	80065a6 <WM__GetNextIVR+0x132>
 80065be:	af04      	add	r7, sp, #16
 80065c0:	4629      	mov	r1, r5
 80065c2:	f857 3d0c 	ldr.w	r3, [r7, #-12]!
 80065c6:	69d8      	ldr	r0, [r3, #28]
 80065c8:	f7ff fc14 	bl	8005df4 <_Findx1>
 80065cc:	4638      	mov	r0, r7
 80065ce:	f002 fd0b 	bl	8008fe8 <GUI_ALLOC_UnlockH>
 80065d2:	6923      	ldr	r3, [r4, #16]
 80065d4:	f644 6220 	movw	r2, #20000	; 0x4e20
 80065d8:	4293      	cmp	r3, r2
 80065da:	dc89      	bgt.n	80064f0 <WM__GetNextIVR+0x7c>
 80065dc:	e895 0003 	ldmia.w	r5, {r0, r1}
 80065e0:	e886 0003 	stmia.w	r6, {r0, r1}
 80065e4:	f7ff fcf2 	bl	8005fcc <WM__ActivateClipRect>
 80065e8:	2001      	movs	r0, #1
 80065ea:	b004      	add	sp, #16
 80065ec:	e8bd 81f0 	ldmia.w	sp!, {r4, r5, r6, r7, r8, pc}
 80065f0:	20000008 	.word	0x20000008
 80065f4:	20000470 	.word	0x20000470

080065f8 <WM__InitIVRSearch>:
 80065f8:	e92d 41f0 	stmdb	sp!, {r4, r5, r6, r7, r8, lr}
 80065fc:	4f39      	ldr	r7, [pc, #228]	; (80066e4 <WM__InitIVRSearch+0xec>)
 80065fe:	683b      	ldr	r3, [r7, #0]
 8006600:	f893 2054 	ldrb.w	r2, [r3, #84]	; 0x54
 8006604:	b086      	sub	sp, #24
 8006606:	4606      	mov	r6, r0
 8006608:	b912      	cbnz	r2, 8006610 <WM__InitIVRSearch+0x18>
 800660a:	f7ff fcdf 	bl	8005fcc <WM__ActivateClipRect>
 800660e:	e064      	b.n	80066da <WM__InitIVRSearch+0xe2>
 8006610:	4d35      	ldr	r5, [pc, #212]	; (80066e8 <WM__InitIVRSearch+0xf0>)
 8006612:	696a      	ldr	r2, [r5, #20]
 8006614:	3201      	adds	r2, #1
 8006616:	2a01      	cmp	r2, #1
 8006618:	616a      	str	r2, [r5, #20]
 800661a:	462c      	mov	r4, r5
 800661c:	dc5d      	bgt.n	80066da <WM__InitIVRSearch+0xe2>
 800661e:	6c98      	ldr	r0, [r3, #72]	; 0x48
 8006620:	f002 fcd4 	bl	8008fcc <GUI_ALLOC_LockH>
 8006624:	f04f 32ff 	mov.w	r2, #4294967295
 8006628:	612a      	str	r2, [r5, #16]
 800662a:	4a30      	ldr	r2, [pc, #192]	; (80066ec <WM__InitIVRSearch+0xf4>)
 800662c:	9000      	str	r0, [sp, #0]
 800662e:	7812      	ldrb	r2, [r2, #0]
 8006630:	b12a      	cbz	r2, 800663e <WM__InitIVRSearch+0x46>
 8006632:	f100 0308 	add.w	r3, r0, #8
 8006636:	aa02      	add	r2, sp, #8
 8006638:	e893 0003 	ldmia.w	r3, {r0, r1}
 800663c:	e005      	b.n	800664a <WM__InitIVRSearch+0x52>
 800663e:	6a82      	ldr	r2, [r0, #40]	; 0x28
 8006640:	f012 0802 	ands.w	r8, r2, #2
 8006644:	d00a      	beq.n	800665c <WM__InitIVRSearch+0x64>
 8006646:	c803      	ldmia	r0, {r0, r1}
 8006648:	aa02      	add	r2, sp, #8
 800664a:	e882 0003 	stmia.w	r2, {r0, r1}
 800664e:	ad02      	add	r5, sp, #8
 8006650:	b166      	cbz	r6, 800666c <WM__InitIVRSearch+0x74>
 8006652:	4628      	mov	r0, r5
 8006654:	4631      	mov	r1, r6
 8006656:	f001 ff07 	bl	8008468 <GUI__IntersectRect>
 800665a:	e007      	b.n	800666c <WM__InitIVRSearch+0x74>
 800665c:	696b      	ldr	r3, [r5, #20]
 800665e:	4668      	mov	r0, sp
 8006660:	3b01      	subs	r3, #1
 8006662:	616b      	str	r3, [r5, #20]
 8006664:	f002 fcc0 	bl	8008fe8 <GUI_ALLOC_UnlockH>
 8006668:	4640      	mov	r0, r8
 800666a:	e037      	b.n	80066dc <WM__InitIVRSearch+0xe4>
 800666c:	683b      	ldr	r3, [r7, #0]
 800666e:	4e20      	ldr	r6, [pc, #128]	; (80066f0 <WM__InitIVRSearch+0xf8>)
 8006670:	6c5a      	ldr	r2, [r3, #68]	; 0x44
 8006672:	b1c2      	cbz	r2, 80066a6 <WM__InitIVRSearch+0xae>
 8006674:	9b00      	ldr	r3, [sp, #0]
 8006676:	6810      	ldr	r0, [r2, #0]
 8006678:	6851      	ldr	r1, [r2, #4]
 800667a:	9301      	str	r3, [sp, #4]
 800667c:	ab04      	add	r3, sp, #16
 800667e:	c303      	stmia	r3!, {r0, r1}
 8006680:	6833      	ldr	r3, [r6, #0]
 8006682:	b133      	cbz	r3, 8006692 <WM__InitIVRSearch+0x9a>
 8006684:	a801      	add	r0, sp, #4
 8006686:	f002 fcaf 	bl	8008fe8 <GUI_ALLOC_UnlockH>
 800668a:	6830      	ldr	r0, [r6, #0]
 800668c:	f002 fc9e 	bl	8008fcc <GUI_ALLOC_LockH>
 8006690:	9001      	str	r0, [sp, #4]
 8006692:	9801      	ldr	r0, [sp, #4]
 8006694:	a904      	add	r1, sp, #16
 8006696:	f7ff fc69 	bl	8005f6c <WM__Client2Screen>
 800669a:	4628      	mov	r0, r5
 800669c:	a904      	add	r1, sp, #16
 800669e:	f001 fee3 	bl	8008468 <GUI__IntersectRect>
 80066a2:	a801      	add	r0, sp, #4
 80066a4:	e000      	b.n	80066a8 <WM__InitIVRSearch+0xb0>
 80066a6:	4668      	mov	r0, sp
 80066a8:	f002 fc9e 	bl	8008fe8 <GUI_ALLOC_UnlockH>
 80066ac:	6831      	ldr	r1, [r6, #0]
 80066ae:	b119      	cbz	r1, 80066b8 <WM__InitIVRSearch+0xc0>
 80066b0:	4628      	mov	r0, r5
 80066b2:	f7ff fbdb 	bl	8005e6c <WM__ClipAtParentBorders>
 80066b6:	b128      	cbz	r0, 80066c4 <WM__InitIVRSearch+0xcc>
 80066b8:	683b      	ldr	r3, [r7, #0]
 80066ba:	4628      	mov	r0, r5
 80066bc:	6c99      	ldr	r1, [r3, #72]	; 0x48
 80066be:	f7ff fbd5 	bl	8005e6c <WM__ClipAtParentBorders>
 80066c2:	b918      	cbnz	r0, 80066cc <WM__InitIVRSearch+0xd4>
 80066c4:	6963      	ldr	r3, [r4, #20]
 80066c6:	3b01      	subs	r3, #1
 80066c8:	6163      	str	r3, [r4, #20]
 80066ca:	e007      	b.n	80066dc <WM__InitIVRSearch+0xe4>
 80066cc:	e895 0003 	ldmia.w	r5, {r0, r1}
 80066d0:	e884 0003 	stmia.w	r4, {r0, r1}
 80066d4:	f7ff fece 	bl	8006474 <WM__GetNextIVR>
 80066d8:	e000      	b.n	80066dc <WM__InitIVRSearch+0xe4>
 80066da:	2001      	movs	r0, #1
 80066dc:	b006      	add	sp, #24
 80066de:	e8bd 81f0 	ldmia.w	sp!, {r4, r5, r6, r7, r8, pc}
 80066e2:	bf00      	nop
 80066e4:	20000008 	.word	0x20000008
 80066e8:	20000470 	.word	0x20000470
 80066ec:	20002e39 	.word	0x20002e39
 80066f0:	20002e10 	.word	0x20002e10

080066f4 <WM_Activate>:
 80066f4:	4b02      	ldr	r3, [pc, #8]	; (8006700 <WM_Activate+0xc>)
 80066f6:	681b      	ldr	r3, [r3, #0]
 80066f8:	2201      	movs	r2, #1
 80066fa:	f883 2054 	strb.w	r2, [r3, #84]	; 0x54
 80066fe:	4770      	bx	lr
 8006700:	20000008 	.word	0x20000008

08006704 <WM_DefaultProc>:
 8006704:	b510      	push	{r4, lr}
 8006706:	4604      	mov	r4, r0
 8006708:	6840      	ldr	r0, [r0, #4]
 800670a:	6823      	ldr	r3, [r4, #0]
 800670c:	68e1      	ldr	r1, [r4, #12]
 800670e:	2b17      	cmp	r3, #23
 8006710:	d00f      	beq.n	8006732 <WM_DefaultProc+0x2e>
 8006712:	dc06      	bgt.n	8006722 <WM_DefaultProc+0x1e>
 8006714:	2b0e      	cmp	r3, #14
 8006716:	d00e      	beq.n	8006736 <WM_DefaultProc+0x32>
 8006718:	2b14      	cmp	r3, #20
 800671a:	d114      	bne.n	8006746 <WM_DefaultProc+0x42>
 800671c:	f002 ff3c 	bl	8009598 <WM__GetClientRectEx>
 8006720:	e011      	b.n	8006746 <WM_DefaultProc+0x42>
 8006722:	2b22      	cmp	r3, #34	; 0x22
 8006724:	d00c      	beq.n	8006740 <WM_DefaultProc+0x3c>
 8006726:	2b28      	cmp	r3, #40	; 0x28
 8006728:	d10d      	bne.n	8006746 <WM_DefaultProc+0x42>
 800672a:	e8bd 4010 	ldmia.w	sp!, {r4, lr}
 800672e:	f7ff bdb6 	b.w	800629e <WM_InvalidateWindow>
 8006732:	60e0      	str	r0, [r4, #12]
 8006734:	bd10      	pop	{r4, pc}
 8006736:	4621      	mov	r1, r4
 8006738:	e8bd 4010 	ldmia.w	sp!, {r4, lr}
 800673c:	f002 bf02 	b.w	8009544 <WM_SendToParent>
 8006740:	f06f 4370 	mvn.w	r3, #4026531840	; 0xf0000000
 8006744:	e000      	b.n	8006748 <WM_DefaultProc+0x44>
 8006746:	2300      	movs	r3, #0
 8006748:	60e3      	str	r3, [r4, #12]
 800674a:	bd10      	pop	{r4, pc}

0800674c <cbBackWin>:
 800674c:	6803      	ldr	r3, [r0, #0]
 800674e:	2b0e      	cmp	r3, #14
 8006750:	b510      	push	{r4, lr}
 8006752:	4604      	mov	r4, r0
 8006754:	d002      	beq.n	800675c <cbBackWin+0x10>
 8006756:	2b0f      	cmp	r3, #15
 8006758:	d009      	beq.n	800676e <cbBackWin+0x22>
 800675a:	e020      	b.n	800679e <cbBackWin+0x52>
 800675c:	68c3      	ldr	r3, [r0, #12]
 800675e:	685a      	ldr	r2, [r3, #4]
 8006760:	2a01      	cmp	r2, #1
 8006762:	d121      	bne.n	80067a8 <cbBackWin+0x5c>
 8006764:	6818      	ldr	r0, [r3, #0]
 8006766:	e8bd 4010 	ldmia.w	sp!, {r4, lr}
 800676a:	f001 bef3 	b.w	8008554 <GUI_StoreKey>
 800676e:	4a0f      	ldr	r2, [pc, #60]	; (80067ac <cbBackWin+0x60>)
 8006770:	6843      	ldr	r3, [r0, #4]
 8006772:	6811      	ldr	r1, [r2, #0]
 8006774:	428b      	cmp	r3, r1
 8006776:	d006      	beq.n	8006786 <cbBackWin+0x3a>
 8006778:	6852      	ldr	r2, [r2, #4]
 800677a:	4293      	cmp	r3, r2
 800677c:	bf14      	ite	ne
 800677e:	f04f 33ff 	movne.w	r3, #4294967295
 8006782:	2301      	moveq	r3, #1
 8006784:	e000      	b.n	8006788 <cbBackWin+0x3c>
 8006786:	2300      	movs	r3, #0
 8006788:	4a09      	ldr	r2, [pc, #36]	; (80067b0 <cbBackWin+0x64>)
 800678a:	f852 0023 	ldr.w	r0, [r2, r3, lsl #2]
 800678e:	f06f 4370 	mvn.w	r3, #4026531840	; 0xf0000000
 8006792:	4298      	cmp	r0, r3
 8006794:	d003      	beq.n	800679e <cbBackWin+0x52>
 8006796:	f001 fea1 	bl	80084dc <GUI_SetBkColor>
 800679a:	f002 f8d9 	bl	8008950 <GUI_Clear>
 800679e:	4620      	mov	r0, r4
 80067a0:	e8bd 4010 	ldmia.w	sp!, {r4, lr}
 80067a4:	f7ff bfae 	b.w	8006704 <WM_DefaultProc>
 80067a8:	bd10      	pop	{r4, pc}
 80067aa:	bf00      	nop
 80067ac:	20002e14 	.word	0x20002e14
 80067b0:	20002e40 	.word	0x20002e40

080067b4 <WM_Init>:
 80067b4:	b530      	push	{r4, r5, lr}
 80067b6:	4b2b      	ldr	r3, [pc, #172]	; (8006864 <WM_Init+0xb0>)
 80067b8:	7818      	ldrb	r0, [r3, #0]
 80067ba:	b085      	sub	sp, #20
 80067bc:	461d      	mov	r5, r3
 80067be:	2800      	cmp	r0, #0
 80067c0:	d14d      	bne.n	800685e <WM_Init+0xaa>
 80067c2:	4b29      	ldr	r3, [pc, #164]	; (8006868 <WM_Init+0xb4>)
 80067c4:	6018      	str	r0, [r3, #0]
 80067c6:	4b29      	ldr	r3, [pc, #164]	; (800686c <WM_Init+0xb8>)
 80067c8:	6018      	str	r0, [r3, #0]
 80067ca:	4b29      	ldr	r3, [pc, #164]	; (8006870 <WM_Init+0xbc>)
 80067cc:	681b      	ldr	r3, [r3, #0]
 80067ce:	6458      	str	r0, [r3, #68]	; 0x44
 80067d0:	4b28      	ldr	r3, [pc, #160]	; (8006874 <WM_Init+0xc0>)
 80067d2:	8018      	strh	r0, [r3, #0]
 80067d4:	4b28      	ldr	r3, [pc, #160]	; (8006878 <WM_Init+0xc4>)
 80067d6:	4604      	mov	r4, r0
 80067d8:	8018      	strh	r0, [r3, #0]
 80067da:	4620      	mov	r0, r4
 80067dc:	f001 ffa8 	bl	8008730 <GUI_DEVICE__GetpDriver>
 80067e0:	b1c0      	cbz	r0, 8006814 <WM_Init+0x60>
 80067e2:	f04f 32ff 	mov.w	r2, #4294967295
 80067e6:	2302      	movs	r3, #2
 80067e8:	e88d 000c 	stmia.w	sp, {r2, r3}
 80067ec:	2000      	movs	r0, #0
 80067ee:	f643 72ff 	movw	r2, #16383	; 0x3fff
 80067f2:	4b22      	ldr	r3, [pc, #136]	; (800687c <WM_Init+0xc8>)
 80067f4:	9302      	str	r3, [sp, #8]
 80067f6:	9003      	str	r0, [sp, #12]
 80067f8:	4613      	mov	r3, r2
 80067fa:	4601      	mov	r1, r0
 80067fc:	f7ff fd90 	bl	8006320 <WM_CreateWindowAsChild>
 8006800:	4b1f      	ldr	r3, [pc, #124]	; (8006880 <WM_Init+0xcc>)
 8006802:	f843 0024 	str.w	r0, [r3, r4, lsl #2]
 8006806:	4b1f      	ldr	r3, [pc, #124]	; (8006884 <WM_Init+0xd0>)
 8006808:	f06f 4270 	mvn.w	r2, #4026531840	; 0xf0000000
 800680c:	f843 2024 	str.w	r2, [r3, r4, lsl #2]
 8006810:	f7ff fd45 	bl	800629e <WM_InvalidateWindow>
 8006814:	3401      	adds	r4, #1
 8006816:	2c02      	cmp	r4, #2
 8006818:	d1df      	bne.n	80067da <WM_Init+0x26>
 800681a:	481b      	ldr	r0, [pc, #108]	; (8006888 <WM_Init+0xd4>)
 800681c:	f002 fece 	bl	80095bc <WM__AddCriticalHandle>
 8006820:	481a      	ldr	r0, [pc, #104]	; (800688c <WM_Init+0xd8>)
 8006822:	f002 fecb 	bl	80095bc <WM__AddCriticalHandle>
 8006826:	481a      	ldr	r0, [pc, #104]	; (8006890 <WM_Init+0xdc>)
 8006828:	f002 fec8 	bl	80095bc <WM__AddCriticalHandle>
 800682c:	4819      	ldr	r0, [pc, #100]	; (8006894 <WM_Init+0xe0>)
 800682e:	f002 fec5 	bl	80095bc <WM__AddCriticalHandle>
 8006832:	4819      	ldr	r0, [pc, #100]	; (8006898 <WM_Init+0xe4>)
 8006834:	f002 fec2 	bl	80095bc <WM__AddCriticalHandle>
 8006838:	4818      	ldr	r0, [pc, #96]	; (800689c <WM_Init+0xe8>)
 800683a:	f002 febf 	bl	80095bc <WM__AddCriticalHandle>
 800683e:	4b10      	ldr	r3, [pc, #64]	; (8006880 <WM_Init+0xcc>)
 8006840:	6818      	ldr	r0, [r3, #0]
 8006842:	f7ff fd4d 	bl	80062e0 <WM_SelectWindow>
 8006846:	f7ff ff55 	bl	80066f4 <WM_Activate>
 800684a:	2301      	movs	r3, #1
 800684c:	702b      	strb	r3, [r5, #0]
 800684e:	4814      	ldr	r0, [pc, #80]	; (80068a0 <WM_Init+0xec>)
 8006850:	4b14      	ldr	r3, [pc, #80]	; (80068a4 <WM_Init+0xf0>)
 8006852:	6003      	str	r3, [r0, #0]
 8006854:	b005      	add	sp, #20
 8006856:	e8bd 4030 	ldmia.w	sp!, {r4, r5, lr}
 800685a:	f002 b889 	b.w	8008970 <GUI__RegisterExit>
 800685e:	b005      	add	sp, #20
 8006860:	bd30      	pop	{r4, r5, pc}
 8006862:	bf00      	nop
 8006864:	2000048c 	.word	0x2000048c
 8006868:	20002e30 	.word	0x20002e30
 800686c:	20000488 	.word	0x20000488
 8006870:	20000008 	.word	0x20000008
 8006874:	20002e2c 	.word	0x20002e2c
 8006878:	20002e0c 	.word	0x20002e0c
 800687c:	0800674d 	.word	0x0800674d
 8006880:	20002e14 	.word	0x20002e14
 8006884:	20002e40 	.word	0x20002e40
 8006888:	20002f7c 	.word	0x20002f7c
 800688c:	20002f6c 	.word	0x20002f6c
 8006890:	20002f5c 	.word	0x20002f5c
 8006894:	20002f84 	.word	0x20002f84
 8006898:	20002f74 	.word	0x20002f74
 800689c:	20002f64 	.word	0x20002f64
 80068a0:	20000468 	.word	0x20000468
 80068a4:	08005c71 	.word	0x08005c71

080068a8 <GUI_MEMDEV_GetDataPtr>:
 80068a8:	b513      	push	{r0, r1, r4, lr}
 80068aa:	b150      	cbz	r0, 80068c2 <GUI_MEMDEV_GetDataPtr+0x1a>
 80068ac:	f002 fb8e 	bl	8008fcc <GUI_ALLOC_LockH>
 80068b0:	4604      	mov	r4, r0
 80068b2:	a802      	add	r0, sp, #8
 80068b4:	f840 4d04 	str.w	r4, [r0, #-4]!
 80068b8:	f002 fb96 	bl	8008fe8 <GUI_ALLOC_UnlockH>
 80068bc:	f104 0018 	add.w	r0, r4, #24
 80068c0:	e7ff      	b.n	80068c2 <GUI_MEMDEV_GetDataPtr+0x1a>
 80068c2:	b002      	add	sp, #8
 80068c4:	bd10      	pop	{r4, pc}

080068c6 <GUI_MEMDEV_GetBitsPerPixel>:
 80068c6:	b537      	push	{r0, r1, r2, r4, r5, lr}
 80068c8:	4605      	mov	r5, r0
 80068ca:	b170      	cbz	r0, 80068ea <GUI_MEMDEV_GetBitsPerPixel+0x24>
 80068cc:	f002 fb7e 	bl	8008fcc <GUI_ALLOC_LockH>
 80068d0:	6803      	ldr	r3, [r0, #0]
 80068d2:	ac02      	add	r4, sp, #8
 80068d4:	691b      	ldr	r3, [r3, #16]
 80068d6:	f844 0d04 	str.w	r0, [r4, #-4]!
 80068da:	689b      	ldr	r3, [r3, #8]
 80068dc:	4798      	blx	r3
 80068de:	f001 f994 	bl	8007c0a <LCD__GetBPPDevice>
 80068e2:	4605      	mov	r5, r0
 80068e4:	4620      	mov	r0, r4
 80068e6:	f002 fb7f 	bl	8008fe8 <GUI_ALLOC_UnlockH>
 80068ea:	4628      	mov	r0, r5
 80068ec:	b003      	add	sp, #12
 80068ee:	bd30      	pop	{r4, r5, pc}

080068f0 <GUI_MEMDEV_Delete>:
 80068f0:	b537      	push	{r0, r1, r2, r4, r5, lr}
 80068f2:	4604      	mov	r4, r0
 80068f4:	b1d0      	cbz	r0, 800692c <GUI_MEMDEV_Delete+0x3c>
 80068f6:	4b0e      	ldr	r3, [pc, #56]	; (8006930 <GUI_MEMDEV_Delete+0x40>)
 80068f8:	681b      	ldr	r3, [r3, #0]
 80068fa:	6e1b      	ldr	r3, [r3, #96]	; 0x60
 80068fc:	4283      	cmp	r3, r0
 80068fe:	d101      	bne.n	8006904 <GUI_MEMDEV_Delete+0x14>
 8006900:	f001 fe02 	bl	8008508 <GUI_SelectLCD>
 8006904:	4620      	mov	r0, r4
 8006906:	f002 fb61 	bl	8008fcc <GUI_ALLOC_LockH>
 800690a:	9001      	str	r0, [sp, #4]
 800690c:	6940      	ldr	r0, [r0, #20]
 800690e:	b108      	cbz	r0, 8006914 <GUI_MEMDEV_Delete+0x24>
 8006910:	f003 fa70 	bl	8009df4 <GUI_USAGE_DecUseCnt>
 8006914:	ad02      	add	r5, sp, #8
 8006916:	f855 3d04 	ldr.w	r3, [r5, #-4]!
 800691a:	6818      	ldr	r0, [r3, #0]
 800691c:	f001 ff18 	bl	8008750 <GUI_DEVICE_Delete>
 8006920:	4628      	mov	r0, r5
 8006922:	f002 fb61 	bl	8008fe8 <GUI_ALLOC_UnlockH>
 8006926:	4620      	mov	r0, r4
 8006928:	f002 fb7e 	bl	8009028 <GUI_ALLOC_Free>
 800692c:	b003      	add	sp, #12
 800692e:	bd30      	pop	{r4, r5, pc}
 8006930:	20000008 	.word	0x20000008

08006934 <_SetPhysRAMAddr>:
 8006934:	b5f8      	push	{r3, r4, r5, r6, r7, lr}
 8006936:	6b43      	ldr	r3, [r0, #52]	; 0x34
 8006938:	4604      	mov	r4, r0
 800693a:	460e      	mov	r6, r1
 800693c:	4615      	mov	r5, r2
 800693e:	b1f3      	cbz	r3, 800697e <_SetPhysRAMAddr+0x4a>
 8006940:	f8d0 3100 	ldr.w	r3, [r0, #256]	; 0x100
 8006944:	4798      	blx	r3
 8006946:	462a      	mov	r2, r5
 8006948:	4607      	mov	r7, r0
 800694a:	f8d4 3104 	ldr.w	r3, [r4, #260]	; 0x104
 800694e:	4631      	mov	r1, r6
 8006950:	4620      	mov	r0, r4
 8006952:	4798      	blx	r3
 8006954:	f8d4 308c 	ldr.w	r3, [r4, #140]	; 0x8c
 8006958:	4605      	mov	r5, r0
 800695a:	2120      	movs	r1, #32
 800695c:	4620      	mov	r0, r4
 800695e:	4798      	blx	r3
 8006960:	6ae2      	ldr	r2, [r4, #44]	; 0x2c
 8006962:	f8d4 3090 	ldr.w	r3, [r4, #144]	; 0x90
 8006966:	18b9      	adds	r1, r7, r2
 8006968:	4620      	mov	r0, r4
 800696a:	b289      	uxth	r1, r1
 800696c:	4798      	blx	r3
 800696e:	f8d4 308c 	ldr.w	r3, [r4, #140]	; 0x8c
 8006972:	2121      	movs	r1, #33	; 0x21
 8006974:	4620      	mov	r0, r4
 8006976:	4798      	blx	r3
 8006978:	6b23      	ldr	r3, [r4, #48]	; 0x30
 800697a:	18e9      	adds	r1, r5, r3
 800697c:	e011      	b.n	80069a2 <_SetPhysRAMAddr+0x6e>
 800697e:	f8d0 308c 	ldr.w	r3, [r0, #140]	; 0x8c
 8006982:	2120      	movs	r1, #32
 8006984:	4798      	blx	r3
 8006986:	6ae1      	ldr	r1, [r4, #44]	; 0x2c
 8006988:	f8d4 3090 	ldr.w	r3, [r4, #144]	; 0x90
 800698c:	4431      	add	r1, r6
 800698e:	4620      	mov	r0, r4
 8006990:	b289      	uxth	r1, r1
 8006992:	4798      	blx	r3
 8006994:	2121      	movs	r1, #33	; 0x21
 8006996:	f8d4 308c 	ldr.w	r3, [r4, #140]	; 0x8c
 800699a:	4620      	mov	r0, r4
 800699c:	4798      	blx	r3
 800699e:	6b21      	ldr	r1, [r4, #48]	; 0x30
 80069a0:	4429      	add	r1, r5
 80069a2:	f8d4 3090 	ldr.w	r3, [r4, #144]	; 0x90
 80069a6:	4620      	mov	r0, r4
 80069a8:	b289      	uxth	r1, r1
 80069aa:	4798      	blx	r3
 80069ac:	f8d4 308c 	ldr.w	r3, [r4, #140]	; 0x8c
 80069b0:	4620      	mov	r0, r4
 80069b2:	2122      	movs	r1, #34	; 0x22
 80069b4:	4798      	blx	r3
 80069b6:	bdf8      	pop	{r3, r4, r5, r6, r7, pc}

080069b8 <_SetRect>:
 80069b8:	e92d 47f0 	stmdb	sp!, {r4, r5, r6, r7, r8, r9, sl, lr}
 80069bc:	461f      	mov	r7, r3
 80069be:	6b43      	ldr	r3, [r0, #52]	; 0x34
 80069c0:	f8dd 8020 	ldr.w	r8, [sp, #32]
 80069c4:	4604      	mov	r4, r0
 80069c6:	460d      	mov	r5, r1
 80069c8:	4691      	mov	r9, r2
 80069ca:	2b00      	cmp	r3, #0
 80069cc:	d068      	beq.n	8006aa0 <_SetRect+0xe8>
 80069ce:	f8d0 3100 	ldr.w	r3, [r0, #256]	; 0x100
 80069d2:	4798      	blx	r3
 80069d4:	4642      	mov	r2, r8
 80069d6:	4606      	mov	r6, r0
 80069d8:	4639      	mov	r1, r7
 80069da:	f8d4 3100 	ldr.w	r3, [r4, #256]	; 0x100
 80069de:	4620      	mov	r0, r4
 80069e0:	4798      	blx	r3
 80069e2:	464a      	mov	r2, r9
 80069e4:	4682      	mov	sl, r0
 80069e6:	4629      	mov	r1, r5
 80069e8:	f8d4 3104 	ldr.w	r3, [r4, #260]	; 0x104
 80069ec:	4620      	mov	r0, r4
 80069ee:	4798      	blx	r3
 80069f0:	4642      	mov	r2, r8
 80069f2:	4605      	mov	r5, r0
 80069f4:	4639      	mov	r1, r7
 80069f6:	f8d4 3104 	ldr.w	r3, [r4, #260]	; 0x104
 80069fa:	4620      	mov	r0, r4
 80069fc:	4798      	blx	r3
 80069fe:	45b2      	cmp	sl, r6
 8006a00:	bfaa      	itet	ge
 8006a02:	46d0      	movge	r8, sl
 8006a04:	46b0      	movlt	r8, r6
 8006a06:	46b2      	movge	sl, r6
 8006a08:	42a8      	cmp	r0, r5
 8006a0a:	bfa8      	it	ge
 8006a0c:	4681      	movge	r9, r0
 8006a0e:	4607      	mov	r7, r0
 8006a10:	f8d4 308c 	ldr.w	r3, [r4, #140]	; 0x8c
 8006a14:	4620      	mov	r0, r4
 8006a16:	f04f 0119 	mov.w	r1, #25
 8006a1a:	bfac      	ite	ge
 8006a1c:	462f      	movge	r7, r5
 8006a1e:	46a9      	movlt	r9, r5
 8006a20:	4798      	blx	r3
 8006a22:	6b21      	ldr	r1, [r4, #48]	; 0x30
 8006a24:	f8d4 3090 	ldr.w	r3, [r4, #144]	; 0x90
 8006a28:	4439      	add	r1, r7
 8006a2a:	4620      	mov	r0, r4
 8006a2c:	b289      	uxth	r1, r1
 8006a2e:	4798      	blx	r3
 8006a30:	f8d4 308c 	ldr.w	r3, [r4, #140]	; 0x8c
 8006a34:	4620      	mov	r0, r4
 8006a36:	211a      	movs	r1, #26
 8006a38:	4798      	blx	r3
 8006a3a:	6b21      	ldr	r1, [r4, #48]	; 0x30
 8006a3c:	f8d4 3090 	ldr.w	r3, [r4, #144]	; 0x90
 8006a40:	4449      	add	r1, r9
 8006a42:	4620      	mov	r0, r4
 8006a44:	b289      	uxth	r1, r1
 8006a46:	4798      	blx	r3
 8006a48:	f8d4 308c 	ldr.w	r3, [r4, #140]	; 0x8c
 8006a4c:	4620      	mov	r0, r4
 8006a4e:	2117      	movs	r1, #23
 8006a50:	4798      	blx	r3
 8006a52:	6ae1      	ldr	r1, [r4, #44]	; 0x2c
 8006a54:	f8d4 3090 	ldr.w	r3, [r4, #144]	; 0x90
 8006a58:	4451      	add	r1, sl
 8006a5a:	4620      	mov	r0, r4
 8006a5c:	b289      	uxth	r1, r1
 8006a5e:	4798      	blx	r3
 8006a60:	f8d4 308c 	ldr.w	r3, [r4, #140]	; 0x8c
 8006a64:	4620      	mov	r0, r4
 8006a66:	2118      	movs	r1, #24
 8006a68:	4798      	blx	r3
 8006a6a:	6ae1      	ldr	r1, [r4, #44]	; 0x2c
 8006a6c:	f8d4 3090 	ldr.w	r3, [r4, #144]	; 0x90
 8006a70:	4441      	add	r1, r8
 8006a72:	4620      	mov	r0, r4
 8006a74:	b289      	uxth	r1, r1
 8006a76:	4798      	blx	r3
 8006a78:	f8d4 308c 	ldr.w	r3, [r4, #140]	; 0x8c
 8006a7c:	4620      	mov	r0, r4
 8006a7e:	2120      	movs	r1, #32
 8006a80:	4798      	blx	r3
 8006a82:	6ae1      	ldr	r1, [r4, #44]	; 0x2c
 8006a84:	f8d4 3090 	ldr.w	r3, [r4, #144]	; 0x90
 8006a88:	4431      	add	r1, r6
 8006a8a:	4620      	mov	r0, r4
 8006a8c:	b289      	uxth	r1, r1
 8006a8e:	4798      	blx	r3
 8006a90:	2121      	movs	r1, #33	; 0x21
 8006a92:	f8d4 308c 	ldr.w	r3, [r4, #140]	; 0x8c
 8006a96:	4620      	mov	r0, r4
 8006a98:	4798      	blx	r3
 8006a9a:	6b21      	ldr	r1, [r4, #48]	; 0x30
 8006a9c:	4429      	add	r1, r5
 8006a9e:	e044      	b.n	8006b2a <_SetRect+0x172>
 8006aa0:	f8d0 308c 	ldr.w	r3, [r0, #140]	; 0x8c
 8006aa4:	2119      	movs	r1, #25
 8006aa6:	4798      	blx	r3
 8006aa8:	6b21      	ldr	r1, [r4, #48]	; 0x30
 8006aaa:	f8d4 3090 	ldr.w	r3, [r4, #144]	; 0x90
 8006aae:	fa1f f989 	uxth.w	r9, r9
 8006ab2:	4449      	add	r1, r9
 8006ab4:	4620      	mov	r0, r4
 8006ab6:	b289      	uxth	r1, r1
 8006ab8:	4798      	blx	r3
 8006aba:	f8d4 308c 	ldr.w	r3, [r4, #140]	; 0x8c
 8006abe:	4620      	mov	r0, r4
 8006ac0:	211a      	movs	r1, #26
 8006ac2:	4798      	blx	r3
 8006ac4:	6b21      	ldr	r1, [r4, #48]	; 0x30
 8006ac6:	f8d4 3090 	ldr.w	r3, [r4, #144]	; 0x90
 8006aca:	4441      	add	r1, r8
 8006acc:	4620      	mov	r0, r4
 8006ace:	b289      	uxth	r1, r1
 8006ad0:	4798      	blx	r3
 8006ad2:	f8d4 308c 	ldr.w	r3, [r4, #140]	; 0x8c
 8006ad6:	4620      	mov	r0, r4
 8006ad8:	2117      	movs	r1, #23
 8006ada:	4798      	blx	r3
 8006adc:	6ae1      	ldr	r1, [r4, #44]	; 0x2c
 8006ade:	f8d4 3090 	ldr.w	r3, [r4, #144]	; 0x90
 8006ae2:	b2ad      	uxth	r5, r5
 8006ae4:	4429      	add	r1, r5
 8006ae6:	4620      	mov	r0, r4
 8006ae8:	b289      	uxth	r1, r1
 8006aea:	4798      	blx	r3
 8006aec:	f8d4 308c 	ldr.w	r3, [r4, #140]	; 0x8c
 8006af0:	4620      	mov	r0, r4
 8006af2:	2118      	movs	r1, #24
 8006af4:	4798      	blx	r3
 8006af6:	6ae1      	ldr	r1, [r4, #44]	; 0x2c
 8006af8:	f8d4 3090 	ldr.w	r3, [r4, #144]	; 0x90
 8006afc:	4439      	add	r1, r7
 8006afe:	4620      	mov	r0, r4
 8006b00:	b289      	uxth	r1, r1
 8006b02:	4798      	blx	r3
 8006b04:	f8d4 308c 	ldr.w	r3, [r4, #140]	; 0x8c
 8006b08:	4620      	mov	r0, r4
 8006b0a:	2120      	movs	r1, #32
 8006b0c:	4798      	blx	r3
 8006b0e:	6ae1      	ldr	r1, [r4, #44]	; 0x2c
 8006b10:	f8d4 3090 	ldr.w	r3, [r4, #144]	; 0x90
 8006b14:	4429      	add	r1, r5
 8006b16:	4620      	mov	r0, r4
 8006b18:	b289      	uxth	r1, r1
 8006b1a:	4798      	blx	r3
 8006b1c:	2121      	movs	r1, #33	; 0x21
 8006b1e:	f8d4 308c 	ldr.w	r3, [r4, #140]	; 0x8c
 8006b22:	4620      	mov	r0, r4
 8006b24:	4798      	blx	r3
 8006b26:	6b21      	ldr	r1, [r4, #48]	; 0x30
 8006b28:	4449      	add	r1, r9
 8006b2a:	f8d4 3090 	ldr.w	r3, [r4, #144]	; 0x90
 8006b2e:	4620      	mov	r0, r4
 8006b30:	b289      	uxth	r1, r1
 8006b32:	4798      	blx	r3
 8006b34:	f8d4 308c 	ldr.w	r3, [r4, #140]	; 0x8c
 8006b38:	4620      	mov	r0, r4
 8006b3a:	2122      	movs	r1, #34	; 0x22
 8006b3c:	4798      	blx	r3
 8006b3e:	e8bd 87f0 	ldmia.w	sp!, {r4, r5, r6, r7, r8, r9, sl, pc}
	...

08006b44 <_SetOrientation>:
 8006b44:	b513      	push	{r0, r1, r4, lr}
 8006b46:	4a0d      	ldr	r2, [pc, #52]	; (8006b7c <_SetOrientation+0x38>)
 8006b48:	4604      	mov	r4, r0
 8006b4a:	6851      	ldr	r1, [r2, #4]
 8006b4c:	6810      	ldr	r0, [r2, #0]
 8006b4e:	466b      	mov	r3, sp
 8006b50:	c303      	stmia	r3!, {r0, r1}
 8006b52:	f8d4 308c 	ldr.w	r3, [r4, #140]	; 0x8c
 8006b56:	4620      	mov	r0, r4
 8006b58:	2116      	movs	r1, #22
 8006b5a:	4798      	blx	r3
 8006b5c:	6b63      	ldr	r3, [r4, #52]	; 0x34
 8006b5e:	8ca1      	ldrh	r1, [r4, #36]	; 0x24
 8006b60:	aa02      	add	r2, sp, #8
 8006b62:	4413      	add	r3, r2
 8006b64:	f021 0107 	bic.w	r1, r1, #7
 8006b68:	f813 3c08 	ldrb.w	r3, [r3, #-8]
 8006b6c:	4319      	orrs	r1, r3
 8006b6e:	4620      	mov	r0, r4
 8006b70:	f8d4 3090 	ldr.w	r3, [r4, #144]	; 0x90
 8006b74:	b289      	uxth	r1, r1
 8006b76:	4798      	blx	r3
 8006b78:	b002      	add	sp, #8
 8006b7a:	bd10      	pop	{r4, pc}
 8006b7c:	0800b1a6 	.word	0x0800b1a6

08006b80 <_ReadPixel_16bpp_B8>:
 8006b80:	b513      	push	{r0, r1, r4, lr}
 8006b82:	6a01      	ldr	r1, [r0, #32]
 8006b84:	f8d0 3128 	ldr.w	r3, [r0, #296]	; 0x128
 8006b88:	4604      	mov	r4, r0
 8006b8a:	3102      	adds	r1, #2
 8006b8c:	4668      	mov	r0, sp
 8006b8e:	4798      	blx	r3
 8006b90:	6a23      	ldr	r3, [r4, #32]
 8006b92:	aa00      	add	r2, sp, #0
 8006b94:	441a      	add	r2, r3
 8006b96:	f81d 0003 	ldrb.w	r0, [sp, r3]
 8006b9a:	7853      	ldrb	r3, [r2, #1]
 8006b9c:	ea43 2000 	orr.w	r0, r3, r0, lsl #8
 8006ba0:	6aa3      	ldr	r3, [r4, #40]	; 0x28
 8006ba2:	4018      	ands	r0, r3
 8006ba4:	b002      	add	sp, #8
 8006ba6:	bd10      	pop	{r4, pc}

08006ba8 <_ReadPixel_18bpp_B9>:
 8006ba8:	b51f      	push	{r0, r1, r2, r3, r4, lr}
 8006baa:	6a01      	ldr	r1, [r0, #32]
 8006bac:	f8d0 3148 	ldr.w	r3, [r0, #328]	; 0x148
 8006bb0:	4604      	mov	r4, r0
 8006bb2:	3102      	adds	r1, #2
 8006bb4:	4668      	mov	r0, sp
 8006bb6:	4798      	blx	r3
 8006bb8:	6a23      	ldr	r3, [r4, #32]
 8006bba:	a900      	add	r1, sp, #0
 8006bbc:	eb01 0243 	add.w	r2, r1, r3, lsl #1
 8006bc0:	f83d 0013 	ldrh.w	r0, [sp, r3, lsl #1]
 8006bc4:	8853      	ldrh	r3, [r2, #2]
 8006bc6:	ea43 4000 	orr.w	r0, r3, r0, lsl #16
 8006bca:	6aa3      	ldr	r3, [r4, #40]	; 0x28
 8006bcc:	4018      	ands	r0, r3
 8006bce:	b004      	add	sp, #16
 8006bd0:	bd10      	pop	{r4, pc}

08006bd2 <_ReadPixel_16bpp_B16>:
 8006bd2:	b51f      	push	{r0, r1, r2, r3, r4, lr}
 8006bd4:	6a01      	ldr	r1, [r0, #32]
 8006bd6:	f8d0 3148 	ldr.w	r3, [r0, #328]	; 0x148
 8006bda:	4604      	mov	r4, r0
 8006bdc:	3101      	adds	r1, #1
 8006bde:	a801      	add	r0, sp, #4
 8006be0:	4798      	blx	r3
 8006be2:	6a23      	ldr	r3, [r4, #32]
 8006be4:	aa04      	add	r2, sp, #16
 8006be6:	eb02 0343 	add.w	r3, r2, r3, lsl #1
 8006bea:	f833 0c0c 	ldrh.w	r0, [r3, #-12]
 8006bee:	b004      	add	sp, #16
 8006bf0:	bd10      	pop	{r4, pc}

08006bf2 <_SetReg_B8>:
 8006bf2:	b538      	push	{r3, r4, r5, lr}
 8006bf4:	4604      	mov	r4, r0
 8006bf6:	460d      	mov	r5, r1
 8006bf8:	f8d0 310c 	ldr.w	r3, [r0, #268]	; 0x10c
 8006bfc:	0a08      	lsrs	r0, r1, #8
 8006bfe:	4798      	blx	r3
 8006c00:	f8d4 310c 	ldr.w	r3, [r4, #268]	; 0x10c
 8006c04:	b2e8      	uxtb	r0, r5
 8006c06:	4798      	blx	r3
 8006c08:	bd38      	pop	{r3, r4, r5, pc}

08006c0a <_SetReg_B9>:
 8006c0a:	b538      	push	{r3, r4, r5, lr}
 8006c0c:	4604      	mov	r4, r0
 8006c0e:	0a08      	lsrs	r0, r1, #8
 8006c10:	460d      	mov	r5, r1
 8006c12:	f8d4 312c 	ldr.w	r3, [r4, #300]	; 0x12c
 8006c16:	0040      	lsls	r0, r0, #1
 8006c18:	4798      	blx	r3
 8006c1a:	b2e8      	uxtb	r0, r5
 8006c1c:	f8d4 312c 	ldr.w	r3, [r4, #300]	; 0x12c
 8006c20:	0040      	lsls	r0, r0, #1
 8006c22:	4798      	blx	r3
 8006c24:	bd38      	pop	{r3, r4, r5, pc}

08006c26 <_SetReg_B16>:
 8006c26:	b508      	push	{r3, lr}
 8006c28:	f8d0 312c 	ldr.w	r3, [r0, #300]	; 0x12c
 8006c2c:	4608      	mov	r0, r1
 8006c2e:	4798      	blx	r3
 8006c30:	bd08      	pop	{r3, pc}

08006c32 <_WritePara_B8>:
 8006c32:	b538      	push	{r3, r4, r5, lr}
 8006c34:	4604      	mov	r4, r0
 8006c36:	460d      	mov	r5, r1
 8006c38:	f8d0 3110 	ldr.w	r3, [r0, #272]	; 0x110
 8006c3c:	0a08      	lsrs	r0, r1, #8
 8006c3e:	4798      	blx	r3
 8006c40:	f8d4 3110 	ldr.w	r3, [r4, #272]	; 0x110
 8006c44:	b2e8      	uxtb	r0, r5
 8006c46:	4798      	blx	r3
 8006c48:	bd38      	pop	{r3, r4, r5, pc}

08006c4a <_WritePara_B9>:
 8006c4a:	b538      	push	{r3, r4, r5, lr}
 8006c4c:	4604      	mov	r4, r0
 8006c4e:	0a08      	lsrs	r0, r1, #8
 8006c50:	460d      	mov	r5, r1
 8006c52:	f8d4 3130 	ldr.w	r3, [r4, #304]	; 0x130
 8006c56:	0040      	lsls	r0, r0, #1
 8006c58:	4798      	blx	r3
 8006c5a:	b2e8      	uxtb	r0, r5
 8006c5c:	f8d4 3130 	ldr.w	r3, [r4, #304]	; 0x130
 8006c60:	0040      	lsls	r0, r0, #1
 8006c62:	4798      	blx	r3
 8006c64:	bd38      	pop	{r3, r4, r5, pc}

08006c66 <_WritePara_B16>:
 8006c66:	b508      	push	{r3, lr}
 8006c68:	f8d0 3130 	ldr.w	r3, [r0, #304]	; 0x130
 8006c6c:	4608      	mov	r0, r1
 8006c6e:	4798      	blx	r3
 8006c70:	bd08      	pop	{r3, pc}
	...

08006c74 <_SetInterface>:
 8006c74:	2909      	cmp	r1, #9
 8006c76:	d008      	beq.n	8006c8a <_SetInterface+0x16>
 8006c78:	2910      	cmp	r1, #16
 8006c7a:	d00b      	beq.n	8006c94 <_SetInterface+0x20>
 8006c7c:	2908      	cmp	r1, #8
 8006c7e:	d10f      	bne.n	8006ca0 <_SetInterface+0x2c>
 8006c80:	4b08      	ldr	r3, [pc, #32]	; (8006ca4 <_SetInterface+0x30>)
 8006c82:	f8c0 308c 	str.w	r3, [r0, #140]	; 0x8c
 8006c86:	4b08      	ldr	r3, [pc, #32]	; (8006ca8 <_SetInterface+0x34>)
 8006c88:	e008      	b.n	8006c9c <_SetInterface+0x28>
 8006c8a:	4b08      	ldr	r3, [pc, #32]	; (8006cac <_SetInterface+0x38>)
 8006c8c:	f8c0 308c 	str.w	r3, [r0, #140]	; 0x8c
 8006c90:	4b07      	ldr	r3, [pc, #28]	; (8006cb0 <_SetInterface+0x3c>)
 8006c92:	e003      	b.n	8006c9c <_SetInterface+0x28>
 8006c94:	4b07      	ldr	r3, [pc, #28]	; (8006cb4 <_SetInterface+0x40>)
 8006c96:	f8c0 308c 	str.w	r3, [r0, #140]	; 0x8c
 8006c9a:	4b07      	ldr	r3, [pc, #28]	; (8006cb8 <_SetInterface+0x44>)
 8006c9c:	f8c0 3090 	str.w	r3, [r0, #144]	; 0x90
 8006ca0:	4770      	bx	lr
 8006ca2:	bf00      	nop
 8006ca4:	08006bf3 	.word	0x08006bf3
 8006ca8:	08006c33 	.word	0x08006c33
 8006cac:	08006c0b 	.word	0x08006c0b
 8006cb0:	08006c4b 	.word	0x08006c4b
 8006cb4:	08006c27 	.word	0x08006c27
 8006cb8:	08006c67 	.word	0x08006c67

08006cbc <GUIDRV_FlexColor_SetFunc66718>:
 8006cbc:	b510      	push	{r4, lr}
 8006cbe:	4604      	mov	r4, r0
 8006cc0:	f000 fdce 	bl	8007860 <GUIDRV_FlexColor__InitOnce>
 8006cc4:	68a3      	ldr	r3, [r4, #8]
 8006cc6:	4a0d      	ldr	r2, [pc, #52]	; (8006cfc <GUIDRV_FlexColor_SetFunc66718+0x40>)
 8006cc8:	f8c3 20ac 	str.w	r2, [r3, #172]	; 0xac
 8006ccc:	4a0c      	ldr	r2, [pc, #48]	; (8006d00 <GUIDRV_FlexColor_SetFunc66718+0x44>)
 8006cce:	f8c3 20a8 	str.w	r2, [r3, #168]	; 0xa8
 8006cd2:	4a0c      	ldr	r2, [pc, #48]	; (8006d04 <GUIDRV_FlexColor_SetFunc66718+0x48>)
 8006cd4:	f8c3 20b0 	str.w	r2, [r3, #176]	; 0xb0
 8006cd8:	4a0b      	ldr	r2, [pc, #44]	; (8006d08 <GUIDRV_FlexColor_SetFunc66718+0x4c>)
 8006cda:	f8c3 20b8 	str.w	r2, [r3, #184]	; 0xb8
 8006cde:	4a0b      	ldr	r2, [pc, #44]	; (8006d0c <GUIDRV_FlexColor_SetFunc66718+0x50>)
 8006ce0:	f8c3 20bc 	str.w	r2, [r3, #188]	; 0xbc
 8006ce4:	4a0a      	ldr	r2, [pc, #40]	; (8006d10 <GUIDRV_FlexColor_SetFunc66718+0x54>)
 8006ce6:	f8c3 20b4 	str.w	r2, [r3, #180]	; 0xb4
 8006cea:	8cda      	ldrh	r2, [r3, #38]	; 0x26
 8006cec:	f022 0203 	bic.w	r2, r2, #3
 8006cf0:	84da      	strh	r2, [r3, #38]	; 0x26
 8006cf2:	4a08      	ldr	r2, [pc, #32]	; (8006d14 <GUIDRV_FlexColor_SetFunc66718+0x58>)
 8006cf4:	f8c3 2094 	str.w	r2, [r3, #148]	; 0x94
 8006cf8:	bd10      	pop	{r4, pc}
 8006cfa:	bf00      	nop
 8006cfc:	08006935 	.word	0x08006935
 8006d00:	080069b9 	.word	0x080069b9
 8006d04:	08006b45 	.word	0x08006b45
 8006d08:	08006b81 	.word	0x08006b81
 8006d0c:	08006ba9 	.word	0x08006ba9
 8006d10:	08006bd3 	.word	0x08006bd3
 8006d14:	08006c75 	.word	0x08006c75

08006d18 <_WriteU16_A1>:
 8006d18:	b508      	push	{r3, lr}
 8006d1a:	0a0b      	lsrs	r3, r1, #8
 8006d1c:	f880 3071 	strb.w	r3, [r0, #113]	; 0x71
 8006d20:	f880 1072 	strb.w	r1, [r0, #114]	; 0x72
 8006d24:	f8d0 3118 	ldr.w	r3, [r0, #280]	; 0x118
 8006d28:	2102      	movs	r1, #2
 8006d2a:	3071      	adds	r0, #113	; 0x71
 8006d2c:	4798      	blx	r3
 8006d2e:	bd08      	pop	{r3, pc}

08006d30 <_WriteDataMP>:
 8006d30:	b5f8      	push	{r3, r4, r5, r6, r7, lr}
 8006d32:	6e86      	ldr	r6, [r0, #104]	; 0x68
 8006d34:	4604      	mov	r4, r0
 8006d36:	460f      	mov	r7, r1
 8006d38:	4615      	mov	r5, r2
 8006d3a:	2300      	movs	r3, #0
 8006d3c:	b1a5      	cbz	r5, 8006d68 <_WriteDataMP+0x38>
 8006d3e:	f837 2b02 	ldrh.w	r2, [r7], #2
 8006d42:	4630      	mov	r0, r6
 8006d44:	3301      	adds	r3, #1
 8006d46:	0a11      	lsrs	r1, r2, #8
 8006d48:	2bfa      	cmp	r3, #250	; 0xfa
 8006d4a:	f800 1b02 	strb.w	r1, [r0], #2
 8006d4e:	7072      	strb	r2, [r6, #1]
 8006d50:	d107      	bne.n	8006d62 <_WriteDataMP+0x32>
 8006d52:	f8d4 3118 	ldr.w	r3, [r4, #280]	; 0x118
 8006d56:	6ea0      	ldr	r0, [r4, #104]	; 0x68
 8006d58:	f44f 71fa 	mov.w	r1, #500	; 0x1f4
 8006d5c:	4798      	blx	r3
 8006d5e:	6ea0      	ldr	r0, [r4, #104]	; 0x68
 8006d60:	2300      	movs	r3, #0
 8006d62:	3d01      	subs	r5, #1
 8006d64:	4606      	mov	r6, r0
 8006d66:	e7e9      	b.n	8006d3c <_WriteDataMP+0xc>
 8006d68:	b123      	cbz	r3, 8006d74 <_WriteDataMP+0x44>
 8006d6a:	f8d4 2118 	ldr.w	r2, [r4, #280]	; 0x118
 8006d6e:	6ea0      	ldr	r0, [r4, #104]	; 0x68
 8006d70:	0059      	lsls	r1, r3, #1
 8006d72:	4790      	blx	r2
 8006d74:	bdf8      	pop	{r3, r4, r5, r6, r7, pc}

08006d76 <_ReadData>:
 8006d76:	b508      	push	{r3, lr}
 8006d78:	f8d0 30b8 	ldr.w	r3, [r0, #184]	; 0xb8
 8006d7c:	4798      	blx	r3
 8006d7e:	bd08      	pop	{r3, pc}

08006d80 <_WriteData>:
 8006d80:	b289      	uxth	r1, r1
 8006d82:	f7ff bfc9 	b.w	8006d18 <_WriteU16_A1>
	...

08006d88 <_FillRect>:
 8006d88:	e92d 4ff0 	stmdb	sp!, {r4, r5, r6, r7, r8, r9, sl, fp, lr}
 8006d8c:	4f40      	ldr	r7, [pc, #256]	; (8006e90 <_FillRect+0x108>)
 8006d8e:	6884      	ldr	r4, [r0, #8]
 8006d90:	4682      	mov	sl, r0
 8006d92:	6838      	ldr	r0, [r7, #0]
 8006d94:	7c00      	ldrb	r0, [r0, #16]
 8006d96:	f010 0f01 	tst.w	r0, #1
 8006d9a:	b085      	sub	sp, #20
 8006d9c:	460e      	mov	r6, r1
 8006d9e:	4615      	mov	r5, r2
 8006da0:	4698      	mov	r8, r3
 8006da2:	ebc1 0903 	rsb	r9, r1, r3
 8006da6:	d045      	beq.n	8006e34 <_FillRect+0xac>
 8006da8:	ea4f 0b49 	mov.w	fp, r9, lsl #1
 8006dac:	980e      	ldr	r0, [sp, #56]	; 0x38
 8006dae:	4285      	cmp	r5, r0
 8006db0:	dc6b      	bgt.n	8006e8a <_FillRect+0x102>
 8006db2:	f8d4 c0c8 	ldr.w	ip, [r4, #200]	; 0xc8
 8006db6:	6ee7      	ldr	r7, [r4, #108]	; 0x6c
 8006db8:	f1bc 0f00 	cmp.w	ip, #0
 8006dbc:	d101      	bne.n	8006dc2 <_FillRect+0x3a>
 8006dbe:	46b4      	mov	ip, r6
 8006dc0:	e007      	b.n	8006dd2 <_FillRect+0x4a>
 8006dc2:	e88d 00a0 	stmia.w	sp, {r5, r7}
 8006dc6:	4650      	mov	r0, sl
 8006dc8:	4631      	mov	r1, r6
 8006dca:	462a      	mov	r2, r5
 8006dcc:	4643      	mov	r3, r8
 8006dce:	47e0      	blx	ip
 8006dd0:	e011      	b.n	8006df6 <_FillRect+0x6e>
 8006dd2:	45c4      	cmp	ip, r8
 8006dd4:	dc0e      	bgt.n	8006df4 <_FillRect+0x6c>
 8006dd6:	f8d4 30ec 	ldr.w	r3, [r4, #236]	; 0xec
 8006dda:	f8cd c00c 	str.w	ip, [sp, #12]
 8006dde:	4661      	mov	r1, ip
 8006de0:	4650      	mov	r0, sl
 8006de2:	462a      	mov	r2, r5
 8006de4:	4798      	blx	r3
 8006de6:	f8dd c00c 	ldr.w	ip, [sp, #12]
 8006dea:	f827 0b02 	strh.w	r0, [r7], #2
 8006dee:	f10c 0c01 	add.w	ip, ip, #1
 8006df2:	e7ee      	b.n	8006dd2 <_FillRect+0x4a>
 8006df4:	6ee7      	ldr	r7, [r4, #108]	; 0x6c
 8006df6:	1ebb      	subs	r3, r7, #2
 8006df8:	f109 0c01 	add.w	ip, r9, #1
 8006dfc:	445f      	add	r7, fp
 8006dfe:	42bb      	cmp	r3, r7
 8006e00:	d005      	beq.n	8006e0e <_FillRect+0x86>
 8006e02:	6aa2      	ldr	r2, [r4, #40]	; 0x28
 8006e04:	8859      	ldrh	r1, [r3, #2]
 8006e06:	404a      	eors	r2, r1
 8006e08:	f823 2f02 	strh.w	r2, [r3, #2]!
 8006e0c:	e7f7      	b.n	8006dfe <_FillRect+0x76>
 8006e0e:	9500      	str	r5, [sp, #0]
 8006e10:	462a      	mov	r2, r5
 8006e12:	f8d4 70a8 	ldr.w	r7, [r4, #168]	; 0xa8
 8006e16:	f8cd c00c 	str.w	ip, [sp, #12]
 8006e1a:	4620      	mov	r0, r4
 8006e1c:	4631      	mov	r1, r6
 8006e1e:	4643      	mov	r3, r8
 8006e20:	47b8      	blx	r7
 8006e22:	f8dd c00c 	ldr.w	ip, [sp, #12]
 8006e26:	6ee1      	ldr	r1, [r4, #108]	; 0x6c
 8006e28:	4620      	mov	r0, r4
 8006e2a:	4662      	mov	r2, ip
 8006e2c:	f7ff ff80 	bl	8006d30 <_WriteDataMP>
 8006e30:	3501      	adds	r5, #1
 8006e32:	e7bb      	b.n	8006dac <_FillRect+0x24>
 8006e34:	980e      	ldr	r0, [sp, #56]	; 0x38
 8006e36:	9000      	str	r0, [sp, #0]
 8006e38:	1a85      	subs	r5, r0, r2
 8006e3a:	f8d4 60a8 	ldr.w	r6, [r4, #168]	; 0xa8
 8006e3e:	4620      	mov	r0, r4
 8006e40:	47b0      	blx	r6
 8006e42:	683b      	ldr	r3, [r7, #0]
 8006e44:	6ea6      	ldr	r6, [r4, #104]	; 0x68
 8006e46:	6bdb      	ldr	r3, [r3, #60]	; 0x3c
 8006e48:	681b      	ldr	r3, [r3, #0]
 8006e4a:	f109 0901 	add.w	r9, r9, #1
 8006e4e:	fb05 9509 	mla	r5, r5, r9, r9
 8006e52:	f3c3 2807 	ubfx	r8, r3, #8, #8
 8006e56:	fa5f f983 	uxtb.w	r9, r3
 8006e5a:	2301      	movs	r3, #1
 8006e5c:	b1ad      	cbz	r5, 8006e8a <_FillRect+0x102>
 8006e5e:	2df9      	cmp	r5, #249	; 0xf9
 8006e60:	bf34      	ite	cc
 8006e62:	462f      	movcc	r7, r5
 8006e64:	27f9      	movcs	r7, #249	; 0xf9
 8006e66:	0079      	lsls	r1, r7, #1
 8006e68:	b143      	cbz	r3, 8006e7c <_FillRect+0xf4>
 8006e6a:	4633      	mov	r3, r6
 8006e6c:	1872      	adds	r2, r6, r1
 8006e6e:	4293      	cmp	r3, r2
 8006e70:	d004      	beq.n	8006e7c <_FillRect+0xf4>
 8006e72:	f883 8001 	strb.w	r8, [r3, #1]
 8006e76:	f803 9f02 	strb.w	r9, [r3, #2]!
 8006e7a:	e7f8      	b.n	8006e6e <_FillRect+0xe6>
 8006e7c:	f8d4 2118 	ldr.w	r2, [r4, #280]	; 0x118
 8006e80:	1c70      	adds	r0, r6, #1
 8006e82:	4790      	blx	r2
 8006e84:	1bed      	subs	r5, r5, r7
 8006e86:	2300      	movs	r3, #0
 8006e88:	e7e8      	b.n	8006e5c <_FillRect+0xd4>
 8006e8a:	b005      	add	sp, #20
 8006e8c:	e8bd 8ff0 	ldmia.w	sp!, {r4, r5, r6, r7, r8, r9, sl, fp, pc}
 8006e90:	20000008 	.word	0x20000008

08006e94 <_DrawBitmap>:
 8006e94:	e92d 4ff0 	stmdb	sp!, {r4, r5, r6, r7, r8, r9, sl, fp, lr}
 8006e98:	b08d      	sub	sp, #52	; 0x34
 8006e9a:	6885      	ldr	r5, [r0, #8]
 8006e9c:	9f17      	ldr	r7, [sp, #92]	; 0x5c
 8006e9e:	9305      	str	r3, [sp, #20]
 8006ea0:	1e7b      	subs	r3, r7, #1
 8006ea2:	2b01      	cmp	r3, #1
 8006ea4:	9009      	str	r0, [sp, #36]	; 0x24
 8006ea6:	9108      	str	r1, [sp, #32]
 8006ea8:	920a      	str	r2, [sp, #40]	; 0x28
 8006eaa:	950b      	str	r5, [sp, #44]	; 0x2c
 8006eac:	d903      	bls.n	8006eb6 <_DrawBitmap+0x22>
 8006eae:	2f04      	cmp	r7, #4
 8006eb0:	d001      	beq.n	8006eb6 <_DrawBitmap+0x22>
 8006eb2:	2f08      	cmp	r7, #8
 8006eb4:	d106      	bne.n	8006ec4 <_DrawBitmap+0x30>
 8006eb6:	4b91      	ldr	r3, [pc, #580]	; (80070fc <_DrawBitmap+0x268>)
 8006eb8:	681b      	ldr	r3, [r3, #0]
 8006eba:	7c1b      	ldrb	r3, [r3, #16]
 8006ebc:	f003 0303 	and.w	r3, r3, #3
 8006ec0:	2b02      	cmp	r3, #2
 8006ec2:	d010      	beq.n	8006ee6 <_DrawBitmap+0x52>
 8006ec4:	9a0a      	ldr	r2, [sp, #40]	; 0x28
 8006ec6:	9f16      	ldr	r7, [sp, #88]	; 0x58
 8006ec8:	9d1a      	ldr	r5, [sp, #104]	; 0x68
 8006eca:	9908      	ldr	r1, [sp, #32]
 8006ecc:	9b05      	ldr	r3, [sp, #20]
 8006ece:	443a      	add	r2, r7
 8006ed0:	4429      	add	r1, r5
 8006ed2:	3a01      	subs	r2, #1
 8006ed4:	9d0b      	ldr	r5, [sp, #44]	; 0x2c
 8006ed6:	9200      	str	r2, [sp, #0]
 8006ed8:	440b      	add	r3, r1
 8006eda:	f8d5 40a8 	ldr.w	r4, [r5, #168]	; 0xa8
 8006ede:	9a0a      	ldr	r2, [sp, #40]	; 0x28
 8006ee0:	4628      	mov	r0, r5
 8006ee2:	3b01      	subs	r3, #1
 8006ee4:	47a0      	blx	r4
 8006ee6:	f8dd b028 	ldr.w	fp, [sp, #40]	; 0x28
 8006eea:	9d0a      	ldr	r5, [sp, #40]	; 0x28
 8006eec:	9f16      	ldr	r7, [sp, #88]	; 0x58
 8006eee:	ebc5 030b 	rsb	r3, r5, fp
 8006ef2:	42bb      	cmp	r3, r7
 8006ef4:	f280 8253 	bge.w	800739e <_DrawBitmap+0x50a>
 8006ef8:	9f17      	ldr	r7, [sp, #92]	; 0x5c
 8006efa:	1e7b      	subs	r3, r7, #1
 8006efc:	2b0f      	cmp	r3, #15
 8006efe:	f200 8247 	bhi.w	8007390 <_DrawBitmap+0x4fc>
 8006f02:	e8df f013 	tbh	[pc, r3, lsl #1]
 8006f06:	0010      	.short	0x0010
 8006f08:	024500bb 	.word	0x024500bb
 8006f0c:	02450144 	.word	0x02450144
 8006f10:	02450245 	.word	0x02450245
 8006f14:	024501db 	.word	0x024501db
 8006f18:	02450245 	.word	0x02450245
 8006f1c:	02450245 	.word	0x02450245
 8006f20:	02450245 	.word	0x02450245
 8006f24:	0240      	.short	0x0240
 8006f26:	4b75      	ldr	r3, [pc, #468]	; (80070fc <_DrawBitmap+0x268>)
 8006f28:	9f1b      	ldr	r7, [sp, #108]	; 0x6c
 8006f2a:	9d09      	ldr	r5, [sp, #36]	; 0x24
 8006f2c:	681b      	ldr	r3, [r3, #0]
 8006f2e:	68ac      	ldr	r4, [r5, #8]
 8006f30:	7c1b      	ldrb	r3, [r3, #16]
 8006f32:	687d      	ldr	r5, [r7, #4]
 8006f34:	683e      	ldr	r6, [r7, #0]
 8006f36:	9507      	str	r5, [sp, #28]
 8006f38:	9f1a      	ldr	r7, [sp, #104]	; 0x68
 8006f3a:	9d08      	ldr	r5, [sp, #32]
 8006f3c:	f003 0303 	and.w	r3, r3, #3
 8006f40:	443d      	add	r5, r7
 8006f42:	2b02      	cmp	r3, #2
 8006f44:	9503      	str	r5, [sp, #12]
 8006f46:	d01c      	beq.n	8006f82 <_DrawBitmap+0xee>
 8006f48:	2b03      	cmp	r3, #3
 8006f4a:	d071      	beq.n	8007030 <_DrawBitmap+0x19c>
 8006f4c:	2b01      	cmp	r3, #1
 8006f4e:	d06f      	beq.n	8007030 <_DrawBitmap+0x19c>
 8006f50:	9f05      	ldr	r7, [sp, #20]
 8006f52:	9d1a      	ldr	r5, [sp, #104]	; 0x68
 8006f54:	f8dd 8064 	ldr.w	r8, [sp, #100]	; 0x64
 8006f58:	f898 2000 	ldrb.w	r2, [r8]
 8006f5c:	2380      	movs	r3, #128	; 0x80
 8006f5e:	412b      	asrs	r3, r5
 8006f60:	421a      	tst	r2, r3
 8006f62:	bf16      	itet	ne
 8006f64:	9807      	ldrne	r0, [sp, #28]
 8006f66:	b2b1      	uxtheq	r1, r6
 8006f68:	b281      	uxthne	r1, r0
 8006f6a:	3501      	adds	r5, #1
 8006f6c:	4620      	mov	r0, r4
 8006f6e:	f7ff fed3 	bl	8006d18 <_WriteU16_A1>
 8006f72:	2d08      	cmp	r5, #8
 8006f74:	bf04      	itt	eq
 8006f76:	f108 0801 	addeq.w	r8, r8, #1
 8006f7a:	2500      	moveq	r5, #0
 8006f7c:	3f01      	subs	r7, #1
 8006f7e:	d1eb      	bne.n	8006f58 <_DrawBitmap+0xc4>
 8006f80:	e206      	b.n	8007390 <_DrawBitmap+0x4fc>
 8006f82:	9d19      	ldr	r5, [sp, #100]	; 0x64
 8006f84:	f8dd a00c 	ldr.w	sl, [sp, #12]
 8006f88:	9506      	str	r5, [sp, #24]
 8006f8a:	f8d4 906c 	ldr.w	r9, [r4, #108]	; 0x6c
 8006f8e:	f8dd 8068 	ldr.w	r8, [sp, #104]	; 0x68
 8006f92:	2500      	movs	r5, #0
 8006f94:	4656      	mov	r6, sl
 8006f96:	462b      	mov	r3, r5
 8006f98:	9f06      	ldr	r7, [sp, #24]
 8006f9a:	f04f 0c80 	mov.w	ip, #128	; 0x80
 8006f9e:	783a      	ldrb	r2, [r7, #0]
 8006fa0:	fa4c fc08 	asr.w	ip, ip, r8
 8006fa4:	ea12 0c0c 	ands.w	ip, r2, ip
 8006fa8:	d00b      	beq.n	8006fc2 <_DrawBitmap+0x12e>
 8006faa:	b913      	cbnz	r3, 8006fb2 <_DrawBitmap+0x11e>
 8006fac:	f8d4 906c 	ldr.w	r9, [r4, #108]	; 0x6c
 8006fb0:	46b2      	mov	sl, r6
 8006fb2:	9f07      	ldr	r7, [sp, #28]
 8006fb4:	f8a9 7000 	strh.w	r7, [r9]
 8006fb8:	3501      	adds	r5, #1
 8006fba:	f109 0902 	add.w	r9, r9, #2
 8006fbe:	2301      	movs	r3, #1
 8006fc0:	e017      	b.n	8006ff2 <_DrawBitmap+0x15e>
 8006fc2:	2b01      	cmp	r3, #1
 8006fc4:	d114      	bne.n	8006ff0 <_DrawBitmap+0x15c>
 8006fc6:	f8cd b000 	str.w	fp, [sp]
 8006fca:	1e73      	subs	r3, r6, #1
 8006fcc:	f8cd c010 	str.w	ip, [sp, #16]
 8006fd0:	4620      	mov	r0, r4
 8006fd2:	4651      	mov	r1, sl
 8006fd4:	465a      	mov	r2, fp
 8006fd6:	f8d4 70a8 	ldr.w	r7, [r4, #168]	; 0xa8
 8006fda:	47b8      	blx	r7
 8006fdc:	462a      	mov	r2, r5
 8006fde:	4620      	mov	r0, r4
 8006fe0:	6ee1      	ldr	r1, [r4, #108]	; 0x6c
 8006fe2:	f7ff fea5 	bl	8006d30 <_WriteDataMP>
 8006fe6:	f8dd c010 	ldr.w	ip, [sp, #16]
 8006fea:	4665      	mov	r5, ip
 8006fec:	4663      	mov	r3, ip
 8006fee:	e000      	b.n	8006ff2 <_DrawBitmap+0x15e>
 8006ff0:	4663      	mov	r3, ip
 8006ff2:	f108 0801 	add.w	r8, r8, #1
 8006ff6:	f1b8 0f08 	cmp.w	r8, #8
 8006ffa:	f106 0601 	add.w	r6, r6, #1
 8006ffe:	d104      	bne.n	800700a <_DrawBitmap+0x176>
 8007000:	9f06      	ldr	r7, [sp, #24]
 8007002:	3701      	adds	r7, #1
 8007004:	9706      	str	r7, [sp, #24]
 8007006:	f04f 0800 	mov.w	r8, #0
 800700a:	9a05      	ldr	r2, [sp, #20]
 800700c:	9f03      	ldr	r7, [sp, #12]
 800700e:	443a      	add	r2, r7
 8007010:	42b2      	cmp	r2, r6
 8007012:	d1c1      	bne.n	8006f98 <_DrawBitmap+0x104>
 8007014:	9f05      	ldr	r7, [sp, #20]
 8007016:	1e7b      	subs	r3, r7, #1
 8007018:	9f03      	ldr	r7, [sp, #12]
 800701a:	443b      	add	r3, r7
 800701c:	2d00      	cmp	r5, #0
 800701e:	f000 81b7 	beq.w	8007390 <_DrawBitmap+0x4fc>
 8007022:	f8cd b000 	str.w	fp, [sp]
 8007026:	f8d4 60a8 	ldr.w	r6, [r4, #168]	; 0xa8
 800702a:	4620      	mov	r0, r4
 800702c:	4651      	mov	r1, sl
 800702e:	e13f      	b.n	80072b0 <_DrawBitmap+0x41c>
 8007030:	f8dd 8014 	ldr.w	r8, [sp, #20]
 8007034:	9e1a      	ldr	r6, [sp, #104]	; 0x68
 8007036:	9d19      	ldr	r5, [sp, #100]	; 0x64
 8007038:	f8dd 9014 	ldr.w	r9, [sp, #20]
 800703c:	9f03      	ldr	r7, [sp, #12]
 800703e:	782a      	ldrb	r2, [r5, #0]
 8007040:	2380      	movs	r3, #128	; 0x80
 8007042:	4133      	asrs	r3, r6
 8007044:	44b9      	add	r9, r7
 8007046:	421a      	tst	r2, r3
 8007048:	ebc8 0909 	rsb	r9, r8, r9
 800704c:	d00d      	beq.n	800706a <_DrawBitmap+0x1d6>
 800704e:	f8d4 30ec 	ldr.w	r3, [r4, #236]	; 0xec
 8007052:	9809      	ldr	r0, [sp, #36]	; 0x24
 8007054:	4649      	mov	r1, r9
 8007056:	465a      	mov	r2, fp
 8007058:	4798      	blx	r3
 800705a:	6aa3      	ldr	r3, [r4, #40]	; 0x28
 800705c:	f8d4 70f0 	ldr.w	r7, [r4, #240]	; 0xf0
 8007060:	4043      	eors	r3, r0
 8007062:	4649      	mov	r1, r9
 8007064:	9809      	ldr	r0, [sp, #36]	; 0x24
 8007066:	465a      	mov	r2, fp
 8007068:	47b8      	blx	r7
 800706a:	3601      	adds	r6, #1
 800706c:	2e08      	cmp	r6, #8
 800706e:	bf04      	itt	eq
 8007070:	3501      	addeq	r5, #1
 8007072:	2600      	moveq	r6, #0
 8007074:	f1b8 0801 	subs.w	r8, r8, #1
 8007078:	d1de      	bne.n	8007038 <_DrawBitmap+0x1a4>
 800707a:	e189      	b.n	8007390 <_DrawBitmap+0x4fc>
 800707c:	9d09      	ldr	r5, [sp, #36]	; 0x24
 800707e:	9f1b      	ldr	r7, [sp, #108]	; 0x6c
 8007080:	68ac      	ldr	r4, [r5, #8]
 8007082:	2f00      	cmp	r7, #0
 8007084:	f000 8184 	beq.w	8007390 <_DrawBitmap+0x4fc>
 8007088:	4b1c      	ldr	r3, [pc, #112]	; (80070fc <_DrawBitmap+0x268>)
 800708a:	9d19      	ldr	r5, [sp, #100]	; 0x64
 800708c:	681b      	ldr	r3, [r3, #0]
 800708e:	f895 a000 	ldrb.w	sl, [r5]
 8007092:	7c1b      	ldrb	r3, [r3, #16]
 8007094:	f013 0303 	ands.w	r3, r3, #3
 8007098:	d011      	beq.n	80070be <_DrawBitmap+0x22a>
 800709a:	2b02      	cmp	r3, #2
 800709c:	f040 8178 	bne.w	8007390 <_DrawBitmap+0x4fc>
 80070a0:	9d1a      	ldr	r5, [sp, #104]	; 0x68
 80070a2:	f8dd 9020 	ldr.w	r9, [sp, #32]
 80070a6:	6ee7      	ldr	r7, [r4, #108]	; 0x6c
 80070a8:	9703      	str	r7, [sp, #12]
 80070aa:	44a9      	add	r9, r5
 80070ac:	46a8      	mov	r8, r5
 80070ae:	9d19      	ldr	r5, [sp, #100]	; 0x64
 80070b0:	9507      	str	r5, [sp, #28]
 80070b2:	2500      	movs	r5, #0
 80070b4:	f8cd 9018 	str.w	r9, [sp, #24]
 80070b8:	464e      	mov	r6, r9
 80070ba:	462b      	mov	r3, r5
 80070bc:	e040      	b.n	8007140 <_DrawBitmap+0x2ac>
 80070be:	9d1a      	ldr	r5, [sp, #104]	; 0x68
 80070c0:	9e05      	ldr	r6, [sp, #20]
 80070c2:	9f19      	ldr	r7, [sp, #100]	; 0x64
 80070c4:	f1c5 0303 	rsb	r3, r5, #3
 80070c8:	005b      	lsls	r3, r3, #1
 80070ca:	f1c3 0206 	rsb	r2, r3, #6
 80070ce:	21c0      	movs	r1, #192	; 0xc0
 80070d0:	fa41 f202 	asr.w	r2, r1, r2
 80070d4:	ea02 020a 	and.w	r2, r2, sl
 80070d8:	fa22 f303 	lsr.w	r3, r2, r3
 80070dc:	9a1b      	ldr	r2, [sp, #108]	; 0x6c
 80070de:	4620      	mov	r0, r4
 80070e0:	f832 1023 	ldrh.w	r1, [r2, r3, lsl #2]
 80070e4:	3501      	adds	r5, #1
 80070e6:	f7ff fe17 	bl	8006d18 <_WriteU16_A1>
 80070ea:	2d04      	cmp	r5, #4
 80070ec:	d103      	bne.n	80070f6 <_DrawBitmap+0x262>
 80070ee:	f897 a001 	ldrb.w	sl, [r7, #1]
 80070f2:	2500      	movs	r5, #0
 80070f4:	3701      	adds	r7, #1
 80070f6:	3e01      	subs	r6, #1
 80070f8:	d1e4      	bne.n	80070c4 <_DrawBitmap+0x230>
 80070fa:	e149      	b.n	8007390 <_DrawBitmap+0x4fc>
 80070fc:	20000008 	.word	0x20000008
 8007100:	b913      	cbnz	r3, 8007108 <_DrawBitmap+0x274>
 8007102:	6ee7      	ldr	r7, [r4, #108]	; 0x6c
 8007104:	9703      	str	r7, [sp, #12]
 8007106:	9606      	str	r6, [sp, #24]
 8007108:	9f1b      	ldr	r7, [sp, #108]	; 0x6c
 800710a:	f857 302c 	ldr.w	r3, [r7, ip, lsl #2]
 800710e:	9f03      	ldr	r7, [sp, #12]
 8007110:	803b      	strh	r3, [r7, #0]
 8007112:	3702      	adds	r7, #2
 8007114:	3501      	adds	r5, #1
 8007116:	9703      	str	r7, [sp, #12]
 8007118:	2301      	movs	r3, #1
 800711a:	f108 0801 	add.w	r8, r8, #1
 800711e:	f1b8 0f04 	cmp.w	r8, #4
 8007122:	f106 0601 	add.w	r6, r6, #1
 8007126:	d106      	bne.n	8007136 <_DrawBitmap+0x2a2>
 8007128:	9f07      	ldr	r7, [sp, #28]
 800712a:	f897 a001 	ldrb.w	sl, [r7, #1]
 800712e:	3701      	adds	r7, #1
 8007130:	9707      	str	r7, [sp, #28]
 8007132:	f04f 0800 	mov.w	r8, #0
 8007136:	9a05      	ldr	r2, [sp, #20]
 8007138:	444a      	add	r2, r9
 800713a:	42b2      	cmp	r2, r6
 800713c:	f000 80ad 	beq.w	800729a <_DrawBitmap+0x406>
 8007140:	f1c8 0203 	rsb	r2, r8, #3
 8007144:	0052      	lsls	r2, r2, #1
 8007146:	f1c2 0106 	rsb	r1, r2, #6
 800714a:	f04f 0cc0 	mov.w	ip, #192	; 0xc0
 800714e:	fa4c fc01 	asr.w	ip, ip, r1
 8007152:	ea0c 0c0a 	and.w	ip, ip, sl
 8007156:	fa3c fc02 	lsrs.w	ip, ip, r2
 800715a:	d1d1      	bne.n	8007100 <_DrawBitmap+0x26c>
 800715c:	2b01      	cmp	r3, #1
 800715e:	d114      	bne.n	800718a <_DrawBitmap+0x2f6>
 8007160:	f8cd b000 	str.w	fp, [sp]
 8007164:	1e73      	subs	r3, r6, #1
 8007166:	f8cd c010 	str.w	ip, [sp, #16]
 800716a:	4620      	mov	r0, r4
 800716c:	9906      	ldr	r1, [sp, #24]
 800716e:	f8d4 70a8 	ldr.w	r7, [r4, #168]	; 0xa8
 8007172:	465a      	mov	r2, fp
 8007174:	47b8      	blx	r7
 8007176:	462a      	mov	r2, r5
 8007178:	4620      	mov	r0, r4
 800717a:	6ee1      	ldr	r1, [r4, #108]	; 0x6c
 800717c:	f7ff fdd8 	bl	8006d30 <_WriteDataMP>
 8007180:	f8dd c010 	ldr.w	ip, [sp, #16]
 8007184:	4665      	mov	r5, ip
 8007186:	4663      	mov	r3, ip
 8007188:	e7c7      	b.n	800711a <_DrawBitmap+0x286>
 800718a:	4663      	mov	r3, ip
 800718c:	e7c5      	b.n	800711a <_DrawBitmap+0x286>
 800718e:	9d09      	ldr	r5, [sp, #36]	; 0x24
 8007190:	9f1b      	ldr	r7, [sp, #108]	; 0x6c
 8007192:	68ac      	ldr	r4, [r5, #8]
 8007194:	2f00      	cmp	r7, #0
 8007196:	f000 80fb 	beq.w	8007390 <_DrawBitmap+0x4fc>
 800719a:	4b82      	ldr	r3, [pc, #520]	; (80073a4 <_DrawBitmap+0x510>)
 800719c:	9d19      	ldr	r5, [sp, #100]	; 0x64
 800719e:	681b      	ldr	r3, [r3, #0]
 80071a0:	f895 a000 	ldrb.w	sl, [r5]
 80071a4:	7c1b      	ldrb	r3, [r3, #16]
 80071a6:	f013 0303 	ands.w	r3, r3, #3
 80071aa:	d011      	beq.n	80071d0 <_DrawBitmap+0x33c>
 80071ac:	2b02      	cmp	r3, #2
 80071ae:	f040 80ef 	bne.w	8007390 <_DrawBitmap+0x4fc>
 80071b2:	9d1a      	ldr	r5, [sp, #104]	; 0x68
 80071b4:	f8dd 9020 	ldr.w	r9, [sp, #32]
 80071b8:	6ee7      	ldr	r7, [r4, #108]	; 0x6c
 80071ba:	9703      	str	r7, [sp, #12]
 80071bc:	44a9      	add	r9, r5
 80071be:	46a8      	mov	r8, r5
 80071c0:	9d19      	ldr	r5, [sp, #100]	; 0x64
 80071c2:	9507      	str	r5, [sp, #28]
 80071c4:	2500      	movs	r5, #0
 80071c6:	f8cd 9018 	str.w	r9, [sp, #24]
 80071ca:	464e      	mov	r6, r9
 80071cc:	462b      	mov	r3, r5
 80071ce:	e03d      	b.n	800724c <_DrawBitmap+0x3b8>
 80071d0:	9d1a      	ldr	r5, [sp, #104]	; 0x68
 80071d2:	9e05      	ldr	r6, [sp, #20]
 80071d4:	9f19      	ldr	r7, [sp, #100]	; 0x64
 80071d6:	f1c5 0301 	rsb	r3, r5, #1
 80071da:	009b      	lsls	r3, r3, #2
 80071dc:	f1c3 0204 	rsb	r2, r3, #4
 80071e0:	21f0      	movs	r1, #240	; 0xf0
 80071e2:	fa41 f202 	asr.w	r2, r1, r2
 80071e6:	ea02 020a 	and.w	r2, r2, sl
 80071ea:	fa22 f303 	lsr.w	r3, r2, r3
 80071ee:	9a1b      	ldr	r2, [sp, #108]	; 0x6c
 80071f0:	4620      	mov	r0, r4
 80071f2:	f832 1023 	ldrh.w	r1, [r2, r3, lsl #2]
 80071f6:	3501      	adds	r5, #1
 80071f8:	f7ff fd8e 	bl	8006d18 <_WriteU16_A1>
 80071fc:	2d02      	cmp	r5, #2
 80071fe:	d103      	bne.n	8007208 <_DrawBitmap+0x374>
 8007200:	f897 a001 	ldrb.w	sl, [r7, #1]
 8007204:	2500      	movs	r5, #0
 8007206:	3701      	adds	r7, #1
 8007208:	3e01      	subs	r6, #1
 800720a:	d1e4      	bne.n	80071d6 <_DrawBitmap+0x342>
 800720c:	e0c0      	b.n	8007390 <_DrawBitmap+0x4fc>
 800720e:	b913      	cbnz	r3, 8007216 <_DrawBitmap+0x382>
 8007210:	6ee7      	ldr	r7, [r4, #108]	; 0x6c
 8007212:	9703      	str	r7, [sp, #12]
 8007214:	9606      	str	r6, [sp, #24]
 8007216:	9f1b      	ldr	r7, [sp, #108]	; 0x6c
 8007218:	f857 302c 	ldr.w	r3, [r7, ip, lsl #2]
 800721c:	9f03      	ldr	r7, [sp, #12]
 800721e:	803b      	strh	r3, [r7, #0]
 8007220:	3702      	adds	r7, #2
 8007222:	3501      	adds	r5, #1
 8007224:	9703      	str	r7, [sp, #12]
 8007226:	2301      	movs	r3, #1
 8007228:	f108 0801 	add.w	r8, r8, #1
 800722c:	f1b8 0f02 	cmp.w	r8, #2
 8007230:	f106 0601 	add.w	r6, r6, #1
 8007234:	d106      	bne.n	8007244 <_DrawBitmap+0x3b0>
 8007236:	9f07      	ldr	r7, [sp, #28]
 8007238:	f897 a001 	ldrb.w	sl, [r7, #1]
 800723c:	3701      	adds	r7, #1
 800723e:	9707      	str	r7, [sp, #28]
 8007240:	f04f 0800 	mov.w	r8, #0
 8007244:	9a05      	ldr	r2, [sp, #20]
 8007246:	444a      	add	r2, r9
 8007248:	42b2      	cmp	r2, r6
 800724a:	d026      	beq.n	800729a <_DrawBitmap+0x406>
 800724c:	f1c8 0201 	rsb	r2, r8, #1
 8007250:	0092      	lsls	r2, r2, #2
 8007252:	f1c2 0104 	rsb	r1, r2, #4
 8007256:	f04f 0cf0 	mov.w	ip, #240	; 0xf0
 800725a:	fa4c fc01 	asr.w	ip, ip, r1
 800725e:	ea0c 0c0a 	and.w	ip, ip, sl
 8007262:	fa3c fc02 	lsrs.w	ip, ip, r2
 8007266:	d1d2      	bne.n	800720e <_DrawBitmap+0x37a>
 8007268:	2b01      	cmp	r3, #1
 800726a:	d114      	bne.n	8007296 <_DrawBitmap+0x402>
 800726c:	f8cd b000 	str.w	fp, [sp]
 8007270:	1e73      	subs	r3, r6, #1
 8007272:	f8cd c010 	str.w	ip, [sp, #16]
 8007276:	4620      	mov	r0, r4
 8007278:	9906      	ldr	r1, [sp, #24]
 800727a:	f8d4 70a8 	ldr.w	r7, [r4, #168]	; 0xa8
 800727e:	465a      	mov	r2, fp
 8007280:	47b8      	blx	r7
 8007282:	462a      	mov	r2, r5
 8007284:	4620      	mov	r0, r4
 8007286:	6ee1      	ldr	r1, [r4, #108]	; 0x6c
 8007288:	f7ff fd52 	bl	8006d30 <_WriteDataMP>
 800728c:	f8dd c010 	ldr.w	ip, [sp, #16]
 8007290:	4665      	mov	r5, ip
 8007292:	4663      	mov	r3, ip
 8007294:	e7c8      	b.n	8007228 <_DrawBitmap+0x394>
 8007296:	4663      	mov	r3, ip
 8007298:	e7c6      	b.n	8007228 <_DrawBitmap+0x394>
 800729a:	9f05      	ldr	r7, [sp, #20]
 800729c:	1e7b      	subs	r3, r7, #1
 800729e:	444b      	add	r3, r9
 80072a0:	2d00      	cmp	r5, #0
 80072a2:	d075      	beq.n	8007390 <_DrawBitmap+0x4fc>
 80072a4:	f8cd b000 	str.w	fp, [sp]
 80072a8:	f8d4 60a8 	ldr.w	r6, [r4, #168]	; 0xa8
 80072ac:	9906      	ldr	r1, [sp, #24]
 80072ae:	4620      	mov	r0, r4
 80072b0:	465a      	mov	r2, fp
 80072b2:	47b0      	blx	r6
 80072b4:	4620      	mov	r0, r4
 80072b6:	6ee1      	ldr	r1, [r4, #108]	; 0x6c
 80072b8:	462a      	mov	r2, r5
 80072ba:	e067      	b.n	800738c <_DrawBitmap+0x4f8>
 80072bc:	9d09      	ldr	r5, [sp, #36]	; 0x24
 80072be:	9f1b      	ldr	r7, [sp, #108]	; 0x6c
 80072c0:	68ac      	ldr	r4, [r5, #8]
 80072c2:	2f00      	cmp	r7, #0
 80072c4:	d064      	beq.n	8007390 <_DrawBitmap+0x4fc>
 80072c6:	4b37      	ldr	r3, [pc, #220]	; (80073a4 <_DrawBitmap+0x510>)
 80072c8:	681b      	ldr	r3, [r3, #0]
 80072ca:	7c1b      	ldrb	r3, [r3, #16]
 80072cc:	f013 0303 	ands.w	r3, r3, #3
 80072d0:	d009      	beq.n	80072e6 <_DrawBitmap+0x452>
 80072d2:	2b02      	cmp	r3, #2
 80072d4:	d15c      	bne.n	8007390 <_DrawBitmap+0x4fc>
 80072d6:	f8dd 9020 	ldr.w	r9, [sp, #32]
 80072da:	f8d4 806c 	ldr.w	r8, [r4, #108]	; 0x6c
 80072de:	2600      	movs	r6, #0
 80072e0:	464f      	mov	r7, r9
 80072e2:	4633      	mov	r3, r6
 80072e4:	e022      	b.n	800732c <_DrawBitmap+0x498>
 80072e6:	9d19      	ldr	r5, [sp, #100]	; 0x64
 80072e8:	9b19      	ldr	r3, [sp, #100]	; 0x64
 80072ea:	9f05      	ldr	r7, [sp, #20]
 80072ec:	443b      	add	r3, r7
 80072ee:	1b5b      	subs	r3, r3, r5
 80072f0:	2b00      	cmp	r3, #0
 80072f2:	dd4d      	ble.n	8007390 <_DrawBitmap+0x4fc>
 80072f4:	f815 3b01 	ldrb.w	r3, [r5], #1
 80072f8:	9f1b      	ldr	r7, [sp, #108]	; 0x6c
 80072fa:	4620      	mov	r0, r4
 80072fc:	f837 1023 	ldrh.w	r1, [r7, r3, lsl #2]
 8007300:	f7ff fd0a 	bl	8006d18 <_WriteU16_A1>
 8007304:	e7f0      	b.n	80072e8 <_DrawBitmap+0x454>
 8007306:	b913      	cbnz	r3, 800730e <_DrawBitmap+0x47a>
 8007308:	f8d4 806c 	ldr.w	r8, [r4, #108]	; 0x6c
 800730c:	46b9      	mov	r9, r7
 800730e:	9d1b      	ldr	r5, [sp, #108]	; 0x6c
 8007310:	f855 302a 	ldr.w	r3, [r5, sl, lsl #2]
 8007314:	f8a8 3000 	strh.w	r3, [r8]
 8007318:	3601      	adds	r6, #1
 800731a:	f108 0802 	add.w	r8, r8, #2
 800731e:	2301      	movs	r3, #1
 8007320:	9a08      	ldr	r2, [sp, #32]
 8007322:	9d05      	ldr	r5, [sp, #20]
 8007324:	3701      	adds	r7, #1
 8007326:	442a      	add	r2, r5
 8007328:	42ba      	cmp	r2, r7
 800732a:	d01c      	beq.n	8007366 <_DrawBitmap+0x4d2>
 800732c:	9d19      	ldr	r5, [sp, #100]	; 0x64
 800732e:	9808      	ldr	r0, [sp, #32]
 8007330:	1a2a      	subs	r2, r5, r0
 8007332:	f812 a007 	ldrb.w	sl, [r2, r7]
 8007336:	f1ba 0f00 	cmp.w	sl, #0
 800733a:	d1e4      	bne.n	8007306 <_DrawBitmap+0x472>
 800733c:	2b01      	cmp	r3, #1
 800733e:	d110      	bne.n	8007362 <_DrawBitmap+0x4ce>
 8007340:	f8cd b000 	str.w	fp, [sp]
 8007344:	1e7b      	subs	r3, r7, #1
 8007346:	4620      	mov	r0, r4
 8007348:	4649      	mov	r1, r9
 800734a:	465a      	mov	r2, fp
 800734c:	f8d4 50a8 	ldr.w	r5, [r4, #168]	; 0xa8
 8007350:	47a8      	blx	r5
 8007352:	4632      	mov	r2, r6
 8007354:	4620      	mov	r0, r4
 8007356:	6ee1      	ldr	r1, [r4, #108]	; 0x6c
 8007358:	f7ff fcea 	bl	8006d30 <_WriteDataMP>
 800735c:	4656      	mov	r6, sl
 800735e:	4653      	mov	r3, sl
 8007360:	e7de      	b.n	8007320 <_DrawBitmap+0x48c>
 8007362:	4653      	mov	r3, sl
 8007364:	e7dc      	b.n	8007320 <_DrawBitmap+0x48c>
 8007366:	9f08      	ldr	r7, [sp, #32]
 8007368:	1e6b      	subs	r3, r5, #1
 800736a:	443b      	add	r3, r7
 800736c:	b186      	cbz	r6, 8007390 <_DrawBitmap+0x4fc>
 800736e:	f8cd b000 	str.w	fp, [sp]
 8007372:	4620      	mov	r0, r4
 8007374:	4649      	mov	r1, r9
 8007376:	465a      	mov	r2, fp
 8007378:	f8d4 50a8 	ldr.w	r5, [r4, #168]	; 0xa8
 800737c:	47a8      	blx	r5
 800737e:	4620      	mov	r0, r4
 8007380:	6ee1      	ldr	r1, [r4, #108]	; 0x6c
 8007382:	4632      	mov	r2, r6
 8007384:	e002      	b.n	800738c <_DrawBitmap+0x4f8>
 8007386:	980b      	ldr	r0, [sp, #44]	; 0x2c
 8007388:	9919      	ldr	r1, [sp, #100]	; 0x64
 800738a:	9a05      	ldr	r2, [sp, #20]
 800738c:	f7ff fcd0 	bl	8006d30 <_WriteDataMP>
 8007390:	9d19      	ldr	r5, [sp, #100]	; 0x64
 8007392:	9f18      	ldr	r7, [sp, #96]	; 0x60
 8007394:	443d      	add	r5, r7
 8007396:	9519      	str	r5, [sp, #100]	; 0x64
 8007398:	f10b 0b01 	add.w	fp, fp, #1
 800739c:	e5a5      	b.n	8006eea <_DrawBitmap+0x56>
 800739e:	b00d      	add	sp, #52	; 0x34
 80073a0:	e8bd 8ff0 	ldmia.w	sp!, {r4, r5, r6, r7, r8, r9, sl, fp, pc}
 80073a4:	20000008 	.word	0x20000008

080073a8 <GUIDRV_FlexColor_SetMode16bppC0B8>:
 80073a8:	b510      	push	{r4, lr}
 80073aa:	4604      	mov	r4, r0
 80073ac:	f000 fa58 	bl	8007860 <GUIDRV_FlexColor__InitOnce>
 80073b0:	68a4      	ldr	r4, [r4, #8]
 80073b2:	4b10      	ldr	r3, [pc, #64]	; (80073f4 <GUIDRV_FlexColor_SetMode16bppC0B8+0x4c>)
 80073b4:	f8c4 30e4 	str.w	r3, [r4, #228]	; 0xe4
 80073b8:	4b0f      	ldr	r3, [pc, #60]	; (80073f8 <GUIDRV_FlexColor_SetMode16bppC0B8+0x50>)
 80073ba:	f8c4 30e8 	str.w	r3, [r4, #232]	; 0xe8
 80073be:	4b0f      	ldr	r3, [pc, #60]	; (80073fc <GUIDRV_FlexColor_SetMode16bppC0B8+0x54>)
 80073c0:	f8c4 30ec 	str.w	r3, [r4, #236]	; 0xec
 80073c4:	4b0e      	ldr	r3, [pc, #56]	; (8007400 <GUIDRV_FlexColor_SetMode16bppC0B8+0x58>)
 80073c6:	f8c4 30f0 	str.w	r3, [r4, #240]	; 0xf0
 80073ca:	4b0e      	ldr	r3, [pc, #56]	; (8007404 <GUIDRV_FlexColor_SetMode16bppC0B8+0x5c>)
 80073cc:	f8c4 30a0 	str.w	r3, [r4, #160]	; 0xa0
 80073d0:	4b0d      	ldr	r3, [pc, #52]	; (8007408 <GUIDRV_FlexColor_SetMode16bppC0B8+0x60>)
 80073d2:	f8c4 30a4 	str.w	r3, [r4, #164]	; 0xa4
 80073d6:	f8d4 30c8 	ldr.w	r3, [r4, #200]	; 0xc8
 80073da:	f8c4 30fc 	str.w	r3, [r4, #252]	; 0xfc
 80073de:	4620      	mov	r0, r4
 80073e0:	f8d4 3094 	ldr.w	r3, [r4, #148]	; 0x94
 80073e4:	2108      	movs	r1, #8
 80073e6:	4798      	blx	r3
 80073e8:	2310      	movs	r3, #16
 80073ea:	63a3      	str	r3, [r4, #56]	; 0x38
 80073ec:	4b07      	ldr	r3, [pc, #28]	; (800740c <GUIDRV_FlexColor_SetMode16bppC0B8+0x64>)
 80073ee:	6463      	str	r3, [r4, #68]	; 0x44
 80073f0:	bd10      	pop	{r4, pc}
 80073f2:	bf00      	nop
 80073f4:	08006e95 	.word	0x08006e95
 80073f8:	08006d89 	.word	0x08006d89
 80073fc:	080077af 	.word	0x080077af
 8007400:	0800771f 	.word	0x0800771f
 8007404:	08006d77 	.word	0x08006d77
 8007408:	08006d81 	.word	0x08006d81
 800740c:	0800c7d4 	.word	0x0800c7d4

08007410 <_Log2PhysX_X0Y0S0>:
 8007410:	4608      	mov	r0, r1
 8007412:	4770      	bx	lr

08007414 <_Log2PhysX_X1Y0S0>:
 8007414:	6800      	ldr	r0, [r0, #0]
 8007416:	1a40      	subs	r0, r0, r1
 8007418:	3801      	subs	r0, #1
 800741a:	4770      	bx	lr

0800741c <_Log2PhysX_X0Y1S0>:
 800741c:	4608      	mov	r0, r1
 800741e:	4770      	bx	lr

08007420 <_Log2PhysX_X1Y1S0>:
 8007420:	6800      	ldr	r0, [r0, #0]
 8007422:	1a40      	subs	r0, r0, r1
 8007424:	3801      	subs	r0, #1
 8007426:	4770      	bx	lr

08007428 <_Log2PhysX_X0Y0S1>:
 8007428:	4610      	mov	r0, r2
 800742a:	4770      	bx	lr

0800742c <_Log2PhysX_X1Y0S1>:
 800742c:	6840      	ldr	r0, [r0, #4]
 800742e:	1a80      	subs	r0, r0, r2
 8007430:	3801      	subs	r0, #1
 8007432:	4770      	bx	lr

08007434 <_Log2PhysX_X0Y1S1>:
 8007434:	4610      	mov	r0, r2
 8007436:	4770      	bx	lr

08007438 <_Log2PhysX_X1Y1S1>:
 8007438:	6840      	ldr	r0, [r0, #4]
 800743a:	1a80      	subs	r0, r0, r2
 800743c:	3801      	subs	r0, #1
 800743e:	4770      	bx	lr

08007440 <_Log2PhysY_X0Y0S0>:
 8007440:	4610      	mov	r0, r2
 8007442:	4770      	bx	lr

08007444 <_Log2PhysY_X1Y0S0>:
 8007444:	4610      	mov	r0, r2
 8007446:	4770      	bx	lr

08007448 <_Log2PhysY_X0Y1S0>:
 8007448:	6840      	ldr	r0, [r0, #4]
 800744a:	1a80      	subs	r0, r0, r2
 800744c:	3801      	subs	r0, #1
 800744e:	4770      	bx	lr

08007450 <_Log2PhysY_X1Y1S0>:
 8007450:	6840      	ldr	r0, [r0, #4]
 8007452:	1a80      	subs	r0, r0, r2
 8007454:	3801      	subs	r0, #1
 8007456:	4770      	bx	lr

08007458 <_Log2PhysY_X0Y0S1>:
 8007458:	4608      	mov	r0, r1
 800745a:	4770      	bx	lr

0800745c <_Log2PhysY_X1Y0S1>:
 800745c:	4608      	mov	r0, r1
 800745e:	4770      	bx	lr

08007460 <_Log2PhysY_X0Y1S1>:
 8007460:	6800      	ldr	r0, [r0, #0]
 8007462:	1a40      	subs	r0, r0, r1
 8007464:	3801      	subs	r0, #1
 8007466:	4770      	bx	lr

08007468 <_Log2PhysY_X1Y1S1>:
 8007468:	6800      	ldr	r0, [r0, #0]
 800746a:	1a40      	subs	r0, r0, r1
 800746c:	3801      	subs	r0, #1
 800746e:	4770      	bx	lr

08007470 <_SetPixelIndex>:
 8007470:	b510      	push	{r4, lr}
 8007472:	6884      	ldr	r4, [r0, #8]
 8007474:	f8d4 40f0 	ldr.w	r4, [r4, #240]	; 0xf0
 8007478:	47a0      	blx	r4
 800747a:	bd10      	pop	{r4, pc}

0800747c <_GetPixelIndex>:
 800747c:	b508      	push	{r3, lr}
 800747e:	6883      	ldr	r3, [r0, #8]
 8007480:	f8d3 30ec 	ldr.w	r3, [r3, #236]	; 0xec
 8007484:	4798      	blx	r3
 8007486:	bd08      	pop	{r3, pc}

08007488 <_XorPixel>:
 8007488:	b5f7      	push	{r0, r1, r2, r4, r5, r6, r7, lr}
 800748a:	4604      	mov	r4, r0
 800748c:	460f      	mov	r7, r1
 800748e:	4616      	mov	r6, r2
 8007490:	6885      	ldr	r5, [r0, #8]
 8007492:	f7ff fff3 	bl	800747c <_GetPixelIndex>
 8007496:	9001      	str	r0, [sp, #4]
 8007498:	f8dd e004 	ldr.w	lr, [sp, #4]
 800749c:	6aab      	ldr	r3, [r5, #40]	; 0x28
 800749e:	4620      	mov	r0, r4
 80074a0:	4639      	mov	r1, r7
 80074a2:	4632      	mov	r2, r6
 80074a4:	ea8e 0303 	eor.w	r3, lr, r3
 80074a8:	f7ff ffe2 	bl	8007470 <_SetPixelIndex>
 80074ac:	b003      	add	sp, #12
 80074ae:	bdf0      	pop	{r4, r5, r6, r7, pc}

080074b0 <_DrawHLine>:
 80074b0:	b513      	push	{r0, r1, r4, lr}
 80074b2:	6884      	ldr	r4, [r0, #8]
 80074b4:	9200      	str	r2, [sp, #0]
 80074b6:	f8d4 40e8 	ldr.w	r4, [r4, #232]	; 0xe8
 80074ba:	47a0      	blx	r4
 80074bc:	b002      	add	sp, #8
 80074be:	bd10      	pop	{r4, pc}

080074c0 <_DrawVLine>:
 80074c0:	b513      	push	{r0, r1, r4, lr}
 80074c2:	6884      	ldr	r4, [r0, #8]
 80074c4:	9300      	str	r3, [sp, #0]
 80074c6:	f8d4 40e8 	ldr.w	r4, [r4, #232]	; 0xe8
 80074ca:	460b      	mov	r3, r1
 80074cc:	47a0      	blx	r4
 80074ce:	b002      	add	sp, #8
 80074d0:	bd10      	pop	{r4, pc}

080074d2 <_FillRect>:
 80074d2:	b537      	push	{r0, r1, r2, r4, r5, lr}
 80074d4:	9c06      	ldr	r4, [sp, #24]
 80074d6:	6885      	ldr	r5, [r0, #8]
 80074d8:	9400      	str	r4, [sp, #0]
 80074da:	f8d5 40e8 	ldr.w	r4, [r5, #232]	; 0xe8
 80074de:	47a0      	blx	r4
 80074e0:	b003      	add	sp, #12
 80074e2:	bd30      	pop	{r4, r5, pc}

080074e4 <_DrawBitmap>:
 80074e4:	b530      	push	{r4, r5, lr}
 80074e6:	b087      	sub	sp, #28
 80074e8:	6885      	ldr	r5, [r0, #8]
 80074ea:	9c0a      	ldr	r4, [sp, #40]	; 0x28
 80074ec:	9400      	str	r4, [sp, #0]
 80074ee:	9c0b      	ldr	r4, [sp, #44]	; 0x2c
 80074f0:	9401      	str	r4, [sp, #4]
 80074f2:	9c0c      	ldr	r4, [sp, #48]	; 0x30
 80074f4:	9402      	str	r4, [sp, #8]
 80074f6:	9c0d      	ldr	r4, [sp, #52]	; 0x34
 80074f8:	9403      	str	r4, [sp, #12]
 80074fa:	9c0e      	ldr	r4, [sp, #56]	; 0x38
 80074fc:	9404      	str	r4, [sp, #16]
 80074fe:	9c0f      	ldr	r4, [sp, #60]	; 0x3c
 8007500:	9405      	str	r4, [sp, #20]
 8007502:	f8d5 40e4 	ldr.w	r4, [r5, #228]	; 0xe4
 8007506:	47a0      	blx	r4
 8007508:	b007      	add	sp, #28
 800750a:	bd30      	pop	{r4, r5, pc}

0800750c <_GetDevFunc_SetRect>:
 800750c:	4770      	bx	lr
	...

08007510 <_GetDevFunc_SetRectOutside>:
 8007510:	b573      	push	{r0, r1, r4, r5, r6, lr}
 8007512:	9e07      	ldr	r6, [sp, #28]
 8007514:	6884      	ldr	r4, [r0, #8]
 8007516:	4d0c      	ldr	r5, [pc, #48]	; (8007548 <_GetDevFunc_SetRectOutside+0x38>)
 8007518:	b176      	cbz	r6, 8007538 <_GetDevFunc_SetRectOutside+0x28>
 800751a:	6828      	ldr	r0, [r5, #0]
 800751c:	b988      	cbnz	r0, 8007542 <_GetDevFunc_SetRectOutside+0x32>
 800751e:	9806      	ldr	r0, [sp, #24]
 8007520:	9000      	str	r0, [sp, #0]
 8007522:	f8d4 60a8 	ldr.w	r6, [r4, #168]	; 0xa8
 8007526:	4620      	mov	r0, r4
 8007528:	47b0      	blx	r6
 800752a:	f8d4 30a8 	ldr.w	r3, [r4, #168]	; 0xa8
 800752e:	602b      	str	r3, [r5, #0]
 8007530:	4b06      	ldr	r3, [pc, #24]	; (800754c <_GetDevFunc_SetRectOutside+0x3c>)
 8007532:	f8c4 30a8 	str.w	r3, [r4, #168]	; 0xa8
 8007536:	e004      	b.n	8007542 <_GetDevFunc_SetRectOutside+0x32>
 8007538:	682b      	ldr	r3, [r5, #0]
 800753a:	b113      	cbz	r3, 8007542 <_GetDevFunc_SetRectOutside+0x32>
 800753c:	f8c4 30a8 	str.w	r3, [r4, #168]	; 0xa8
 8007540:	602e      	str	r6, [r5, #0]
 8007542:	b002      	add	sp, #8
 8007544:	bd70      	pop	{r4, r5, r6, pc}
 8007546:	bf00      	nop
 8007548:	20000490 	.word	0x20000490
 800754c:	0800750d 	.word	0x0800750d

08007550 <_ReadPixelCust_16bpp>:
 8007550:	b508      	push	{r3, lr}
 8007552:	6c02      	ldr	r2, [r0, #64]	; 0x40
 8007554:	f8d0 30d4 	ldr.w	r3, [r0, #212]	; 0xd4
 8007558:	6990      	ldr	r0, [r2, #24]
 800755a:	4798      	blx	r3
 800755c:	bd08      	pop	{r3, pc}

0800755e <_ReadPixelCust_18bpp>:
 800755e:	b508      	push	{r3, lr}
 8007560:	6c02      	ldr	r2, [r0, #64]	; 0x40
 8007562:	f8d0 30d8 	ldr.w	r3, [r0, #216]	; 0xd8
 8007566:	6990      	ldr	r0, [r2, #24]
 8007568:	4798      	blx	r3
 800756a:	bd08      	pop	{r3, pc}

0800756c <_ReadRectCust_16bpp>:
 800756c:	e92d 43f7 	stmdb	sp!, {r0, r1, r2, r4, r5, r6, r7, r8, r9, lr}
 8007570:	9d0a      	ldr	r5, [sp, #40]	; 0x28
 8007572:	6884      	ldr	r4, [r0, #8]
 8007574:	9500      	str	r5, [sp, #0]
 8007576:	4617      	mov	r7, r2
 8007578:	4620      	mov	r0, r4
 800757a:	f8d4 60a8 	ldr.w	r6, [r4, #168]	; 0xa8
 800757e:	4699      	mov	r9, r3
 8007580:	4688      	mov	r8, r1
 8007582:	1bed      	subs	r5, r5, r7
 8007584:	47b0      	blx	r6
 8007586:	6c21      	ldr	r1, [r4, #64]	; 0x40
 8007588:	f8d4 30dc 	ldr.w	r3, [r4, #220]	; 0xdc
 800758c:	6988      	ldr	r0, [r1, #24]
 800758e:	990b      	ldr	r1, [sp, #44]	; 0x2c
 8007590:	ebc8 0809 	rsb	r8, r8, r9
 8007594:	1c6a      	adds	r2, r5, #1
 8007596:	fb08 2202 	mla	r2, r8, r2, r2
 800759a:	4798      	blx	r3
 800759c:	b003      	add	sp, #12
 800759e:	e8bd 83f0 	ldmia.w	sp!, {r4, r5, r6, r7, r8, r9, pc}

080075a2 <_ReadRectCust_18bpp>:
 80075a2:	e92d 43f7 	stmdb	sp!, {r0, r1, r2, r4, r5, r6, r7, r8, r9, lr}
 80075a6:	9d0a      	ldr	r5, [sp, #40]	; 0x28
 80075a8:	6884      	ldr	r4, [r0, #8]
 80075aa:	9500      	str	r5, [sp, #0]
 80075ac:	4617      	mov	r7, r2
 80075ae:	4620      	mov	r0, r4
 80075b0:	f8d4 60a8 	ldr.w	r6, [r4, #168]	; 0xa8
 80075b4:	4699      	mov	r9, r3
 80075b6:	4688      	mov	r8, r1
 80075b8:	1bed      	subs	r5, r5, r7
 80075ba:	47b0      	blx	r6
 80075bc:	6c21      	ldr	r1, [r4, #64]	; 0x40
 80075be:	f8d4 30e0 	ldr.w	r3, [r4, #224]	; 0xe0
 80075c2:	6988      	ldr	r0, [r1, #24]
 80075c4:	990b      	ldr	r1, [sp, #44]	; 0x2c
 80075c6:	ebc8 0809 	rsb	r8, r8, r9
 80075ca:	1c6a      	adds	r2, r5, #1
 80075cc:	fb08 2202 	mla	r2, r8, r2, r2
 80075d0:	4798      	blx	r3
 80075d2:	b003      	add	sp, #12
 80075d4:	e8bd 83f0 	ldmia.w	sp!, {r4, r5, r6, r7, r8, r9, pc}

080075d8 <_GetDevFunc>:
 80075d8:	3901      	subs	r1, #1
 80075da:	2917      	cmp	r1, #23
 80075dc:	d824      	bhi.n	8007628 <_GetDevFunc+0x50>
 80075de:	e8df f001 	tbb	[pc, r1]
 80075e2:	2310      	.short	0x2310
 80075e4:	23232323 	.word	0x23232323
 80075e8:	0c232323 	.word	0x0c232323
 80075ec:	23150e25 	.word	0x23150e25
 80075f0:	23232323 	.word	0x23232323
 80075f4:	1f232323 	.word	0x1f232323
 80075f8:	211a      	.short	0x211a
 80075fa:	480d      	ldr	r0, [pc, #52]	; (8007630 <_GetDevFunc+0x58>)
 80075fc:	4770      	bx	lr
 80075fe:	480d      	ldr	r0, [pc, #52]	; (8007634 <_GetDevFunc+0x5c>)
 8007600:	4770      	bx	lr
 8007602:	6803      	ldr	r3, [r0, #0]
 8007604:	689b      	ldr	r3, [r3, #8]
 8007606:	f8d3 00fc 	ldr.w	r0, [r3, #252]	; 0xfc
 800760a:	4770      	bx	lr
 800760c:	6803      	ldr	r3, [r0, #0]
 800760e:	689b      	ldr	r3, [r3, #8]
 8007610:	f8d3 00f4 	ldr.w	r0, [r3, #244]	; 0xf4
 8007614:	4770      	bx	lr
 8007616:	6803      	ldr	r3, [r0, #0]
 8007618:	689b      	ldr	r3, [r3, #8]
 800761a:	f8d3 00f8 	ldr.w	r0, [r3, #248]	; 0xf8
 800761e:	4770      	bx	lr
 8007620:	4805      	ldr	r0, [pc, #20]	; (8007638 <_GetDevFunc+0x60>)
 8007622:	4770      	bx	lr
 8007624:	4805      	ldr	r0, [pc, #20]	; (800763c <_GetDevFunc+0x64>)
 8007626:	4770      	bx	lr
 8007628:	2000      	movs	r0, #0
 800762a:	4770      	bx	lr
 800762c:	4804      	ldr	r0, [pc, #16]	; (8007640 <_GetDevFunc+0x68>)
 800762e:	4770      	bx	lr
 8007630:	0800798f 	.word	0x0800798f
 8007634:	08007931 	.word	0x08007931
 8007638:	08007895 	.word	0x08007895
 800763c:	08007511 	.word	0x08007511
 8007640:	0800797b 	.word	0x0800797b

08007644 <_GetDevProp>:
 8007644:	3901      	subs	r1, #1
 8007646:	6880      	ldr	r0, [r0, #8]
 8007648:	290d      	cmp	r1, #13
 800764a:	d823      	bhi.n	8007694 <_GetDevProp+0x50>
 800764c:	e8df f001 	tbb	[pc, r1]
 8007650:	0f0d0b09 	.word	0x0f0d0b09
 8007654:	11222222 	.word	0x11222222
 8007658:	13252507 	.word	0x13252507
 800765c:	1d18      	.short	0x1d18
 800765e:	2000      	movs	r0, #0
 8007660:	4770      	bx	lr
 8007662:	6800      	ldr	r0, [r0, #0]
 8007664:	4770      	bx	lr
 8007666:	6840      	ldr	r0, [r0, #4]
 8007668:	4770      	bx	lr
 800766a:	6880      	ldr	r0, [r0, #8]
 800766c:	4770      	bx	lr
 800766e:	68c0      	ldr	r0, [r0, #12]
 8007670:	4770      	bx	lr
 8007672:	6b80      	ldr	r0, [r0, #56]	; 0x38
 8007674:	4770      	bx	lr
 8007676:	b188      	cbz	r0, 800769c <_GetDevProp+0x58>
 8007678:	6b40      	ldr	r0, [r0, #52]	; 0x34
 800767a:	f000 0001 	and.w	r0, r0, #1
 800767e:	4770      	bx	lr
 8007680:	b160      	cbz	r0, 800769c <_GetDevProp+0x58>
 8007682:	6b40      	ldr	r0, [r0, #52]	; 0x34
 8007684:	f3c0 0040 	ubfx	r0, r0, #1, #1
 8007688:	4770      	bx	lr
 800768a:	b138      	cbz	r0, 800769c <_GetDevProp+0x58>
 800768c:	6b40      	ldr	r0, [r0, #52]	; 0x34
 800768e:	f3c0 0080 	ubfx	r0, r0, #2, #1
 8007692:	4770      	bx	lr
 8007694:	f04f 30ff 	mov.w	r0, #4294967295
 8007698:	4770      	bx	lr
 800769a:	2001      	movs	r0, #1
 800769c:	4770      	bx	lr

0800769e <_GetDevData>:
 800769e:	6883      	ldr	r3, [r0, #8]
 80076a0:	2901      	cmp	r1, #1
 80076a2:	bf0c      	ite	eq
 80076a4:	6c58      	ldreq	r0, [r3, #68]	; 0x44
 80076a6:	2000      	movne	r0, #0
 80076a8:	4770      	bx	lr

080076aa <_GetRect>:
 80076aa:	6883      	ldr	r3, [r0, #8]
 80076ac:	2200      	movs	r2, #0
 80076ae:	800a      	strh	r2, [r1, #0]
 80076b0:	804a      	strh	r2, [r1, #2]
 80076b2:	681a      	ldr	r2, [r3, #0]
 80076b4:	685b      	ldr	r3, [r3, #4]
 80076b6:	3a01      	subs	r2, #1
 80076b8:	3b01      	subs	r3, #1
 80076ba:	808a      	strh	r2, [r1, #4]
 80076bc:	80cb      	strh	r3, [r1, #6]
 80076be:	4770      	bx	lr

080076c0 <GUIDRV_FlexColor__SetLog2Phys>:
 80076c0:	b5f0      	push	{r4, r5, r6, r7, lr}
 80076c2:	4d10      	ldr	r5, [pc, #64]	; (8007704 <GUIDRV_FlexColor__SetLog2Phys+0x44>)
 80076c4:	462e      	mov	r6, r5
 80076c6:	4607      	mov	r7, r0
 80076c8:	ce0f      	ldmia	r6!, {r0, r1, r2, r3}
 80076ca:	b091      	sub	sp, #68	; 0x44
 80076cc:	466c      	mov	r4, sp
 80076ce:	c40f      	stmia	r4!, {r0, r1, r2, r3}
 80076d0:	e896 000f 	ldmia.w	r6, {r0, r1, r2, r3}
 80076d4:	3520      	adds	r5, #32
 80076d6:	e884 000f 	stmia.w	r4, {r0, r1, r2, r3}
 80076da:	cd0f      	ldmia	r5!, {r0, r1, r2, r3}
 80076dc:	ac08      	add	r4, sp, #32
 80076de:	c40f      	stmia	r4!, {r0, r1, r2, r3}
 80076e0:	e895 000f 	ldmia.w	r5, {r0, r1, r2, r3}
 80076e4:	e884 000f 	stmia.w	r4, {r0, r1, r2, r3}
 80076e8:	6b7b      	ldr	r3, [r7, #52]	; 0x34
 80076ea:	aa10      	add	r2, sp, #64	; 0x40
 80076ec:	eb02 0383 	add.w	r3, r2, r3, lsl #2
 80076f0:	f853 2c40 	ldr.w	r2, [r3, #-64]
 80076f4:	f8c7 2100 	str.w	r2, [r7, #256]	; 0x100
 80076f8:	f853 3c20 	ldr.w	r3, [r3, #-32]
 80076fc:	f8c7 3104 	str.w	r3, [r7, #260]	; 0x104
 8007700:	b011      	add	sp, #68	; 0x44
 8007702:	bdf0      	pop	{r4, r5, r6, r7, pc}
 8007704:	0800b1b0 	.word	0x0800b1b0

08007708 <_SetOrg>:
 8007708:	b507      	push	{r0, r1, r2, lr}
 800770a:	6980      	ldr	r0, [r0, #24]
 800770c:	e88d 0006 	stmia.w	sp, {r1, r2}
 8007710:	2103      	movs	r1, #3
 8007712:	466a      	mov	r2, sp
 8007714:	f7fe fa9e 	bl	8005c54 <LCD_X_DisplayDriver>
 8007718:	b003      	add	sp, #12
 800771a:	f85d fb04 	ldr.w	pc, [sp], #4

0800771e <GUIDRV_FlexColor__SetPixelIndexNoCache>:
 800771e:	e92d 43f7 	stmdb	sp!, {r0, r1, r2, r4, r5, r6, r7, r8, r9, lr}
 8007722:	6884      	ldr	r4, [r0, #8]
 8007724:	4698      	mov	r8, r3
 8007726:	8ce3      	ldrh	r3, [r4, #38]	; 0x26
 8007728:	079b      	lsls	r3, r3, #30
 800772a:	4689      	mov	r9, r1
 800772c:	4617      	mov	r7, r2
 800772e:	d532      	bpl.n	8007796 <GUIDRV_FlexColor__SetPixelIndexNoCache+0x78>
 8007730:	f8d4 3100 	ldr.w	r3, [r4, #256]	; 0x100
 8007734:	4620      	mov	r0, r4
 8007736:	4798      	blx	r3
 8007738:	f8d4 5104 	ldr.w	r5, [r4, #260]	; 0x104
 800773c:	4606      	mov	r6, r0
 800773e:	463a      	mov	r2, r7
 8007740:	4620      	mov	r0, r4
 8007742:	4649      	mov	r1, r9
 8007744:	47a8      	blx	r5
 8007746:	6923      	ldr	r3, [r4, #16]
 8007748:	69a2      	ldr	r2, [r4, #24]
 800774a:	429e      	cmp	r6, r3
 800774c:	bfac      	ite	ge
 800774e:	2300      	movge	r3, #0
 8007750:	2301      	movlt	r3, #1
 8007752:	4296      	cmp	r6, r2
 8007754:	bfd4      	ite	le
 8007756:	461a      	movle	r2, r3
 8007758:	f043 0201 	orrgt.w	r2, r3, #1
 800775c:	6963      	ldr	r3, [r4, #20]
 800775e:	4298      	cmp	r0, r3
 8007760:	bfac      	ite	ge
 8007762:	4613      	movge	r3, r2
 8007764:	f042 0301 	orrlt.w	r3, r2, #1
 8007768:	4605      	mov	r5, r0
 800776a:	b913      	cbnz	r3, 8007772 <GUIDRV_FlexColor__SetPixelIndexNoCache+0x54>
 800776c:	69e3      	ldr	r3, [r4, #28]
 800776e:	4298      	cmp	r0, r3
 8007770:	dd0a      	ble.n	8007788 <GUIDRV_FlexColor__SetPixelIndexNoCache+0x6a>
 8007772:	6862      	ldr	r2, [r4, #4]
 8007774:	6823      	ldr	r3, [r4, #0]
 8007776:	3a01      	subs	r2, #1
 8007778:	9200      	str	r2, [sp, #0]
 800777a:	2100      	movs	r1, #0
 800777c:	f8d4 70a8 	ldr.w	r7, [r4, #168]	; 0xa8
 8007780:	4620      	mov	r0, r4
 8007782:	460a      	mov	r2, r1
 8007784:	3b01      	subs	r3, #1
 8007786:	47b8      	blx	r7
 8007788:	f8d4 70ac 	ldr.w	r7, [r4, #172]	; 0xac
 800778c:	4620      	mov	r0, r4
 800778e:	4631      	mov	r1, r6
 8007790:	462a      	mov	r2, r5
 8007792:	47b8      	blx	r7
 8007794:	e003      	b.n	800779e <GUIDRV_FlexColor__SetPixelIndexNoCache+0x80>
 8007796:	f8d4 50ac 	ldr.w	r5, [r4, #172]	; 0xac
 800779a:	4620      	mov	r0, r4
 800779c:	47a8      	blx	r5
 800779e:	f8d4 30a4 	ldr.w	r3, [r4, #164]	; 0xa4
 80077a2:	4620      	mov	r0, r4
 80077a4:	4641      	mov	r1, r8
 80077a6:	4798      	blx	r3
 80077a8:	b003      	add	sp, #12
 80077aa:	e8bd 83f0 	ldmia.w	sp!, {r4, r5, r6, r7, r8, r9, pc}

080077ae <GUIDRV_FlexColor__GetPixelIndexNoCache>:
 80077ae:	b5f7      	push	{r0, r1, r2, r4, r5, r6, r7, lr}
 80077b0:	6884      	ldr	r4, [r0, #8]
 80077b2:	8ce3      	ldrh	r3, [r4, #38]	; 0x26
 80077b4:	079b      	lsls	r3, r3, #30
 80077b6:	460f      	mov	r7, r1
 80077b8:	4616      	mov	r6, r2
 80077ba:	d545      	bpl.n	8007848 <GUIDRV_FlexColor__GetPixelIndexNoCache+0x9a>
 80077bc:	f8d4 3100 	ldr.w	r3, [r4, #256]	; 0x100
 80077c0:	4620      	mov	r0, r4
 80077c2:	4798      	blx	r3
 80077c4:	f8d4 3104 	ldr.w	r3, [r4, #260]	; 0x104
 80077c8:	4632      	mov	r2, r6
 80077ca:	4605      	mov	r5, r0
 80077cc:	4639      	mov	r1, r7
 80077ce:	4620      	mov	r0, r4
 80077d0:	4798      	blx	r3
 80077d2:	f8d4 3098 	ldr.w	r3, [r4, #152]	; 0x98
 80077d6:	4606      	mov	r6, r0
 80077d8:	b11b      	cbz	r3, 80077e2 <GUIDRV_FlexColor__GetPixelIndexNoCache+0x34>
 80077da:	4620      	mov	r0, r4
 80077dc:	2101      	movs	r1, #1
 80077de:	2200      	movs	r2, #0
 80077e0:	4798      	blx	r3
 80077e2:	6923      	ldr	r3, [r4, #16]
 80077e4:	69a2      	ldr	r2, [r4, #24]
 80077e6:	429d      	cmp	r5, r3
 80077e8:	bfac      	ite	ge
 80077ea:	2300      	movge	r3, #0
 80077ec:	2301      	movlt	r3, #1
 80077ee:	4295      	cmp	r5, r2
 80077f0:	bfd4      	ite	le
 80077f2:	461a      	movle	r2, r3
 80077f4:	f043 0201 	orrgt.w	r2, r3, #1
 80077f8:	6963      	ldr	r3, [r4, #20]
 80077fa:	429e      	cmp	r6, r3
 80077fc:	bfac      	ite	ge
 80077fe:	4613      	movge	r3, r2
 8007800:	f042 0301 	orrlt.w	r3, r2, #1
 8007804:	b913      	cbnz	r3, 800780c <GUIDRV_FlexColor__GetPixelIndexNoCache+0x5e>
 8007806:	69e3      	ldr	r3, [r4, #28]
 8007808:	429e      	cmp	r6, r3
 800780a:	dd0a      	ble.n	8007822 <GUIDRV_FlexColor__GetPixelIndexNoCache+0x74>
 800780c:	6862      	ldr	r2, [r4, #4]
 800780e:	6823      	ldr	r3, [r4, #0]
 8007810:	3a01      	subs	r2, #1
 8007812:	9200      	str	r2, [sp, #0]
 8007814:	2100      	movs	r1, #0
 8007816:	f8d4 70a8 	ldr.w	r7, [r4, #168]	; 0xa8
 800781a:	4620      	mov	r0, r4
 800781c:	460a      	mov	r2, r1
 800781e:	3b01      	subs	r3, #1
 8007820:	47b8      	blx	r7
 8007822:	4629      	mov	r1, r5
 8007824:	f8d4 30ac 	ldr.w	r3, [r4, #172]	; 0xac
 8007828:	4620      	mov	r0, r4
 800782a:	4632      	mov	r2, r6
 800782c:	4798      	blx	r3
 800782e:	f8d4 30a0 	ldr.w	r3, [r4, #160]	; 0xa0
 8007832:	4620      	mov	r0, r4
 8007834:	4798      	blx	r3
 8007836:	f8d4 3098 	ldr.w	r3, [r4, #152]	; 0x98
 800783a:	4605      	mov	r5, r0
 800783c:	b16b      	cbz	r3, 800785a <GUIDRV_FlexColor__GetPixelIndexNoCache+0xac>
 800783e:	4620      	mov	r0, r4
 8007840:	2100      	movs	r1, #0
 8007842:	2201      	movs	r2, #1
 8007844:	4798      	blx	r3
 8007846:	e008      	b.n	800785a <GUIDRV_FlexColor__GetPixelIndexNoCache+0xac>
 8007848:	f8d4 30ac 	ldr.w	r3, [r4, #172]	; 0xac
 800784c:	4620      	mov	r0, r4
 800784e:	4798      	blx	r3
 8007850:	f8d4 30a0 	ldr.w	r3, [r4, #160]	; 0xa0
 8007854:	4620      	mov	r0, r4
 8007856:	4798      	blx	r3
 8007858:	4605      	mov	r5, r0
 800785a:	4628      	mov	r0, r5
 800785c:	b003      	add	sp, #12
 800785e:	bdf0      	pop	{r4, r5, r6, r7, pc}

08007860 <GUIDRV_FlexColor__InitOnce>:
 8007860:	b538      	push	{r3, r4, r5, lr}
 8007862:	6885      	ldr	r5, [r0, #8]
 8007864:	4604      	mov	r4, r0
 8007866:	b995      	cbnz	r5, 800788e <GUIDRV_FlexColor__InitOnce+0x2e>
 8007868:	f44f 70ba 	mov.w	r0, #372	; 0x174
 800786c:	f001 fcfa 	bl	8009264 <GUI_ALLOC_GetFixedBlock>
 8007870:	f44f 72ba 	mov.w	r2, #372	; 0x174
 8007874:	60a0      	str	r0, [r4, #8]
 8007876:	4629      	mov	r1, r5
 8007878:	f000 fd26 	bl	80082c8 <GUI__memset>
 800787c:	68a3      	ldr	r3, [r4, #8]
 800787e:	2202      	movs	r2, #2
 8007880:	84da      	strh	r2, [r3, #38]	; 0x26
 8007882:	2201      	movs	r2, #1
 8007884:	621a      	str	r2, [r3, #32]
 8007886:	4a02      	ldr	r2, [pc, #8]	; (8007890 <GUIDRV_FlexColor__InitOnce+0x30>)
 8007888:	641c      	str	r4, [r3, #64]	; 0x40
 800788a:	f8c3 2108 	str.w	r2, [r3, #264]	; 0x108
 800788e:	bd38      	pop	{r3, r4, r5, pc}
 8007890:	080076c1 	.word	0x080076c1

08007894 <_SetDevFunc>:
 8007894:	b570      	push	{r4, r5, r6, lr}
 8007896:	4606      	mov	r6, r0
 8007898:	460d      	mov	r5, r1
 800789a:	4614      	mov	r4, r2
 800789c:	f7ff ffe0 	bl	8007860 <GUIDRV_FlexColor__InitOnce>
 80078a0:	68b3      	ldr	r3, [r6, #8]
 80078a2:	2b00      	cmp	r3, #0
 80078a4:	d03b      	beq.n	800791e <_SetDevFunc+0x8a>
 80078a6:	2d26      	cmp	r5, #38	; 0x26
 80078a8:	d002      	beq.n	80078b0 <_SetDevFunc+0x1c>
 80078aa:	2d27      	cmp	r5, #39	; 0x27
 80078ac:	d016      	beq.n	80078dc <_SetDevFunc+0x48>
 80078ae:	bd70      	pop	{r4, r5, r6, pc}
 80078b0:	6b9a      	ldr	r2, [r3, #56]	; 0x38
 80078b2:	2a10      	cmp	r2, #16
 80078b4:	d002      	beq.n	80078bc <_SetDevFunc+0x28>
 80078b6:	2a12      	cmp	r2, #18
 80078b8:	d008      	beq.n	80078cc <_SetDevFunc+0x38>
 80078ba:	bd70      	pop	{r4, r5, r6, pc}
 80078bc:	4a18      	ldr	r2, [pc, #96]	; (8007920 <_SetDevFunc+0x8c>)
 80078be:	f8c3 40d4 	str.w	r4, [r3, #212]	; 0xd4
 80078c2:	f8c3 20b8 	str.w	r2, [r3, #184]	; 0xb8
 80078c6:	f8c3 20b4 	str.w	r2, [r3, #180]	; 0xb4
 80078ca:	bd70      	pop	{r4, r5, r6, pc}
 80078cc:	4a15      	ldr	r2, [pc, #84]	; (8007924 <_SetDevFunc+0x90>)
 80078ce:	f8c3 40d8 	str.w	r4, [r3, #216]	; 0xd8
 80078d2:	f8c3 20bc 	str.w	r2, [r3, #188]	; 0xbc
 80078d6:	f8c3 20c0 	str.w	r2, [r3, #192]	; 0xc0
 80078da:	bd70      	pop	{r4, r5, r6, pc}
 80078dc:	6b9a      	ldr	r2, [r3, #56]	; 0x38
 80078de:	2a10      	cmp	r2, #16
 80078e0:	d002      	beq.n	80078e8 <_SetDevFunc+0x54>
 80078e2:	2a12      	cmp	r2, #18
 80078e4:	d00e      	beq.n	8007904 <_SetDevFunc+0x70>
 80078e6:	bd70      	pop	{r4, r5, r6, pc}
 80078e8:	b13c      	cbz	r4, 80078fa <_SetDevFunc+0x66>
 80078ea:	4a0f      	ldr	r2, [pc, #60]	; (8007928 <_SetDevFunc+0x94>)
 80078ec:	f8c3 40dc 	str.w	r4, [r3, #220]	; 0xdc
 80078f0:	f8c3 20c8 	str.w	r2, [r3, #200]	; 0xc8
 80078f4:	f8c3 20c4 	str.w	r2, [r3, #196]	; 0xc4
 80078f8:	bd70      	pop	{r4, r5, r6, pc}
 80078fa:	f8c3 40c8 	str.w	r4, [r3, #200]	; 0xc8
 80078fe:	f8c3 40c4 	str.w	r4, [r3, #196]	; 0xc4
 8007902:	bd70      	pop	{r4, r5, r6, pc}
 8007904:	b13c      	cbz	r4, 8007916 <_SetDevFunc+0x82>
 8007906:	4a09      	ldr	r2, [pc, #36]	; (800792c <_SetDevFunc+0x98>)
 8007908:	f8c3 40e0 	str.w	r4, [r3, #224]	; 0xe0
 800790c:	f8c3 20cc 	str.w	r2, [r3, #204]	; 0xcc
 8007910:	f8c3 20d0 	str.w	r2, [r3, #208]	; 0xd0
 8007914:	bd70      	pop	{r4, r5, r6, pc}
 8007916:	f8c3 40cc 	str.w	r4, [r3, #204]	; 0xcc
 800791a:	f8c3 40d0 	str.w	r4, [r3, #208]	; 0xd0
 800791e:	bd70      	pop	{r4, r5, r6, pc}
 8007920:	08007551 	.word	0x08007551
 8007924:	0800755f 	.word	0x0800755f
 8007928:	0800756d 	.word	0x0800756d
 800792c:	080075a3 	.word	0x080075a3

08007930 <_GetDevFunc_Init>:
 8007930:	b538      	push	{r3, r4, r5, lr}
 8007932:	4605      	mov	r5, r0
 8007934:	f7ff ff94 	bl	8007860 <GUIDRV_FlexColor__InitOnce>
 8007938:	68ac      	ldr	r4, [r5, #8]
 800793a:	f44f 70fa 	mov.w	r0, #500	; 0x1f4
 800793e:	f001 fc91 	bl	8009264 <GUI_ALLOC_GetFixedBlock>
 8007942:	6ba3      	ldr	r3, [r4, #56]	; 0x38
 8007944:	66a0      	str	r0, [r4, #104]	; 0x68
 8007946:	3307      	adds	r3, #7
 8007948:	10d8      	asrs	r0, r3, #3
 800794a:	6823      	ldr	r3, [r4, #0]
 800794c:	4358      	muls	r0, r3
 800794e:	f001 fc89 	bl	8009264 <GUI_ALLOC_GetFixedBlock>
 8007952:	2101      	movs	r1, #1
 8007954:	2200      	movs	r2, #0
 8007956:	66e0      	str	r0, [r4, #108]	; 0x6c
 8007958:	69a8      	ldr	r0, [r5, #24]
 800795a:	f7fe f97b 	bl	8005c54 <LCD_X_DisplayDriver>
 800795e:	f8d4 3108 	ldr.w	r3, [r4, #264]	; 0x108
 8007962:	4605      	mov	r5, r0
 8007964:	4620      	mov	r0, r4
 8007966:	4798      	blx	r3
 8007968:	4620      	mov	r0, r4
 800796a:	f8d4 30b0 	ldr.w	r3, [r4, #176]	; 0xb0
 800796e:	4798      	blx	r3
 8007970:	2d00      	cmp	r5, #0
 8007972:	bfd4      	ite	le
 8007974:	2000      	movle	r0, #0
 8007976:	2001      	movgt	r0, #1
 8007978:	bd38      	pop	{r3, r4, r5, pc}

0800797a <_GetDevFunc_SetSize>:
 800797a:	b570      	push	{r4, r5, r6, lr}
 800797c:	4604      	mov	r4, r0
 800797e:	460d      	mov	r5, r1
 8007980:	4616      	mov	r6, r2
 8007982:	f7ff ff6d 	bl	8007860 <GUIDRV_FlexColor__InitOnce>
 8007986:	68a3      	ldr	r3, [r4, #8]
 8007988:	e883 0060 	stmia.w	r3, {r5, r6}
 800798c:	bd70      	pop	{r4, r5, r6, pc}

0800798e <_GetDevFunc_SetVSize>:
 800798e:	b570      	push	{r4, r5, r6, lr}
 8007990:	4604      	mov	r4, r0
 8007992:	460d      	mov	r5, r1
 8007994:	4616      	mov	r6, r2
 8007996:	f7ff ff63 	bl	8007860 <GUIDRV_FlexColor__InitOnce>
 800799a:	68a3      	ldr	r3, [r4, #8]
 800799c:	609d      	str	r5, [r3, #8]
 800799e:	60de      	str	r6, [r3, #12]
 80079a0:	bd70      	pop	{r4, r5, r6, pc}

080079a2 <GUIDRV_FlexColor_Config>:
 80079a2:	b538      	push	{r3, r4, r5, lr}
 80079a4:	4605      	mov	r5, r0
 80079a6:	460c      	mov	r4, r1
 80079a8:	f7ff ff5a 	bl	8007860 <GUIDRV_FlexColor__InitOnce>
 80079ac:	68ab      	ldr	r3, [r5, #8]
 80079ae:	6822      	ldr	r2, [r4, #0]
 80079b0:	62da      	str	r2, [r3, #44]	; 0x2c
 80079b2:	6862      	ldr	r2, [r4, #4]
 80079b4:	631a      	str	r2, [r3, #48]	; 0x30
 80079b6:	68a2      	ldr	r2, [r4, #8]
 80079b8:	635a      	str	r2, [r3, #52]	; 0x34
 80079ba:	0752      	lsls	r2, r2, #29
 80079bc:	d507      	bpl.n	80079ce <GUIDRV_FlexColor_Config+0x2c>
 80079be:	e893 0006 	ldmia.w	r3, {r1, r2}
 80079c2:	601a      	str	r2, [r3, #0]
 80079c4:	6059      	str	r1, [r3, #4]
 80079c6:	68da      	ldr	r2, [r3, #12]
 80079c8:	6899      	ldr	r1, [r3, #8]
 80079ca:	60d9      	str	r1, [r3, #12]
 80079cc:	609a      	str	r2, [r3, #8]
 80079ce:	89a2      	ldrh	r2, [r4, #12]
 80079d0:	849a      	strh	r2, [r3, #36]	; 0x24
 80079d2:	6922      	ldr	r2, [r4, #16]
 80079d4:	b112      	cbz	r2, 80079dc <GUIDRV_FlexColor_Config+0x3a>
 80079d6:	ea22 72e2 	bic.w	r2, r2, r2, asr #31
 80079da:	621a      	str	r2, [r3, #32]
 80079dc:	bd38      	pop	{r3, r4, r5, pc}

080079de <GUIDRV_FlexColor_SetFunc>:
 80079de:	e92d 41f0 	stmdb	sp!, {r4, r5, r6, r7, r8, lr}
 80079e2:	4604      	mov	r4, r0
 80079e4:	461f      	mov	r7, r3
 80079e6:	4616      	mov	r6, r2
 80079e8:	4688      	mov	r8, r1
 80079ea:	f7ff ff39 	bl	8007860 <GUIDRV_FlexColor__InitOnce>
 80079ee:	68a5      	ldr	r5, [r4, #8]
 80079f0:	4641      	mov	r1, r8
 80079f2:	2268      	movs	r2, #104	; 0x68
 80079f4:	f505 7086 	add.w	r0, r5, #268	; 0x10c
 80079f8:	f7f8 fec6 	bl	8000788 <memcpy>
 80079fc:	4620      	mov	r0, r4
 80079fe:	47b0      	blx	r6
 8007a00:	4620      	mov	r0, r4
 8007a02:	47b8      	blx	r7
 8007a04:	6923      	ldr	r3, [r4, #16]
 8007a06:	689b      	ldr	r3, [r3, #8]
 8007a08:	4798      	blx	r3
 8007a0a:	62a8      	str	r0, [r5, #40]	; 0x28
 8007a0c:	e8bd 81f0 	ldmia.w	sp!, {r4, r5, r6, r7, r8, pc}

08007a10 <LCD_UpdateColorIndices>:
 8007a10:	b510      	push	{r4, lr}
 8007a12:	4c07      	ldr	r4, [pc, #28]	; (8007a30 <LCD_UpdateColorIndices+0x20>)
 8007a14:	6823      	ldr	r3, [r4, #0]
 8007a16:	6b18      	ldr	r0, [r3, #48]	; 0x30
 8007a18:	f000 fbee 	bl	80081f8 <LCD_Color2Index>
 8007a1c:	f000 fc0c 	bl	8008238 <LCD_SetColorIndex>
 8007a20:	6823      	ldr	r3, [r4, #0]
 8007a22:	6b58      	ldr	r0, [r3, #52]	; 0x34
 8007a24:	f000 fbe8 	bl	80081f8 <LCD_Color2Index>
 8007a28:	e8bd 4010 	ldmia.w	sp!, {r4, lr}
 8007a2c:	f000 bc20 	b.w	8008270 <LCD_SetBkColorIndex>
 8007a30:	20000008 	.word	0x20000008

08007a34 <LCD_SetClipRectEx>:
 8007a34:	b537      	push	{r0, r1, r2, r4, r5, lr}
 8007a36:	4c09      	ldr	r4, [pc, #36]	; (8007a5c <LCD_SetClipRectEx+0x28>)
 8007a38:	6823      	ldr	r3, [r4, #0]
 8007a3a:	7c5a      	ldrb	r2, [r3, #17]
 8007a3c:	4b08      	ldr	r3, [pc, #32]	; (8007a60 <LCD_SetClipRectEx+0x2c>)
 8007a3e:	4605      	mov	r5, r0
 8007a40:	f853 0022 	ldr.w	r0, [r3, r2, lsl #2]
 8007a44:	68c2      	ldr	r2, [r0, #12]
 8007a46:	4669      	mov	r1, sp
 8007a48:	6b12      	ldr	r2, [r2, #48]	; 0x30
 8007a4a:	4790      	blx	r2
 8007a4c:	6820      	ldr	r0, [r4, #0]
 8007a4e:	4629      	mov	r1, r5
 8007a50:	466a      	mov	r2, sp
 8007a52:	3008      	adds	r0, #8
 8007a54:	f000 fcd6 	bl	8008404 <GUI__IntersectRects>
 8007a58:	b003      	add	sp, #12
 8007a5a:	bd30      	pop	{r4, r5, pc}
 8007a5c:	20000008 	.word	0x20000008
 8007a60:	20002e8c 	.word	0x20002e8c

08007a64 <LCD_SetVSizeEx>:
 8007a64:	b537      	push	{r0, r1, r2, r4, r5, lr}
 8007a66:	460d      	mov	r5, r1
 8007a68:	4614      	mov	r4, r2
 8007a6a:	f000 fe61 	bl	8008730 <GUI_DEVICE__GetpDriver>
 8007a6e:	9001      	str	r0, [sp, #4]
 8007a70:	b908      	cbnz	r0, 8007a76 <LCD_SetVSizeEx+0x12>
 8007a72:	2001      	movs	r0, #1
 8007a74:	e00c      	b.n	8007a90 <LCD_SetVSizeEx+0x2c>
 8007a76:	68c3      	ldr	r3, [r0, #12]
 8007a78:	210a      	movs	r1, #10
 8007a7a:	6a5b      	ldr	r3, [r3, #36]	; 0x24
 8007a7c:	a801      	add	r0, sp, #4
 8007a7e:	4798      	blx	r3
 8007a80:	4603      	mov	r3, r0
 8007a82:	2800      	cmp	r0, #0
 8007a84:	d0f5      	beq.n	8007a72 <LCD_SetVSizeEx+0xe>
 8007a86:	9801      	ldr	r0, [sp, #4]
 8007a88:	4629      	mov	r1, r5
 8007a8a:	4622      	mov	r2, r4
 8007a8c:	4798      	blx	r3
 8007a8e:	2000      	movs	r0, #0
 8007a90:	b003      	add	sp, #12
 8007a92:	bd30      	pop	{r4, r5, pc}

08007a94 <LCD_SetSizeEx>:
 8007a94:	b537      	push	{r0, r1, r2, r4, r5, lr}
 8007a96:	460d      	mov	r5, r1
 8007a98:	4614      	mov	r4, r2
 8007a9a:	f000 fe49 	bl	8008730 <GUI_DEVICE__GetpDriver>
 8007a9e:	9001      	str	r0, [sp, #4]
 8007aa0:	b908      	cbnz	r0, 8007aa6 <LCD_SetSizeEx+0x12>
 8007aa2:	2001      	movs	r0, #1
 8007aa4:	e00c      	b.n	8007ac0 <LCD_SetSizeEx+0x2c>
 8007aa6:	68c3      	ldr	r3, [r0, #12]
 8007aa8:	210b      	movs	r1, #11
 8007aaa:	6a5b      	ldr	r3, [r3, #36]	; 0x24
 8007aac:	a801      	add	r0, sp, #4
 8007aae:	4798      	blx	r3
 8007ab0:	4603      	mov	r3, r0
 8007ab2:	2800      	cmp	r0, #0
 8007ab4:	d0f5      	beq.n	8007aa2 <LCD_SetSizeEx+0xe>
 8007ab6:	9801      	ldr	r0, [sp, #4]
 8007ab8:	4629      	mov	r1, r5
 8007aba:	4622      	mov	r2, r4
 8007abc:	4798      	blx	r3
 8007abe:	2000      	movs	r0, #0
 8007ac0:	b003      	add	sp, #12
 8007ac2:	bd30      	pop	{r4, r5, pc}

08007ac4 <LCD_SetLUTEntryEx>:
 8007ac4:	b537      	push	{r0, r1, r2, r4, r5, lr}
 8007ac6:	460d      	mov	r5, r1
 8007ac8:	4614      	mov	r4, r2
 8007aca:	f000 fe31 	bl	8008730 <GUI_DEVICE__GetpDriver>
 8007ace:	9001      	str	r0, [sp, #4]
 8007ad0:	b908      	cbnz	r0, 8007ad6 <LCD_SetLUTEntryEx+0x12>
 8007ad2:	2001      	movs	r0, #1
 8007ad4:	e00c      	b.n	8007af0 <LCD_SetLUTEntryEx+0x2c>
 8007ad6:	68c3      	ldr	r3, [r0, #12]
 8007ad8:	2110      	movs	r1, #16
 8007ada:	6a5b      	ldr	r3, [r3, #36]	; 0x24
 8007adc:	a801      	add	r0, sp, #4
 8007ade:	4798      	blx	r3
 8007ae0:	4603      	mov	r3, r0
 8007ae2:	2800      	cmp	r0, #0
 8007ae4:	d0f5      	beq.n	8007ad2 <LCD_SetLUTEntryEx+0xe>
 8007ae6:	9801      	ldr	r0, [sp, #4]
 8007ae8:	4629      	mov	r1, r5
 8007aea:	4622      	mov	r2, r4
 8007aec:	4798      	blx	r3
 8007aee:	2000      	movs	r0, #0
 8007af0:	b003      	add	sp, #12
 8007af2:	bd30      	pop	{r4, r5, pc}

08007af4 <_GetDevProp>:
 8007af4:	2801      	cmp	r0, #1
 8007af6:	b510      	push	{r4, lr}
 8007af8:	460c      	mov	r4, r1
 8007afa:	dc08      	bgt.n	8007b0e <_GetDevProp+0x1a>
 8007afc:	f000 fe18 	bl	8008730 <GUI_DEVICE__GetpDriver>
 8007b00:	b120      	cbz	r0, 8007b0c <_GetDevProp+0x18>
 8007b02:	68c3      	ldr	r3, [r0, #12]
 8007b04:	4621      	mov	r1, r4
 8007b06:	6a9b      	ldr	r3, [r3, #40]	; 0x28
 8007b08:	4798      	blx	r3
 8007b0a:	bd10      	pop	{r4, pc}
 8007b0c:	bd10      	pop	{r4, pc}
 8007b0e:	2000      	movs	r0, #0
 8007b10:	bd10      	pop	{r4, pc}

08007b12 <LCD_GetBitsPerPixelEx>:
 8007b12:	2108      	movs	r1, #8
 8007b14:	f7ff bfee 	b.w	8007af4 <_GetDevProp>

08007b18 <LCD_GetNumColorsEx>:
 8007b18:	2109      	movs	r1, #9
 8007b1a:	f7ff bfeb 	b.w	8007af4 <_GetDevProp>
	...

08007b20 <LCD_GetNumColors>:
 8007b20:	4b02      	ldr	r3, [pc, #8]	; (8007b2c <LCD_GetNumColors+0xc>)
 8007b22:	681b      	ldr	r3, [r3, #0]
 8007b24:	7c58      	ldrb	r0, [r3, #17]
 8007b26:	f7ff bff7 	b.w	8007b18 <LCD_GetNumColorsEx>
 8007b2a:	bf00      	nop
 8007b2c:	20000008 	.word	0x20000008

08007b30 <GUI_GetBitsPerPixelEx>:
 8007b30:	b508      	push	{r3, lr}
 8007b32:	4b04      	ldr	r3, [pc, #16]	; (8007b44 <GUI_GetBitsPerPixelEx+0x14>)
 8007b34:	f853 0020 	ldr.w	r0, [r3, r0, lsl #2]
 8007b38:	68c3      	ldr	r3, [r0, #12]
 8007b3a:	2108      	movs	r1, #8
 8007b3c:	6a9b      	ldr	r3, [r3, #40]	; 0x28
 8007b3e:	4798      	blx	r3
 8007b40:	bd08      	pop	{r3, pc}
 8007b42:	bf00      	nop
 8007b44:	20002e8c 	.word	0x20002e8c

08007b48 <LCD_GetPaletteEx>:
 8007b48:	b508      	push	{r3, lr}
 8007b4a:	f000 fdf1 	bl	8008730 <GUI_DEVICE__GetpDriver>
 8007b4e:	b120      	cbz	r0, 8007b5a <LCD_GetPaletteEx+0x12>
 8007b50:	68c3      	ldr	r3, [r0, #12]
 8007b52:	2102      	movs	r1, #2
 8007b54:	6adb      	ldr	r3, [r3, #44]	; 0x2c
 8007b56:	4798      	blx	r3
 8007b58:	bd08      	pop	{r3, pc}
 8007b5a:	bd08      	pop	{r3, pc}

08007b5c <LCD_GetPalette>:
 8007b5c:	4b02      	ldr	r3, [pc, #8]	; (8007b68 <LCD_GetPalette+0xc>)
 8007b5e:	681b      	ldr	r3, [r3, #0]
 8007b60:	7c58      	ldrb	r0, [r3, #17]
 8007b62:	f7ff bff1 	b.w	8007b48 <LCD_GetPaletteEx>
 8007b66:	bf00      	nop
 8007b68:	20000008 	.word	0x20000008

08007b6c <GUI_GetpfIndex2ColorEx>:
 8007b6c:	4b02      	ldr	r3, [pc, #8]	; (8007b78 <GUI_GetpfIndex2ColorEx+0xc>)
 8007b6e:	f853 3020 	ldr.w	r3, [r3, r0, lsl #2]
 8007b72:	691b      	ldr	r3, [r3, #16]
 8007b74:	6858      	ldr	r0, [r3, #4]
 8007b76:	4770      	bx	lr
 8007b78:	20002e8c 	.word	0x20002e8c

08007b7c <GUI_GetpfColor2IndexEx>:
 8007b7c:	4b02      	ldr	r3, [pc, #8]	; (8007b88 <GUI_GetpfColor2IndexEx+0xc>)
 8007b7e:	f853 3020 	ldr.w	r3, [r3, r0, lsl #2]
 8007b82:	691b      	ldr	r3, [r3, #16]
 8007b84:	6818      	ldr	r0, [r3, #0]
 8007b86:	4770      	bx	lr
 8007b88:	20002e8c 	.word	0x20002e8c

08007b8c <LCD__GetBPP>:
 8007b8c:	2800      	cmp	r0, #0
 8007b8e:	d03b      	beq.n	8007c08 <LCD__GetBPP+0x7c>
 8007b90:	f030 0301 	bics.w	r3, r0, #1
 8007b94:	d029      	beq.n	8007bea <LCD__GetBPP+0x5e>
 8007b96:	f030 0303 	bics.w	r3, r0, #3
 8007b9a:	d028      	beq.n	8007bee <LCD__GetBPP+0x62>
 8007b9c:	f030 0307 	bics.w	r3, r0, #7
 8007ba0:	d027      	beq.n	8007bf2 <LCD__GetBPP+0x66>
 8007ba2:	f030 030f 	bics.w	r3, r0, #15
 8007ba6:	d026      	beq.n	8007bf6 <LCD__GetBPP+0x6a>
 8007ba8:	f030 031f 	bics.w	r3, r0, #31
 8007bac:	d025      	beq.n	8007bfa <LCD__GetBPP+0x6e>
 8007bae:	f030 03ff 	bics.w	r3, r0, #255	; 0xff
 8007bb2:	d024      	beq.n	8007bfe <LCD__GetBPP+0x72>
 8007bb4:	f420 73ff 	bic.w	r3, r0, #510	; 0x1fe
 8007bb8:	f023 0301 	bic.w	r3, r3, #1
 8007bbc:	b30b      	cbz	r3, 8007c02 <LCD__GetBPP+0x76>
 8007bbe:	f420 637f 	bic.w	r3, r0, #4080	; 0xff0
 8007bc2:	f023 030f 	bic.w	r3, r3, #15
 8007bc6:	b1e3      	cbz	r3, 8007c02 <LCD__GetBPP+0x76>
 8007bc8:	f420 43ff 	bic.w	r3, r0, #32640	; 0x7f80
 8007bcc:	f023 037f 	bic.w	r3, r3, #127	; 0x7f
 8007bd0:	b1bb      	cbz	r3, 8007c02 <LCD__GetBPP+0x76>
 8007bd2:	0c03      	lsrs	r3, r0, #16
 8007bd4:	041b      	lsls	r3, r3, #16
 8007bd6:	b1a3      	cbz	r3, 8007c02 <LCD__GetBPP+0x76>
 8007bd8:	0c83      	lsrs	r3, r0, #18
 8007bda:	049b      	lsls	r3, r3, #18
 8007bdc:	b19b      	cbz	r3, 8007c06 <LCD__GetBPP+0x7a>
 8007bde:	f010 4f7f 	tst.w	r0, #4278190080	; 0xff000000
 8007be2:	bf0c      	ite	eq
 8007be4:	2018      	moveq	r0, #24
 8007be6:	2020      	movne	r0, #32
 8007be8:	4770      	bx	lr
 8007bea:	2001      	movs	r0, #1
 8007bec:	4770      	bx	lr
 8007bee:	2002      	movs	r0, #2
 8007bf0:	4770      	bx	lr
 8007bf2:	2003      	movs	r0, #3
 8007bf4:	4770      	bx	lr
 8007bf6:	2004      	movs	r0, #4
 8007bf8:	4770      	bx	lr
 8007bfa:	2005      	movs	r0, #5
 8007bfc:	4770      	bx	lr
 8007bfe:	2008      	movs	r0, #8
 8007c00:	4770      	bx	lr
 8007c02:	2010      	movs	r0, #16
 8007c04:	4770      	bx	lr
 8007c06:	2012      	movs	r0, #18
 8007c08:	4770      	bx	lr

08007c0a <LCD__GetBPPDevice>:
 8007c0a:	b508      	push	{r3, lr}
 8007c0c:	f7ff ffbe 	bl	8007b8c <LCD__GetBPP>
 8007c10:	2801      	cmp	r0, #1
 8007c12:	d00f      	beq.n	8007c34 <LCD__GetBPPDevice+0x2a>
 8007c14:	1e83      	subs	r3, r0, #2
 8007c16:	2b06      	cmp	r3, #6
 8007c18:	d909      	bls.n	8007c2e <LCD__GetBPPDevice+0x24>
 8007c1a:	f1a0 0309 	sub.w	r3, r0, #9
 8007c1e:	2b07      	cmp	r3, #7
 8007c20:	d907      	bls.n	8007c32 <LCD__GetBPPDevice+0x28>
 8007c22:	3811      	subs	r0, #17
 8007c24:	2810      	cmp	r0, #16
 8007c26:	bf34      	ite	cc
 8007c28:	2020      	movcc	r0, #32
 8007c2a:	2000      	movcs	r0, #0
 8007c2c:	bd08      	pop	{r3, pc}
 8007c2e:	2008      	movs	r0, #8
 8007c30:	bd08      	pop	{r3, pc}
 8007c32:	2010      	movs	r0, #16
 8007c34:	bd08      	pop	{r3, pc}
	...

08007c38 <_SetDrawMode>:
 8007c38:	b570      	push	{r4, r5, r6, lr}
 8007c3a:	4b08      	ldr	r3, [pc, #32]	; (8007c5c <_SetDrawMode+0x24>)
 8007c3c:	681b      	ldr	r3, [r3, #0]
 8007c3e:	7c1a      	ldrb	r2, [r3, #16]
 8007c40:	ea80 0102 	eor.w	r1, r0, r2
 8007c44:	0749      	lsls	r1, r1, #29
 8007c46:	d505      	bpl.n	8007c54 <_SetDrawMode+0x1c>
 8007c48:	6b9c      	ldr	r4, [r3, #56]	; 0x38
 8007c4a:	6bd9      	ldr	r1, [r3, #60]	; 0x3c
 8007c4c:	6826      	ldr	r6, [r4, #0]
 8007c4e:	680d      	ldr	r5, [r1, #0]
 8007c50:	6025      	str	r5, [r4, #0]
 8007c52:	600e      	str	r6, [r1, #0]
 8007c54:	7418      	strb	r0, [r3, #16]
 8007c56:	4610      	mov	r0, r2
 8007c58:	bd70      	pop	{r4, r5, r6, pc}
 8007c5a:	bf00      	nop
 8007c5c:	20000008 	.word	0x20000008

08007c60 <LCD_SetDrawMode>:
 8007c60:	b508      	push	{r3, lr}
 8007c62:	4b02      	ldr	r3, [pc, #8]	; (8007c6c <LCD_SetDrawMode+0xc>)
 8007c64:	681b      	ldr	r3, [r3, #0]
 8007c66:	689b      	ldr	r3, [r3, #8]
 8007c68:	4798      	blx	r3
 8007c6a:	bd08      	pop	{r3, pc}
 8007c6c:	20000004 	.word	0x20000004

08007c70 <LCD_DrawPixel>:
 8007c70:	b538      	push	{r3, r4, r5, lr}
 8007c72:	4b14      	ldr	r3, [pc, #80]	; (8007cc4 <LCD_DrawPixel+0x54>)
 8007c74:	681b      	ldr	r3, [r3, #0]
 8007c76:	460a      	mov	r2, r1
 8007c78:	f9b3 100a 	ldrsh.w	r1, [r3, #10]
 8007c7c:	428a      	cmp	r2, r1
 8007c7e:	4604      	mov	r4, r0
 8007c80:	db1e      	blt.n	8007cc0 <LCD_DrawPixel+0x50>
 8007c82:	f9b3 100e 	ldrsh.w	r1, [r3, #14]
 8007c86:	428a      	cmp	r2, r1
 8007c88:	dc1a      	bgt.n	8007cc0 <LCD_DrawPixel+0x50>
 8007c8a:	f9b3 1008 	ldrsh.w	r1, [r3, #8]
 8007c8e:	4288      	cmp	r0, r1
 8007c90:	db16      	blt.n	8007cc0 <LCD_DrawPixel+0x50>
 8007c92:	f9b3 100c 	ldrsh.w	r1, [r3, #12]
 8007c96:	4288      	cmp	r0, r1
 8007c98:	dc12      	bgt.n	8007cc0 <LCD_DrawPixel+0x50>
 8007c9a:	7c19      	ldrb	r1, [r3, #16]
 8007c9c:	7c58      	ldrb	r0, [r3, #17]
 8007c9e:	f011 0f01 	tst.w	r1, #1
 8007ca2:	4909      	ldr	r1, [pc, #36]	; (8007cc8 <LCD_DrawPixel+0x58>)
 8007ca4:	f851 0020 	ldr.w	r0, [r1, r0, lsl #2]
 8007ca8:	d004      	beq.n	8007cb4 <LCD_DrawPixel+0x44>
 8007caa:	68c3      	ldr	r3, [r0, #12]
 8007cac:	4621      	mov	r1, r4
 8007cae:	69db      	ldr	r3, [r3, #28]
 8007cb0:	4798      	blx	r3
 8007cb2:	bd38      	pop	{r3, r4, r5, pc}
 8007cb4:	68c1      	ldr	r1, [r0, #12]
 8007cb6:	6bdb      	ldr	r3, [r3, #60]	; 0x3c
 8007cb8:	698d      	ldr	r5, [r1, #24]
 8007cba:	681b      	ldr	r3, [r3, #0]
 8007cbc:	4621      	mov	r1, r4
 8007cbe:	47a8      	blx	r5
 8007cc0:	bd38      	pop	{r3, r4, r5, pc}
 8007cc2:	bf00      	nop
 8007cc4:	20000008 	.word	0x20000008
 8007cc8:	20002e8c 	.word	0x20002e8c

08007ccc <LCD_DrawHLine>:
 8007ccc:	b538      	push	{r3, r4, r5, lr}
 8007cce:	4b10      	ldr	r3, [pc, #64]	; (8007d10 <LCD_DrawHLine+0x44>)
 8007cd0:	681c      	ldr	r4, [r3, #0]
 8007cd2:	f9b4 300a 	ldrsh.w	r3, [r4, #10]
 8007cd6:	4299      	cmp	r1, r3
 8007cd8:	460d      	mov	r5, r1
 8007cda:	db17      	blt.n	8007d0c <LCD_DrawHLine+0x40>
 8007cdc:	f9b4 300e 	ldrsh.w	r3, [r4, #14]
 8007ce0:	4299      	cmp	r1, r3
 8007ce2:	dc13      	bgt.n	8007d0c <LCD_DrawHLine+0x40>
 8007ce4:	f9b4 1008 	ldrsh.w	r1, [r4, #8]
 8007ce8:	f9b4 300c 	ldrsh.w	r3, [r4, #12]
 8007cec:	4288      	cmp	r0, r1
 8007cee:	bfa8      	it	ge
 8007cf0:	4601      	movge	r1, r0
 8007cf2:	429a      	cmp	r2, r3
 8007cf4:	bfb8      	it	lt
 8007cf6:	4613      	movlt	r3, r2
 8007cf8:	428b      	cmp	r3, r1
 8007cfa:	db07      	blt.n	8007d0c <LCD_DrawHLine+0x40>
 8007cfc:	7c60      	ldrb	r0, [r4, #17]
 8007cfe:	4a05      	ldr	r2, [pc, #20]	; (8007d14 <LCD_DrawHLine+0x48>)
 8007d00:	f852 0020 	ldr.w	r0, [r2, r0, lsl #2]
 8007d04:	68c2      	ldr	r2, [r0, #12]
 8007d06:	6894      	ldr	r4, [r2, #8]
 8007d08:	462a      	mov	r2, r5
 8007d0a:	47a0      	blx	r4
 8007d0c:	bd38      	pop	{r3, r4, r5, pc}
 8007d0e:	bf00      	nop
 8007d10:	20000008 	.word	0x20000008
 8007d14:	20002e8c 	.word	0x20002e8c

08007d18 <LCD_FillRect>:
 8007d18:	b573      	push	{r0, r1, r4, r5, r6, lr}
 8007d1a:	460e      	mov	r6, r1
 8007d1c:	4912      	ldr	r1, [pc, #72]	; (8007d68 <LCD_FillRect+0x50>)
 8007d1e:	680c      	ldr	r4, [r1, #0]
 8007d20:	f9b4 1008 	ldrsh.w	r1, [r4, #8]
 8007d24:	f9b4 500c 	ldrsh.w	r5, [r4, #12]
 8007d28:	4288      	cmp	r0, r1
 8007d2a:	bfa8      	it	ge
 8007d2c:	4601      	movge	r1, r0
 8007d2e:	42aa      	cmp	r2, r5
 8007d30:	bfb8      	it	lt
 8007d32:	4615      	movlt	r5, r2
 8007d34:	428d      	cmp	r5, r1
 8007d36:	db14      	blt.n	8007d62 <LCD_FillRect+0x4a>
 8007d38:	f9b4 200a 	ldrsh.w	r2, [r4, #10]
 8007d3c:	f9b4 000e 	ldrsh.w	r0, [r4, #14]
 8007d40:	4296      	cmp	r6, r2
 8007d42:	bfa8      	it	ge
 8007d44:	4632      	movge	r2, r6
 8007d46:	4283      	cmp	r3, r0
 8007d48:	bfa8      	it	ge
 8007d4a:	4603      	movge	r3, r0
 8007d4c:	4293      	cmp	r3, r2
 8007d4e:	db08      	blt.n	8007d62 <LCD_FillRect+0x4a>
 8007d50:	7c64      	ldrb	r4, [r4, #17]
 8007d52:	4806      	ldr	r0, [pc, #24]	; (8007d6c <LCD_FillRect+0x54>)
 8007d54:	f850 0024 	ldr.w	r0, [r0, r4, lsl #2]
 8007d58:	68c4      	ldr	r4, [r0, #12]
 8007d5a:	9300      	str	r3, [sp, #0]
 8007d5c:	6924      	ldr	r4, [r4, #16]
 8007d5e:	462b      	mov	r3, r5
 8007d60:	47a0      	blx	r4
 8007d62:	b002      	add	sp, #8
 8007d64:	bd70      	pop	{r4, r5, r6, pc}
 8007d66:	bf00      	nop
 8007d68:	20000008 	.word	0x20000008
 8007d6c:	20002e8c 	.word	0x20002e8c

08007d70 <LCD__DrawBitmap_1bpp>:
 8007d70:	e92d 4ff0 	stmdb	sp!, {r4, r5, r6, r7, r8, r9, sl, fp, lr}
 8007d74:	f8df c1b4 	ldr.w	ip, [pc, #436]	; 8007f2c <LCD__DrawBitmap_1bpp+0x1bc>
 8007d78:	b08f      	sub	sp, #60	; 0x3c
 8007d7a:	f8dc c000 	ldr.w	ip, [ip]
 8007d7e:	9009      	str	r0, [sp, #36]	; 0x24
 8007d80:	460e      	mov	r6, r1
 8007d82:	4615      	mov	r5, r2
 8007d84:	469b      	mov	fp, r3
 8007d86:	9c1c      	ldr	r4, [sp, #112]	; 0x70
 8007d88:	f8dd 8078 	ldr.w	r8, [sp, #120]	; 0x78
 8007d8c:	f1bc 0f00 	cmp.w	ip, #0
 8007d90:	d00d      	beq.n	8007dae <LCD__DrawBitmap_1bpp+0x3e>
 8007d92:	9d18      	ldr	r5, [sp, #96]	; 0x60
 8007d94:	9e19      	ldr	r6, [sp, #100]	; 0x64
 8007d96:	9500      	str	r5, [sp, #0]
 8007d98:	9601      	str	r6, [sp, #4]
 8007d9a:	9f1a      	ldr	r7, [sp, #104]	; 0x68
 8007d9c:	9d1b      	ldr	r5, [sp, #108]	; 0x6c
 8007d9e:	9e1d      	ldr	r6, [sp, #116]	; 0x74
 8007da0:	9702      	str	r7, [sp, #8]
 8007da2:	9503      	str	r5, [sp, #12]
 8007da4:	9404      	str	r4, [sp, #16]
 8007da6:	9605      	str	r6, [sp, #20]
 8007da8:	f8dc 4000 	ldr.w	r4, [ip]
 8007dac:	e053      	b.n	8007e56 <LCD__DrawBitmap_1bpp+0xe6>
 8007dae:	9f18      	ldr	r7, [sp, #96]	; 0x60
 8007db0:	9819      	ldr	r0, [sp, #100]	; 0x64
 8007db2:	ea47 0300 	orr.w	r3, r7, r0
 8007db6:	2b01      	cmp	r3, #1
 8007db8:	d14f      	bne.n	8007e5a <LCD__DrawBitmap_1bpp+0xea>
 8007dba:	4b5a      	ldr	r3, [pc, #360]	; (8007f24 <LCD__DrawBitmap_1bpp+0x1b4>)
 8007dbc:	6818      	ldr	r0, [r3, #0]
 8007dbe:	f9b0 200a 	ldrsh.w	r2, [r0, #10]
 8007dc2:	1a51      	subs	r1, r2, r1
 8007dc4:	2900      	cmp	r1, #0
 8007dc6:	dd08      	ble.n	8007dda <LCD__DrawBitmap_1bpp+0x6a>
 8007dc8:	ebc1 030b 	rsb	r3, r1, fp
 8007dcc:	2b00      	cmp	r3, #0
 8007dce:	f340 80a5 	ble.w	8007f1c <LCD__DrawBitmap_1bpp+0x1ac>
 8007dd2:	9f1b      	ldr	r7, [sp, #108]	; 0x6c
 8007dd4:	fb07 4401 	mla	r4, r7, r1, r4
 8007dd8:	e001      	b.n	8007dde <LCD__DrawBitmap_1bpp+0x6e>
 8007dda:	465b      	mov	r3, fp
 8007ddc:	4632      	mov	r2, r6
 8007dde:	445e      	add	r6, fp
 8007de0:	f9b0 100e 	ldrsh.w	r1, [r0, #14]
 8007de4:	3e01      	subs	r6, #1
 8007de6:	1a76      	subs	r6, r6, r1
 8007de8:	2e00      	cmp	r6, #0
 8007dea:	dd03      	ble.n	8007df4 <LCD__DrawBitmap_1bpp+0x84>
 8007dec:	1b9b      	subs	r3, r3, r6
 8007dee:	2b00      	cmp	r3, #0
 8007df0:	f340 8094 	ble.w	8007f1c <LCD__DrawBitmap_1bpp+0x1ac>
 8007df4:	9909      	ldr	r1, [sp, #36]	; 0x24
 8007df6:	f9b0 600c 	ldrsh.w	r6, [r0, #12]
 8007dfa:	4429      	add	r1, r5
 8007dfc:	3901      	subs	r1, #1
 8007dfe:	1b89      	subs	r1, r1, r6
 8007e00:	9e09      	ldr	r6, [sp, #36]	; 0x24
 8007e02:	2900      	cmp	r1, #0
 8007e04:	bfc8      	it	gt
 8007e06:	ebc1 0505 	rsbgt	r5, r1, r5
 8007e0a:	ebc8 0106 	rsb	r1, r8, r6
 8007e0e:	f9b0 6008 	ldrsh.w	r6, [r0, #8]
 8007e12:	42b1      	cmp	r1, r6
 8007e14:	da0c      	bge.n	8007e30 <LCD__DrawBitmap_1bpp+0xc0>
 8007e16:	ebc1 0c06 	rsb	ip, r1, r6
 8007e1a:	eb08 070c 	add.w	r7, r8, ip
 8007e1e:	1b8e      	subs	r6, r1, r6
 8007e20:	f02c 0c07 	bic.w	ip, ip, #7
 8007e24:	4435      	add	r5, r6
 8007e26:	eb04 04e7 	add.w	r4, r4, r7, asr #3
 8007e2a:	4461      	add	r1, ip
 8007e2c:	f007 0807 	and.w	r8, r7, #7
 8007e30:	2d00      	cmp	r5, #0
 8007e32:	dd73      	ble.n	8007f1c <LCD__DrawBitmap_1bpp+0x1ac>
 8007e34:	7c46      	ldrb	r6, [r0, #17]
 8007e36:	483c      	ldr	r0, [pc, #240]	; (8007f28 <LCD__DrawBitmap_1bpp+0x1b8>)
 8007e38:	9f1a      	ldr	r7, [sp, #104]	; 0x68
 8007e3a:	f850 0026 	ldr.w	r0, [r0, r6, lsl #2]
 8007e3e:	68c6      	ldr	r6, [r0, #12]
 8007e40:	9701      	str	r7, [sp, #4]
 8007e42:	9403      	str	r4, [sp, #12]
 8007e44:	9f1b      	ldr	r7, [sp, #108]	; 0x6c
 8007e46:	9c1d      	ldr	r4, [sp, #116]	; 0x74
 8007e48:	9300      	str	r3, [sp, #0]
 8007e4a:	9702      	str	r7, [sp, #8]
 8007e4c:	f8cd 8010 	str.w	r8, [sp, #16]
 8007e50:	9405      	str	r4, [sp, #20]
 8007e52:	6874      	ldr	r4, [r6, #4]
 8007e54:	462b      	mov	r3, r5
 8007e56:	47a0      	blx	r4
 8007e58:	e060      	b.n	8007f1c <LCD__DrawBitmap_1bpp+0x1ac>
 8007e5a:	9f1a      	ldr	r7, [sp, #104]	; 0x68
 8007e5c:	f1c7 0708 	rsb	r7, r7, #8
 8007e60:	970c      	str	r7, [sp, #48]	; 0x30
 8007e62:	46e0      	mov	r8, ip
 8007e64:	4667      	mov	r7, ip
 8007e66:	455f      	cmp	r7, fp
 8007e68:	da58      	bge.n	8007f1c <LCD__DrawBitmap_1bpp+0x1ac>
 8007e6a:	4b2e      	ldr	r3, [pc, #184]	; (8007f24 <LCD__DrawBitmap_1bpp+0x1b4>)
 8007e6c:	9819      	ldr	r0, [sp, #100]	; 0x64
 8007e6e:	681b      	ldr	r3, [r3, #0]
 8007e70:	4430      	add	r0, r6
 8007e72:	f9b3 200a 	ldrsh.w	r2, [r3, #10]
 8007e76:	900a      	str	r0, [sp, #40]	; 0x28
 8007e78:	1e41      	subs	r1, r0, #1
 8007e7a:	4291      	cmp	r1, r2
 8007e7c:	910b      	str	r1, [sp, #44]	; 0x2c
 8007e7e:	db48      	blt.n	8007f12 <LCD__DrawBitmap_1bpp+0x1a2>
 8007e80:	f9b3 300e 	ldrsh.w	r3, [r3, #14]
 8007e84:	429e      	cmp	r6, r3
 8007e86:	dc44      	bgt.n	8007f12 <LCD__DrawBitmap_1bpp+0x1a2>
 8007e88:	f04f 0900 	mov.w	r9, #0
 8007e8c:	f8dd a024 	ldr.w	sl, [sp, #36]	; 0x24
 8007e90:	9408      	str	r4, [sp, #32]
 8007e92:	46cc      	mov	ip, r9
 8007e94:	45a9      	cmp	r9, r5
 8007e96:	da3c      	bge.n	8007f12 <LCD__DrawBitmap_1bpp+0x1a2>
 8007e98:	f1bc 0f00 	cmp.w	ip, #0
 8007e9c:	d106      	bne.n	8007eac <LCD__DrawBitmap_1bpp+0x13c>
 8007e9e:	9a08      	ldr	r2, [sp, #32]
 8007ea0:	f892 8000 	ldrb.w	r8, [r2]
 8007ea4:	3201      	adds	r2, #1
 8007ea6:	9208      	str	r2, [sp, #32]
 8007ea8:	f04f 0c08 	mov.w	ip, #8
 8007eac:	980c      	ldr	r0, [sp, #48]	; 0x30
 8007eae:	991a      	ldr	r1, [sp, #104]	; 0x68
 8007eb0:	4a1c      	ldr	r2, [pc, #112]	; (8007f24 <LCD__DrawBitmap_1bpp+0x1b4>)
 8007eb2:	fa48 f300 	asr.w	r3, r8, r0
 8007eb6:	ebc1 0c0c 	rsb	ip, r1, ip
 8007eba:	fa08 f801 	lsl.w	r8, r8, r1
 8007ebe:	f013 01ff 	ands.w	r1, r3, #255	; 0xff
 8007ec2:	fa5f f888 	uxtb.w	r8, r8
 8007ec6:	d103      	bne.n	8007ed0 <LCD__DrawBitmap_1bpp+0x160>
 8007ec8:	6810      	ldr	r0, [r2, #0]
 8007eca:	7c00      	ldrb	r0, [r0, #16]
 8007ecc:	0780      	lsls	r0, r0, #30
 8007ece:	d41b      	bmi.n	8007f08 <LCD__DrawBitmap_1bpp+0x198>
 8007ed0:	6812      	ldr	r2, [r2, #0]
 8007ed2:	6bd2      	ldr	r2, [r2, #60]	; 0x3c
 8007ed4:	6810      	ldr	r0, [r2, #0]
 8007ed6:	900d      	str	r0, [sp, #52]	; 0x34
 8007ed8:	981d      	ldr	r0, [sp, #116]	; 0x74
 8007eda:	b110      	cbz	r0, 8007ee2 <LCD__DrawBitmap_1bpp+0x172>
 8007edc:	f850 3021 	ldr.w	r3, [r0, r1, lsl #2]
 8007ee0:	e000      	b.n	8007ee4 <LCD__DrawBitmap_1bpp+0x174>
 8007ee2:	b2db      	uxtb	r3, r3
 8007ee4:	9918      	ldr	r1, [sp, #96]	; 0x60
 8007ee6:	6013      	str	r3, [r2, #0]
 8007ee8:	1e4a      	subs	r2, r1, #1
 8007eea:	4452      	add	r2, sl
 8007eec:	9b0b      	ldr	r3, [sp, #44]	; 0x2c
 8007eee:	f8cd c01c 	str.w	ip, [sp, #28]
 8007ef2:	4650      	mov	r0, sl
 8007ef4:	4631      	mov	r1, r6
 8007ef6:	f7ff ff0f 	bl	8007d18 <LCD_FillRect>
 8007efa:	4b0a      	ldr	r3, [pc, #40]	; (8007f24 <LCD__DrawBitmap_1bpp+0x1b4>)
 8007efc:	9a0d      	ldr	r2, [sp, #52]	; 0x34
 8007efe:	681b      	ldr	r3, [r3, #0]
 8007f00:	f8dd c01c 	ldr.w	ip, [sp, #28]
 8007f04:	6bdb      	ldr	r3, [r3, #60]	; 0x3c
 8007f06:	601a      	str	r2, [r3, #0]
 8007f08:	9b18      	ldr	r3, [sp, #96]	; 0x60
 8007f0a:	f109 0901 	add.w	r9, r9, #1
 8007f0e:	449a      	add	sl, r3
 8007f10:	e7c0      	b.n	8007e94 <LCD__DrawBitmap_1bpp+0x124>
 8007f12:	9e1b      	ldr	r6, [sp, #108]	; 0x6c
 8007f14:	3701      	adds	r7, #1
 8007f16:	4434      	add	r4, r6
 8007f18:	9e0a      	ldr	r6, [sp, #40]	; 0x28
 8007f1a:	e7a4      	b.n	8007e66 <LCD__DrawBitmap_1bpp+0xf6>
 8007f1c:	b00f      	add	sp, #60	; 0x3c
 8007f1e:	e8bd 8ff0 	ldmia.w	sp!, {r4, r5, r6, r7, r8, r9, sl, fp, pc}
 8007f22:	bf00      	nop
 8007f24:	20000008 	.word	0x20000008
 8007f28:	20002e8c 	.word	0x20002e8c
 8007f2c:	20002e64 	.word	0x20002e64

08007f30 <LCD_DrawBitmap>:
 8007f30:	e92d 4ff0 	stmdb	sp!, {r4, r5, r6, r7, r8, r9, sl, fp, lr}
 8007f34:	f8df c208 	ldr.w	ip, [pc, #520]	; 8008140 <LCD_DrawBitmap+0x210>
 8007f38:	b091      	sub	sp, #68	; 0x44
 8007f3a:	f8dc c000 	ldr.w	ip, [ip]
 8007f3e:	9207      	str	r2, [sp, #28]
 8007f40:	4605      	mov	r5, r0
 8007f42:	4688      	mov	r8, r1
 8007f44:	469b      	mov	fp, r3
 8007f46:	9e1c      	ldr	r6, [sp, #112]	; 0x70
 8007f48:	9c1e      	ldr	r4, [sp, #120]	; 0x78
 8007f4a:	f1bc 0f00 	cmp.w	ip, #0
 8007f4e:	d00c      	beq.n	8007f6a <LCD_DrawBitmap+0x3a>
 8007f50:	9d1a      	ldr	r5, [sp, #104]	; 0x68
 8007f52:	9f1b      	ldr	r7, [sp, #108]	; 0x6c
 8007f54:	9500      	str	r5, [sp, #0]
 8007f56:	9701      	str	r7, [sp, #4]
 8007f58:	9d1d      	ldr	r5, [sp, #116]	; 0x74
 8007f5a:	9f1f      	ldr	r7, [sp, #124]	; 0x7c
 8007f5c:	9602      	str	r6, [sp, #8]
 8007f5e:	9503      	str	r5, [sp, #12]
 8007f60:	9404      	str	r4, [sp, #16]
 8007f62:	9705      	str	r7, [sp, #20]
 8007f64:	f8dc 4000 	ldr.w	r4, [ip]
 8007f68:	e081      	b.n	800806e <LCD_DrawBitmap+0x13e>
 8007f6a:	9f1a      	ldr	r7, [sp, #104]	; 0x68
 8007f6c:	981b      	ldr	r0, [sp, #108]	; 0x6c
 8007f6e:	ea47 0300 	orr.w	r3, r7, r0
 8007f72:	2b01      	cmp	r3, #1
 8007f74:	d17d      	bne.n	8008072 <LCD_DrawBitmap+0x142>
 8007f76:	4b70      	ldr	r3, [pc, #448]	; (8008138 <LCD_DrawBitmap+0x208>)
 8007f78:	6818      	ldr	r0, [r3, #0]
 8007f7a:	f9b0 200a 	ldrsh.w	r2, [r0, #10]
 8007f7e:	1a53      	subs	r3, r2, r1
 8007f80:	2b00      	cmp	r3, #0
 8007f82:	dd08      	ble.n	8007f96 <LCD_DrawBitmap+0x66>
 8007f84:	ebc3 010b 	rsb	r1, r3, fp
 8007f88:	2900      	cmp	r1, #0
 8007f8a:	f340 80d2 	ble.w	8008132 <LCD_DrawBitmap+0x202>
 8007f8e:	9f1d      	ldr	r7, [sp, #116]	; 0x74
 8007f90:	fb07 4403 	mla	r4, r7, r3, r4
 8007f94:	e001      	b.n	8007f9a <LCD_DrawBitmap+0x6a>
 8007f96:	4659      	mov	r1, fp
 8007f98:	4642      	mov	r2, r8
 8007f9a:	44d8      	add	r8, fp
 8007f9c:	f9b0 300e 	ldrsh.w	r3, [r0, #14]
 8007fa0:	f108 38ff 	add.w	r8, r8, #4294967295
 8007fa4:	ebc3 0808 	rsb	r8, r3, r8
 8007fa8:	f1b8 0f00 	cmp.w	r8, #0
 8007fac:	dd04      	ble.n	8007fb8 <LCD_DrawBitmap+0x88>
 8007fae:	ebc8 0101 	rsb	r1, r8, r1
 8007fb2:	2900      	cmp	r1, #0
 8007fb4:	f340 80bd 	ble.w	8008132 <LCD_DrawBitmap+0x202>
 8007fb8:	9b07      	ldr	r3, [sp, #28]
 8007fba:	f9b0 c00c 	ldrsh.w	ip, [r0, #12]
 8007fbe:	442b      	add	r3, r5
 8007fc0:	3b01      	subs	r3, #1
 8007fc2:	ebcc 0303 	rsb	r3, ip, r3
 8007fc6:	2b00      	cmp	r3, #0
 8007fc8:	dd02      	ble.n	8007fd0 <LCD_DrawBitmap+0xa0>
 8007fca:	9f07      	ldr	r7, [sp, #28]
 8007fcc:	1aff      	subs	r7, r7, r3
 8007fce:	9707      	str	r7, [sp, #28]
 8007fd0:	f9b0 c008 	ldrsh.w	ip, [r0, #8]
 8007fd4:	4565      	cmp	r5, ip
 8007fd6:	da33      	bge.n	8008040 <LCD_DrawBitmap+0x110>
 8007fd8:	9f07      	ldr	r7, [sp, #28]
 8007fda:	ebc5 030c 	rsb	r3, r5, ip
 8007fde:	1aff      	subs	r7, r7, r3
 8007fe0:	2e08      	cmp	r6, #8
 8007fe2:	9707      	str	r7, [sp, #28]
 8007fe4:	d027      	beq.n	8008036 <LCD_DrawBitmap+0x106>
 8007fe6:	dc0d      	bgt.n	8008004 <LCD_DrawBitmap+0xd4>
 8007fe8:	2e02      	cmp	r6, #2
 8007fea:	d014      	beq.n	8008016 <LCD_DrawBitmap+0xe6>
 8007fec:	2e04      	cmp	r6, #4
 8007fee:	d01a      	beq.n	8008026 <LCD_DrawBitmap+0xf6>
 8007ff0:	2e01      	cmp	r6, #1
 8007ff2:	d126      	bne.n	8008042 <LCD_DrawBitmap+0x112>
 8007ff4:	f023 0c07 	bic.w	ip, r3, #7
 8007ff8:	eb04 04e3 	add.w	r4, r4, r3, asr #3
 8007ffc:	4465      	add	r5, ip
 8007ffe:	f003 0307 	and.w	r3, r3, #7
 8008002:	e01e      	b.n	8008042 <LCD_DrawBitmap+0x112>
 8008004:	2e18      	cmp	r6, #24
 8008006:	d018      	beq.n	800803a <LCD_DrawBitmap+0x10a>
 8008008:	2e20      	cmp	r6, #32
 800800a:	d016      	beq.n	800803a <LCD_DrawBitmap+0x10a>
 800800c:	2e10      	cmp	r6, #16
 800800e:	d118      	bne.n	8008042 <LCD_DrawBitmap+0x112>
 8008010:	eb04 0443 	add.w	r4, r4, r3, lsl #1
 8008014:	e013      	b.n	800803e <LCD_DrawBitmap+0x10e>
 8008016:	f023 0c03 	bic.w	ip, r3, #3
 800801a:	eb04 04a3 	add.w	r4, r4, r3, asr #2
 800801e:	4465      	add	r5, ip
 8008020:	f003 0303 	and.w	r3, r3, #3
 8008024:	e00d      	b.n	8008042 <LCD_DrawBitmap+0x112>
 8008026:	f023 0c01 	bic.w	ip, r3, #1
 800802a:	eb04 0463 	add.w	r4, r4, r3, asr #1
 800802e:	4465      	add	r5, ip
 8008030:	f003 0301 	and.w	r3, r3, #1
 8008034:	e005      	b.n	8008042 <LCD_DrawBitmap+0x112>
 8008036:	441c      	add	r4, r3
 8008038:	e001      	b.n	800803e <LCD_DrawBitmap+0x10e>
 800803a:	eb04 0483 	add.w	r4, r4, r3, lsl #2
 800803e:	4665      	mov	r5, ip
 8008040:	2300      	movs	r3, #0
 8008042:	9f07      	ldr	r7, [sp, #28]
 8008044:	2f00      	cmp	r7, #0
 8008046:	dd74      	ble.n	8008132 <LCD_DrawBitmap+0x202>
 8008048:	f890 e011 	ldrb.w	lr, [r0, #17]
 800804c:	483b      	ldr	r0, [pc, #236]	; (800813c <LCD_DrawBitmap+0x20c>)
 800804e:	9f1d      	ldr	r7, [sp, #116]	; 0x74
 8008050:	f850 002e 	ldr.w	r0, [r0, lr, lsl #2]
 8008054:	f8d0 e00c 	ldr.w	lr, [r0, #12]
 8008058:	9403      	str	r4, [sp, #12]
 800805a:	e88d 0042 	stmia.w	sp, {r1, r6}
 800805e:	9c1f      	ldr	r4, [sp, #124]	; 0x7c
 8008060:	9304      	str	r3, [sp, #16]
 8008062:	9702      	str	r7, [sp, #8]
 8008064:	9405      	str	r4, [sp, #20]
 8008066:	f8de 4004 	ldr.w	r4, [lr, #4]
 800806a:	9b07      	ldr	r3, [sp, #28]
 800806c:	4629      	mov	r1, r5
 800806e:	47a0      	blx	r4
 8008070:	e05f      	b.n	8008132 <LCD_DrawBitmap+0x202>
 8008072:	f1c6 0708 	rsb	r7, r6, #8
 8008076:	970e      	str	r7, [sp, #56]	; 0x38
 8008078:	4667      	mov	r7, ip
 800807a:	45dc      	cmp	ip, fp
 800807c:	da59      	bge.n	8008132 <LCD_DrawBitmap+0x202>
 800807e:	4b2e      	ldr	r3, [pc, #184]	; (8008138 <LCD_DrawBitmap+0x208>)
 8008080:	981b      	ldr	r0, [sp, #108]	; 0x6c
 8008082:	681b      	ldr	r3, [r3, #0]
 8008084:	4440      	add	r0, r8
 8008086:	f9b3 200a 	ldrsh.w	r2, [r3, #10]
 800808a:	900c      	str	r0, [sp, #48]	; 0x30
 800808c:	1e41      	subs	r1, r0, #1
 800808e:	4291      	cmp	r1, r2
 8008090:	910d      	str	r1, [sp, #52]	; 0x34
 8008092:	db47      	blt.n	8008124 <LCD_DrawBitmap+0x1f4>
 8008094:	f9b3 300e 	ldrsh.w	r3, [r3, #14]
 8008098:	4598      	cmp	r8, r3
 800809a:	dc43      	bgt.n	8008124 <LCD_DrawBitmap+0x1f4>
 800809c:	f04f 0900 	mov.w	r9, #0
 80080a0:	940b      	str	r4, [sp, #44]	; 0x2c
 80080a2:	46aa      	mov	sl, r5
 80080a4:	f8cd 9028 	str.w	r9, [sp, #40]	; 0x28
 80080a8:	9807      	ldr	r0, [sp, #28]
 80080aa:	4581      	cmp	r9, r0
 80080ac:	da3a      	bge.n	8008124 <LCD_DrawBitmap+0x1f4>
 80080ae:	9a0a      	ldr	r2, [sp, #40]	; 0x28
 80080b0:	b92a      	cbnz	r2, 80080be <LCD_DrawBitmap+0x18e>
 80080b2:	9b0b      	ldr	r3, [sp, #44]	; 0x2c
 80080b4:	2008      	movs	r0, #8
 80080b6:	781f      	ldrb	r7, [r3, #0]
 80080b8:	900a      	str	r0, [sp, #40]	; 0x28
 80080ba:	3301      	adds	r3, #1
 80080bc:	930b      	str	r3, [sp, #44]	; 0x2c
 80080be:	990e      	ldr	r1, [sp, #56]	; 0x38
 80080c0:	fa07 f206 	lsl.w	r2, r7, r6
 80080c4:	fa47 f301 	asr.w	r3, r7, r1
 80080c8:	b2d7      	uxtb	r7, r2
 80080ca:	9a0a      	ldr	r2, [sp, #40]	; 0x28
 80080cc:	f013 01ff 	ands.w	r1, r3, #255	; 0xff
 80080d0:	ebc6 0202 	rsb	r2, r6, r2
 80080d4:	920a      	str	r2, [sp, #40]	; 0x28
 80080d6:	4a18      	ldr	r2, [pc, #96]	; (8008138 <LCD_DrawBitmap+0x208>)
 80080d8:	d103      	bne.n	80080e2 <LCD_DrawBitmap+0x1b2>
 80080da:	6810      	ldr	r0, [r2, #0]
 80080dc:	7c00      	ldrb	r0, [r0, #16]
 80080de:	0780      	lsls	r0, r0, #30
 80080e0:	d41b      	bmi.n	800811a <LCD_DrawBitmap+0x1ea>
 80080e2:	6812      	ldr	r2, [r2, #0]
 80080e4:	6bd2      	ldr	r2, [r2, #60]	; 0x3c
 80080e6:	6810      	ldr	r0, [r2, #0]
 80080e8:	900f      	str	r0, [sp, #60]	; 0x3c
 80080ea:	981f      	ldr	r0, [sp, #124]	; 0x7c
 80080ec:	b110      	cbz	r0, 80080f4 <LCD_DrawBitmap+0x1c4>
 80080ee:	f850 3021 	ldr.w	r3, [r0, r1, lsl #2]
 80080f2:	e000      	b.n	80080f6 <LCD_DrawBitmap+0x1c6>
 80080f4:	b2db      	uxtb	r3, r3
 80080f6:	991a      	ldr	r1, [sp, #104]	; 0x68
 80080f8:	6013      	str	r3, [r2, #0]
 80080fa:	1e4a      	subs	r2, r1, #1
 80080fc:	4452      	add	r2, sl
 80080fe:	9b0d      	ldr	r3, [sp, #52]	; 0x34
 8008100:	f8cd c020 	str.w	ip, [sp, #32]
 8008104:	4650      	mov	r0, sl
 8008106:	4641      	mov	r1, r8
 8008108:	f7ff fe06 	bl	8007d18 <LCD_FillRect>
 800810c:	4b0a      	ldr	r3, [pc, #40]	; (8008138 <LCD_DrawBitmap+0x208>)
 800810e:	9a0f      	ldr	r2, [sp, #60]	; 0x3c
 8008110:	681b      	ldr	r3, [r3, #0]
 8008112:	f8dd c020 	ldr.w	ip, [sp, #32]
 8008116:	6bdb      	ldr	r3, [r3, #60]	; 0x3c
 8008118:	601a      	str	r2, [r3, #0]
 800811a:	9b1a      	ldr	r3, [sp, #104]	; 0x68
 800811c:	f109 0901 	add.w	r9, r9, #1
 8008120:	449a      	add	sl, r3
 8008122:	e7c1      	b.n	80080a8 <LCD_DrawBitmap+0x178>
 8008124:	991d      	ldr	r1, [sp, #116]	; 0x74
 8008126:	f8dd 8030 	ldr.w	r8, [sp, #48]	; 0x30
 800812a:	f10c 0c01 	add.w	ip, ip, #1
 800812e:	440c      	add	r4, r1
 8008130:	e7a3      	b.n	800807a <LCD_DrawBitmap+0x14a>
 8008132:	b011      	add	sp, #68	; 0x44
 8008134:	e8bd 8ff0 	ldmia.w	sp!, {r4, r5, r6, r7, r8, r9, sl, fp, pc}
 8008138:	20000008 	.word	0x20000008
 800813c:	20002e8c 	.word	0x20002e8c
 8008140:	20002e64 	.word	0x20002e64

08008144 <LCD_SetClipRectMax>:
 8008144:	b508      	push	{r3, lr}
 8008146:	4b05      	ldr	r3, [pc, #20]	; (800815c <LCD_SetClipRectMax+0x18>)
 8008148:	6819      	ldr	r1, [r3, #0]
 800814a:	4b05      	ldr	r3, [pc, #20]	; (8008160 <LCD_SetClipRectMax+0x1c>)
 800814c:	7c4a      	ldrb	r2, [r1, #17]
 800814e:	f853 0022 	ldr.w	r0, [r3, r2, lsl #2]
 8008152:	68c3      	ldr	r3, [r0, #12]
 8008154:	3108      	adds	r1, #8
 8008156:	6b1b      	ldr	r3, [r3, #48]	; 0x30
 8008158:	4798      	blx	r3
 800815a:	bd08      	pop	{r3, pc}
 800815c:	20000008 	.word	0x20000008
 8008160:	20002e8c 	.word	0x20002e8c

08008164 <emWin_LCD_Init>:
 8008164:	b537      	push	{r0, r1, r2, r4, r5, lr}
 8008166:	f7ff ffed 	bl	8008144 <LCD_SetClipRectMax>
 800816a:	f002 fb89 	bl	800a880 <LCD_InitColors>
 800816e:	4604      	mov	r4, r0
 8008170:	2800      	cmp	r0, #0
 8008172:	d13d      	bne.n	80081f0 <emWin_LCD_Init+0x8c>
 8008174:	4605      	mov	r5, r0
 8008176:	4628      	mov	r0, r5
 8008178:	f000 fada 	bl	8008730 <GUI_DEVICE__GetpDriver>
 800817c:	9001      	str	r0, [sp, #4]
 800817e:	b148      	cbz	r0, 8008194 <emWin_LCD_Init+0x30>
 8008180:	68c3      	ldr	r3, [r0, #12]
 8008182:	210c      	movs	r1, #12
 8008184:	6a5b      	ldr	r3, [r3, #36]	; 0x24
 8008186:	a801      	add	r0, sp, #4
 8008188:	4798      	blx	r3
 800818a:	4603      	mov	r3, r0
 800818c:	b370      	cbz	r0, 80081ec <emWin_LCD_Init+0x88>
 800818e:	9801      	ldr	r0, [sp, #4]
 8008190:	4798      	blx	r3
 8008192:	4304      	orrs	r4, r0
 8008194:	3501      	adds	r5, #1
 8008196:	2d02      	cmp	r5, #2
 8008198:	d1ed      	bne.n	8008176 <emWin_LCD_Init+0x12>
 800819a:	bb4c      	cbnz	r4, 80081f0 <emWin_LCD_Init+0x8c>
 800819c:	f002 fb8c 	bl	800a8b8 <LCD_InitLUT>
 80081a0:	2401      	movs	r4, #1
 80081a2:	4620      	mov	r0, r4
 80081a4:	f000 fac4 	bl	8008730 <GUI_DEVICE__GetpDriver>
 80081a8:	9001      	str	r0, [sp, #4]
 80081aa:	b1d0      	cbz	r0, 80081e2 <emWin_LCD_Init+0x7e>
 80081ac:	4620      	mov	r0, r4
 80081ae:	f000 f999 	bl	80084e4 <GUI_SelectLayer>
 80081b2:	2004      	movs	r0, #4
 80081b4:	f7ff fd54 	bl	8007c60 <LCD_SetDrawMode>
 80081b8:	f643 72ff 	movw	r2, #16383	; 0x3fff
 80081bc:	2000      	movs	r0, #0
 80081be:	4601      	mov	r1, r0
 80081c0:	4613      	mov	r3, r2
 80081c2:	f7ff fda9 	bl	8007d18 <LCD_FillRect>
 80081c6:	2000      	movs	r0, #0
 80081c8:	f7ff fd4a 	bl	8007c60 <LCD_SetDrawMode>
 80081cc:	a802      	add	r0, sp, #8
 80081ce:	210e      	movs	r1, #14
 80081d0:	f850 3d04 	ldr.w	r3, [r0, #-4]!
 80081d4:	68db      	ldr	r3, [r3, #12]
 80081d6:	6a5b      	ldr	r3, [r3, #36]	; 0x24
 80081d8:	4798      	blx	r3
 80081da:	4603      	mov	r3, r0
 80081dc:	b108      	cbz	r0, 80081e2 <emWin_LCD_Init+0x7e>
 80081de:	9801      	ldr	r0, [sp, #4]
 80081e0:	4798      	blx	r3
 80081e2:	f114 34ff 	adds.w	r4, r4, #4294967295
 80081e6:	d2dc      	bcs.n	80081a2 <emWin_LCD_Init+0x3e>
 80081e8:	2000      	movs	r0, #0
 80081ea:	e002      	b.n	80081f2 <emWin_LCD_Init+0x8e>
 80081ec:	2001      	movs	r0, #1
 80081ee:	e000      	b.n	80081f2 <emWin_LCD_Init+0x8e>
 80081f0:	4620      	mov	r0, r4
 80081f2:	b003      	add	sp, #12
 80081f4:	bd30      	pop	{r4, r5, pc}
	...

080081f8 <LCD_Color2Index>:
 80081f8:	b508      	push	{r3, lr}
 80081fa:	4b05      	ldr	r3, [pc, #20]	; (8008210 <LCD_Color2Index+0x18>)
 80081fc:	681b      	ldr	r3, [r3, #0]
 80081fe:	7c5a      	ldrb	r2, [r3, #17]
 8008200:	4b04      	ldr	r3, [pc, #16]	; (8008214 <LCD_Color2Index+0x1c>)
 8008202:	f853 3022 	ldr.w	r3, [r3, r2, lsl #2]
 8008206:	691b      	ldr	r3, [r3, #16]
 8008208:	681b      	ldr	r3, [r3, #0]
 800820a:	4798      	blx	r3
 800820c:	bd08      	pop	{r3, pc}
 800820e:	bf00      	nop
 8008210:	20000008 	.word	0x20000008
 8008214:	20002e8c 	.word	0x20002e8c

08008218 <LCD_Index2Color>:
 8008218:	b508      	push	{r3, lr}
 800821a:	4b05      	ldr	r3, [pc, #20]	; (8008230 <LCD_Index2Color+0x18>)
 800821c:	681b      	ldr	r3, [r3, #0]
 800821e:	7c5a      	ldrb	r2, [r3, #17]
 8008220:	4b04      	ldr	r3, [pc, #16]	; (8008234 <LCD_Index2Color+0x1c>)
 8008222:	f853 3022 	ldr.w	r3, [r3, r2, lsl #2]
 8008226:	691b      	ldr	r3, [r3, #16]
 8008228:	685b      	ldr	r3, [r3, #4]
 800822a:	4798      	blx	r3
 800822c:	bd08      	pop	{r3, pc}
 800822e:	bf00      	nop
 8008230:	20000008 	.word	0x20000008
 8008234:	20002e8c 	.word	0x20002e8c

08008238 <LCD_SetColorIndex>:
 8008238:	4b04      	ldr	r3, [pc, #16]	; (800824c <LCD_SetColorIndex+0x14>)
 800823a:	681b      	ldr	r3, [r3, #0]
 800823c:	7c1a      	ldrb	r2, [r3, #16]
 800823e:	0752      	lsls	r2, r2, #29
 8008240:	bf4c      	ite	mi
 8008242:	6b9b      	ldrmi	r3, [r3, #56]	; 0x38
 8008244:	6bdb      	ldrpl	r3, [r3, #60]	; 0x3c
 8008246:	6018      	str	r0, [r3, #0]
 8008248:	4770      	bx	lr
 800824a:	bf00      	nop
 800824c:	20000008 	.word	0x20000008

08008250 <_SetColor>:
 8008250:	b508      	push	{r3, lr}
 8008252:	4b06      	ldr	r3, [pc, #24]	; (800826c <_SetColor+0x1c>)
 8008254:	681b      	ldr	r3, [r3, #0]
 8008256:	6b19      	ldr	r1, [r3, #48]	; 0x30
 8008258:	4281      	cmp	r1, r0
 800825a:	d006      	beq.n	800826a <_SetColor+0x1a>
 800825c:	6318      	str	r0, [r3, #48]	; 0x30
 800825e:	f7ff ffcb 	bl	80081f8 <LCD_Color2Index>
 8008262:	e8bd 4008 	ldmia.w	sp!, {r3, lr}
 8008266:	f7ff bfe7 	b.w	8008238 <LCD_SetColorIndex>
 800826a:	bd08      	pop	{r3, pc}
 800826c:	20000008 	.word	0x20000008

08008270 <LCD_SetBkColorIndex>:
 8008270:	4b04      	ldr	r3, [pc, #16]	; (8008284 <LCD_SetBkColorIndex+0x14>)
 8008272:	681b      	ldr	r3, [r3, #0]
 8008274:	7c1a      	ldrb	r2, [r3, #16]
 8008276:	0752      	lsls	r2, r2, #29
 8008278:	bf4c      	ite	mi
 800827a:	6bdb      	ldrmi	r3, [r3, #60]	; 0x3c
 800827c:	6b9b      	ldrpl	r3, [r3, #56]	; 0x38
 800827e:	6018      	str	r0, [r3, #0]
 8008280:	4770      	bx	lr
 8008282:	bf00      	nop
 8008284:	20000008 	.word	0x20000008

08008288 <_SetBkColor>:
 8008288:	b508      	push	{r3, lr}
 800828a:	4b06      	ldr	r3, [pc, #24]	; (80082a4 <_SetBkColor+0x1c>)
 800828c:	681b      	ldr	r3, [r3, #0]
 800828e:	6b59      	ldr	r1, [r3, #52]	; 0x34
 8008290:	4281      	cmp	r1, r0
 8008292:	d006      	beq.n	80082a2 <_SetBkColor+0x1a>
 8008294:	6358      	str	r0, [r3, #52]	; 0x34
 8008296:	f7ff ffaf 	bl	80081f8 <LCD_Color2Index>
 800829a:	e8bd 4008 	ldmia.w	sp!, {r3, lr}
 800829e:	f7ff bfe7 	b.w	8008270 <LCD_SetBkColorIndex>
 80082a2:	bd08      	pop	{r3, pc}
 80082a4:	20000008 	.word	0x20000008

080082a8 <LCD_SetBkColor>:
 80082a8:	b508      	push	{r3, lr}
 80082aa:	4b02      	ldr	r3, [pc, #8]	; (80082b4 <LCD_SetBkColor+0xc>)
 80082ac:	681b      	ldr	r3, [r3, #0]
 80082ae:	685b      	ldr	r3, [r3, #4]
 80082b0:	4798      	blx	r3
 80082b2:	bd08      	pop	{r3, pc}
 80082b4:	20000004 	.word	0x20000004

080082b8 <LCD_SetColor>:
 80082b8:	b508      	push	{r3, lr}
 80082ba:	4b02      	ldr	r3, [pc, #8]	; (80082c4 <LCD_SetColor+0xc>)
 80082bc:	681b      	ldr	r3, [r3, #0]
 80082be:	681b      	ldr	r3, [r3, #0]
 80082c0:	4798      	blx	r3
 80082c2:	bd08      	pop	{r3, pc}
 80082c4:	20000004 	.word	0x20000004

080082c8 <GUI__memset>:
 80082c8:	b570      	push	{r4, r5, r6, lr}
 80082ca:	b12a      	cbz	r2, 80082d8 <GUI__memset+0x10>
 80082cc:	0783      	lsls	r3, r0, #30
 80082ce:	d003      	beq.n	80082d8 <GUI__memset+0x10>
 80082d0:	f800 1b01 	strb.w	r1, [r0], #1
 80082d4:	3a01      	subs	r2, #1
 80082d6:	e7f8      	b.n	80082ca <GUI__memset+0x2>
 80082d8:	0893      	lsrs	r3, r2, #2
 80082da:	d101      	bne.n	80082e0 <GUI__memset+0x18>
 80082dc:	4402      	add	r2, r0
 80082de:	e017      	b.n	8008310 <GUI__memset+0x48>
 80082e0:	f04f 3401 	mov.w	r4, #16843009	; 0x1010101
 80082e4:	f002 0203 	and.w	r2, r2, #3
 80082e8:	434c      	muls	r4, r1
 80082ea:	2b03      	cmp	r3, #3
 80082ec:	4605      	mov	r5, r0
 80082ee:	dd06      	ble.n	80082fe <GUI__memset+0x36>
 80082f0:	6004      	str	r4, [r0, #0]
 80082f2:	6044      	str	r4, [r0, #4]
 80082f4:	6084      	str	r4, [r0, #8]
 80082f6:	60c4      	str	r4, [r0, #12]
 80082f8:	3b04      	subs	r3, #4
 80082fa:	3010      	adds	r0, #16
 80082fc:	e7f5      	b.n	80082ea <GUI__memset+0x22>
 80082fe:	461e      	mov	r6, r3
 8008300:	b11b      	cbz	r3, 800830a <GUI__memset+0x42>
 8008302:	f845 4b04 	str.w	r4, [r5], #4
 8008306:	3b01      	subs	r3, #1
 8008308:	e7fa      	b.n	8008300 <GUI__memset+0x38>
 800830a:	eb00 0086 	add.w	r0, r0, r6, lsl #2
 800830e:	e7e5      	b.n	80082dc <GUI__memset+0x14>
 8008310:	4290      	cmp	r0, r2
 8008312:	d002      	beq.n	800831a <GUI__memset+0x52>
 8008314:	f800 1b01 	strb.w	r1, [r0], #1
 8008318:	e7fa      	b.n	8008310 <GUI__memset+0x48>
 800831a:	bd70      	pop	{r4, r5, r6, pc}

0800831c <GUI__ManageCacheEx>:
 800831c:	2801      	cmp	r0, #1
 800831e:	b5f7      	push	{r0, r1, r2, r4, r5, r6, r7, lr}
 8008320:	4604      	mov	r4, r0
 8008322:	460d      	mov	r5, r1
 8008324:	dc5e      	bgt.n	80083e4 <GUI__ManageCacheEx+0xc8>
 8008326:	2901      	cmp	r1, #1
 8008328:	d004      	beq.n	8008334 <GUI__ManageCacheEx+0x18>
 800832a:	2902      	cmp	r1, #2
 800832c:	d020      	beq.n	8008370 <GUI__ManageCacheEx+0x54>
 800832e:	2900      	cmp	r1, #0
 8008330:	d158      	bne.n	80083e4 <GUI__ManageCacheEx+0xc8>
 8008332:	e033      	b.n	800839c <GUI__ManageCacheEx+0x80>
 8008334:	4e2d      	ldr	r6, [pc, #180]	; (80083ec <GUI__ManageCacheEx+0xd0>)
 8008336:	f856 7020 	ldr.w	r7, [r6, r0, lsl #2]
 800833a:	b9af      	cbnz	r7, 8008368 <GUI__ManageCacheEx+0x4c>
 800833c:	f000 f9f8 	bl	8008730 <GUI_DEVICE__GetpDriver>
 8008340:	9001      	str	r0, [sp, #4]
 8008342:	2800      	cmp	r0, #0
 8008344:	d04e      	beq.n	80083e4 <GUI__ManageCacheEx+0xc8>
 8008346:	68c3      	ldr	r3, [r0, #12]
 8008348:	210d      	movs	r1, #13
 800834a:	6a5b      	ldr	r3, [r3, #36]	; 0x24
 800834c:	a801      	add	r0, sp, #4
 800834e:	4798      	blx	r3
 8008350:	4603      	mov	r3, r0
 8008352:	2800      	cmp	r0, #0
 8008354:	d046      	beq.n	80083e4 <GUI__ManageCacheEx+0xc8>
 8008356:	9801      	ldr	r0, [sp, #4]
 8008358:	4629      	mov	r1, r5
 800835a:	4798      	blx	r3
 800835c:	f856 3024 	ldr.w	r3, [r6, r4, lsl #2]
 8008360:	3301      	adds	r3, #1
 8008362:	f846 3024 	str.w	r3, [r6, r4, lsl #2]
 8008366:	e017      	b.n	8008398 <GUI__ManageCacheEx+0x7c>
 8008368:	3701      	adds	r7, #1
 800836a:	f846 7020 	str.w	r7, [r6, r0, lsl #2]
 800836e:	e039      	b.n	80083e4 <GUI__ManageCacheEx+0xc8>
 8008370:	f000 f9de 	bl	8008730 <GUI_DEVICE__GetpDriver>
 8008374:	9001      	str	r0, [sp, #4]
 8008376:	2800      	cmp	r0, #0
 8008378:	d034      	beq.n	80083e4 <GUI__ManageCacheEx+0xc8>
 800837a:	68c3      	ldr	r3, [r0, #12]
 800837c:	210d      	movs	r1, #13
 800837e:	6a5b      	ldr	r3, [r3, #36]	; 0x24
 8008380:	a801      	add	r0, sp, #4
 8008382:	4798      	blx	r3
 8008384:	4604      	mov	r4, r0
 8008386:	2800      	cmp	r0, #0
 8008388:	d02c      	beq.n	80083e4 <GUI__ManageCacheEx+0xc8>
 800838a:	4b19      	ldr	r3, [pc, #100]	; (80083f0 <GUI__ManageCacheEx+0xd4>)
 800838c:	681b      	ldr	r3, [r3, #0]
 800838e:	b103      	cbz	r3, 8008392 <GUI__ManageCacheEx+0x76>
 8008390:	4798      	blx	r3
 8008392:	9801      	ldr	r0, [sp, #4]
 8008394:	2102      	movs	r1, #2
 8008396:	47a0      	blx	r4
 8008398:	2000      	movs	r0, #0
 800839a:	e024      	b.n	80083e6 <GUI__ManageCacheEx+0xca>
 800839c:	4d13      	ldr	r5, [pc, #76]	; (80083ec <GUI__ManageCacheEx+0xd0>)
 800839e:	f855 3020 	ldr.w	r3, [r5, r0, lsl #2]
 80083a2:	2b01      	cmp	r3, #1
 80083a4:	d001      	beq.n	80083aa <GUI__ManageCacheEx+0x8e>
 80083a6:	2001      	movs	r0, #1
 80083a8:	e014      	b.n	80083d4 <GUI__ManageCacheEx+0xb8>
 80083aa:	f000 f9c1 	bl	8008730 <GUI_DEVICE__GetpDriver>
 80083ae:	9001      	str	r0, [sp, #4]
 80083b0:	2800      	cmp	r0, #0
 80083b2:	d0f8      	beq.n	80083a6 <GUI__ManageCacheEx+0x8a>
 80083b4:	68c3      	ldr	r3, [r0, #12]
 80083b6:	210d      	movs	r1, #13
 80083b8:	6a5b      	ldr	r3, [r3, #36]	; 0x24
 80083ba:	a801      	add	r0, sp, #4
 80083bc:	4798      	blx	r3
 80083be:	4606      	mov	r6, r0
 80083c0:	2800      	cmp	r0, #0
 80083c2:	d0f0      	beq.n	80083a6 <GUI__ManageCacheEx+0x8a>
 80083c4:	4b0a      	ldr	r3, [pc, #40]	; (80083f0 <GUI__ManageCacheEx+0xd4>)
 80083c6:	681b      	ldr	r3, [r3, #0]
 80083c8:	b103      	cbz	r3, 80083cc <GUI__ManageCacheEx+0xb0>
 80083ca:	4798      	blx	r3
 80083cc:	9801      	ldr	r0, [sp, #4]
 80083ce:	2100      	movs	r1, #0
 80083d0:	47b0      	blx	r6
 80083d2:	2000      	movs	r0, #0
 80083d4:	f855 3024 	ldr.w	r3, [r5, r4, lsl #2]
 80083d8:	2b00      	cmp	r3, #0
 80083da:	bf18      	it	ne
 80083dc:	3b01      	subne	r3, #1
 80083de:	f845 3024 	str.w	r3, [r5, r4, lsl #2]
 80083e2:	e000      	b.n	80083e6 <GUI__ManageCacheEx+0xca>
 80083e4:	2001      	movs	r0, #1
 80083e6:	b003      	add	sp, #12
 80083e8:	bdf0      	pop	{r4, r5, r6, r7, pc}
 80083ea:	bf00      	nop
 80083ec:	20000498 	.word	0x20000498
 80083f0:	20000494 	.word	0x20000494

080083f4 <GUI__ManageCache>:
 80083f4:	4b02      	ldr	r3, [pc, #8]	; (8008400 <GUI__ManageCache+0xc>)
 80083f6:	681b      	ldr	r3, [r3, #0]
 80083f8:	4601      	mov	r1, r0
 80083fa:	7c58      	ldrb	r0, [r3, #17]
 80083fc:	f7ff bf8e 	b.w	800831c <GUI__ManageCacheEx>
 8008400:	20000008 	.word	0x20000008

08008404 <GUI__IntersectRects>:
 8008404:	b570      	push	{r4, r5, r6, lr}
 8008406:	f9b2 3000 	ldrsh.w	r3, [r2]
 800840a:	f9b1 4000 	ldrsh.w	r4, [r1]
 800840e:	f9b1 5002 	ldrsh.w	r5, [r1, #2]
 8008412:	f9b1 6004 	ldrsh.w	r6, [r1, #4]
 8008416:	f9b1 1006 	ldrsh.w	r1, [r1, #6]
 800841a:	429c      	cmp	r4, r3
 800841c:	bfb8      	it	lt
 800841e:	461c      	movlt	r4, r3
 8008420:	f9b2 3002 	ldrsh.w	r3, [r2, #2]
 8008424:	429d      	cmp	r5, r3
 8008426:	bfa8      	it	ge
 8008428:	462b      	movge	r3, r5
 800842a:	f9b2 5004 	ldrsh.w	r5, [r2, #4]
 800842e:	f9b2 2006 	ldrsh.w	r2, [r2, #6]
 8008432:	42ae      	cmp	r6, r5
 8008434:	bfb8      	it	lt
 8008436:	4635      	movlt	r5, r6
 8008438:	b2a4      	uxth	r4, r4
 800843a:	b2ad      	uxth	r5, r5
 800843c:	4291      	cmp	r1, r2
 800843e:	bfb8      	it	lt
 8008440:	460a      	movlt	r2, r1
 8008442:	8004      	strh	r4, [r0, #0]
 8008444:	8085      	strh	r5, [r0, #4]
 8008446:	b224      	sxth	r4, r4
 8008448:	b22d      	sxth	r5, r5
 800844a:	b29b      	uxth	r3, r3
 800844c:	b292      	uxth	r2, r2
 800844e:	42a5      	cmp	r5, r4
 8008450:	8043      	strh	r3, [r0, #2]
 8008452:	80c2      	strh	r2, [r0, #6]
 8008454:	db06      	blt.n	8008464 <GUI__IntersectRects+0x60>
 8008456:	b210      	sxth	r0, r2
 8008458:	b21b      	sxth	r3, r3
 800845a:	4298      	cmp	r0, r3
 800845c:	bfb4      	ite	lt
 800845e:	2000      	movlt	r0, #0
 8008460:	2001      	movge	r0, #1
 8008462:	bd70      	pop	{r4, r5, r6, pc}
 8008464:	2000      	movs	r0, #0
 8008466:	bd70      	pop	{r4, r5, r6, pc}

08008468 <GUI__IntersectRect>:
 8008468:	880b      	ldrh	r3, [r1, #0]
 800846a:	b510      	push	{r4, lr}
 800846c:	f9b0 4000 	ldrsh.w	r4, [r0]
 8008470:	b21a      	sxth	r2, r3
 8008472:	4294      	cmp	r4, r2
 8008474:	bfb8      	it	lt
 8008476:	8003      	strhlt	r3, [r0, #0]
 8008478:	884b      	ldrh	r3, [r1, #2]
 800847a:	f9b0 4002 	ldrsh.w	r4, [r0, #2]
 800847e:	b21a      	sxth	r2, r3
 8008480:	4294      	cmp	r4, r2
 8008482:	bfb8      	it	lt
 8008484:	8043      	strhlt	r3, [r0, #2]
 8008486:	888b      	ldrh	r3, [r1, #4]
 8008488:	f9b0 4004 	ldrsh.w	r4, [r0, #4]
 800848c:	b21a      	sxth	r2, r3
 800848e:	4294      	cmp	r4, r2
 8008490:	bfc8      	it	gt
 8008492:	8083      	strhgt	r3, [r0, #4]
 8008494:	88cb      	ldrh	r3, [r1, #6]
 8008496:	f9b0 1006 	ldrsh.w	r1, [r0, #6]
 800849a:	b21a      	sxth	r2, r3
 800849c:	4291      	cmp	r1, r2
 800849e:	bfc8      	it	gt
 80084a0:	80c3      	strhgt	r3, [r0, #6]
 80084a2:	bd10      	pop	{r4, pc}

080084a4 <GUI_SignalEvent>:
 80084a4:	b508      	push	{r3, lr}
 80084a6:	4b02      	ldr	r3, [pc, #8]	; (80084b0 <GUI_SignalEvent+0xc>)
 80084a8:	681b      	ldr	r3, [r3, #0]
 80084aa:	b103      	cbz	r3, 80084ae <GUI_SignalEvent+0xa>
 80084ac:	4798      	blx	r3
 80084ae:	bd08      	pop	{r3, pc}
 80084b0:	200004a0 	.word	0x200004a0

080084b4 <GUI_SetTextMode>:
 80084b4:	4b03      	ldr	r3, [pc, #12]	; (80084c4 <GUI_SetTextMode+0x10>)
 80084b6:	681b      	ldr	r3, [r3, #0]
 80084b8:	f9b3 202a 	ldrsh.w	r2, [r3, #42]	; 0x2a
 80084bc:	8558      	strh	r0, [r3, #42]	; 0x2a
 80084be:	4610      	mov	r0, r2
 80084c0:	4770      	bx	lr
 80084c2:	bf00      	nop
 80084c4:	20000008 	.word	0x20000008

080084c8 <GUI_SetFont>:
 80084c8:	4b03      	ldr	r3, [pc, #12]	; (80084d8 <GUI_SetFont+0x10>)
 80084ca:	681b      	ldr	r3, [r3, #0]
 80084cc:	69d9      	ldr	r1, [r3, #28]
 80084ce:	b100      	cbz	r0, 80084d2 <GUI_SetFont+0xa>
 80084d0:	61d8      	str	r0, [r3, #28]
 80084d2:	4608      	mov	r0, r1
 80084d4:	4770      	bx	lr
 80084d6:	bf00      	nop
 80084d8:	20000008 	.word	0x20000008

080084dc <GUI_SetBkColor>:
 80084dc:	f7ff bee4 	b.w	80082a8 <LCD_SetBkColor>

080084e0 <GUI_SetColor>:
 80084e0:	f7ff beea 	b.w	80082b8 <LCD_SetColor>

080084e4 <GUI_SelectLayer>:
 80084e4:	b538      	push	{r3, r4, r5, lr}
 80084e6:	4b06      	ldr	r3, [pc, #24]	; (8008500 <GUI_SelectLayer+0x1c>)
 80084e8:	681b      	ldr	r3, [r3, #0]
 80084ea:	2801      	cmp	r0, #1
 80084ec:	4604      	mov	r4, r0
 80084ee:	7c5d      	ldrb	r5, [r3, #17]
 80084f0:	d802      	bhi.n	80084f8 <GUI_SelectLayer+0x14>
 80084f2:	7458      	strb	r0, [r3, #17]
 80084f4:	f000 f808 	bl	8008508 <GUI_SelectLCD>
 80084f8:	4b02      	ldr	r3, [pc, #8]	; (8008504 <GUI_SelectLayer+0x20>)
 80084fa:	4628      	mov	r0, r5
 80084fc:	601c      	str	r4, [r3, #0]
 80084fe:	bd38      	pop	{r3, r4, r5, pc}
 8008500:	20000008 	.word	0x20000008
 8008504:	20002e34 	.word	0x20002e34

08008508 <GUI_SelectLCD>:
 8008508:	b508      	push	{r3, lr}
 800850a:	f002 f98f 	bl	800a82c <LCD_SelectLCD>
 800850e:	f7ff fa7f 	bl	8007a10 <LCD_UpdateColorIndices>
 8008512:	e8bd 4008 	ldmia.w	sp!, {r3, lr}
 8008516:	f7fe b8ed 	b.w	80066f4 <WM_Activate>

0800851a <GUI_RectsIntersect>:
 800851a:	f9b0 2002 	ldrsh.w	r2, [r0, #2]
 800851e:	f9b1 3006 	ldrsh.w	r3, [r1, #6]
 8008522:	429a      	cmp	r2, r3
 8008524:	dc14      	bgt.n	8008550 <GUI_RectsIntersect+0x36>
 8008526:	f9b1 2002 	ldrsh.w	r2, [r1, #2]
 800852a:	f9b0 3006 	ldrsh.w	r3, [r0, #6]
 800852e:	429a      	cmp	r2, r3
 8008530:	dc0e      	bgt.n	8008550 <GUI_RectsIntersect+0x36>
 8008532:	f9b0 2000 	ldrsh.w	r2, [r0]
 8008536:	f9b1 3004 	ldrsh.w	r3, [r1, #4]
 800853a:	429a      	cmp	r2, r3
 800853c:	dc08      	bgt.n	8008550 <GUI_RectsIntersect+0x36>
 800853e:	f9b0 3004 	ldrsh.w	r3, [r0, #4]
 8008542:	f9b1 2000 	ldrsh.w	r2, [r1]
 8008546:	429a      	cmp	r2, r3
 8008548:	bfcc      	ite	gt
 800854a:	2000      	movgt	r0, #0
 800854c:	2001      	movle	r0, #1
 800854e:	4770      	bx	lr
 8008550:	2000      	movs	r0, #0
 8008552:	4770      	bx	lr

08008554 <GUI_StoreKey>:
 8008554:	4b02      	ldr	r3, [pc, #8]	; (8008560 <GUI_StoreKey+0xc>)
 8008556:	681a      	ldr	r2, [r3, #0]
 8008558:	b902      	cbnz	r2, 800855c <GUI_StoreKey+0x8>
 800855a:	6018      	str	r0, [r3, #0]
 800855c:	f7ff bfa2 	b.w	80084a4 <GUI_SignalEvent>
 8008560:	200004a4 	.word	0x200004a4

08008564 <GUI_MoveRect>:
 8008564:	b168      	cbz	r0, 8008582 <GUI_MoveRect+0x1e>
 8008566:	8803      	ldrh	r3, [r0, #0]
 8008568:	b289      	uxth	r1, r1
 800856a:	440b      	add	r3, r1
 800856c:	8003      	strh	r3, [r0, #0]
 800856e:	8883      	ldrh	r3, [r0, #4]
 8008570:	4419      	add	r1, r3
 8008572:	8843      	ldrh	r3, [r0, #2]
 8008574:	8081      	strh	r1, [r0, #4]
 8008576:	b292      	uxth	r2, r2
 8008578:	4413      	add	r3, r2
 800857a:	8043      	strh	r3, [r0, #2]
 800857c:	88c3      	ldrh	r3, [r0, #6]
 800857e:	441a      	add	r2, r3
 8008580:	80c2      	strh	r2, [r0, #6]
 8008582:	4770      	bx	lr

08008584 <GUI_MergeRect>:
 8008584:	b510      	push	{r4, lr}
 8008586:	b338      	cbz	r0, 80085d8 <GUI_MergeRect+0x54>
 8008588:	b309      	cbz	r1, 80085ce <GUI_MergeRect+0x4a>
 800858a:	b30a      	cbz	r2, 80085d0 <GUI_MergeRect+0x4c>
 800858c:	f9b1 4000 	ldrsh.w	r4, [r1]
 8008590:	f9b2 3000 	ldrsh.w	r3, [r2]
 8008594:	429c      	cmp	r4, r3
 8008596:	bfb8      	it	lt
 8008598:	4623      	movlt	r3, r4
 800859a:	8003      	strh	r3, [r0, #0]
 800859c:	f9b1 4002 	ldrsh.w	r4, [r1, #2]
 80085a0:	f9b2 3002 	ldrsh.w	r3, [r2, #2]
 80085a4:	429c      	cmp	r4, r3
 80085a6:	bfb8      	it	lt
 80085a8:	4623      	movlt	r3, r4
 80085aa:	8043      	strh	r3, [r0, #2]
 80085ac:	f9b1 4004 	ldrsh.w	r4, [r1, #4]
 80085b0:	f9b2 3004 	ldrsh.w	r3, [r2, #4]
 80085b4:	f9b1 1006 	ldrsh.w	r1, [r1, #6]
 80085b8:	429c      	cmp	r4, r3
 80085ba:	bfa8      	it	ge
 80085bc:	4623      	movge	r3, r4
 80085be:	8083      	strh	r3, [r0, #4]
 80085c0:	f9b2 3006 	ldrsh.w	r3, [r2, #6]
 80085c4:	4299      	cmp	r1, r3
 80085c6:	bfa8      	it	ge
 80085c8:	460b      	movge	r3, r1
 80085ca:	80c3      	strh	r3, [r0, #6]
 80085cc:	bd10      	pop	{r4, pc}
 80085ce:	4611      	mov	r1, r2
 80085d0:	680b      	ldr	r3, [r1, #0]
 80085d2:	6003      	str	r3, [r0, #0]
 80085d4:	684b      	ldr	r3, [r1, #4]
 80085d6:	6043      	str	r3, [r0, #4]
 80085d8:	bd10      	pop	{r4, pc}
	...

080085dc <GUI_GotoXY>:
 80085dc:	4b02      	ldr	r3, [pc, #8]	; (80085e8 <GUI_GotoXY+0xc>)
 80085de:	681b      	ldr	r3, [r3, #0]
 80085e0:	8458      	strh	r0, [r3, #34]	; 0x22
 80085e2:	8499      	strh	r1, [r3, #36]	; 0x24
 80085e4:	2000      	movs	r0, #0
 80085e6:	4770      	bx	lr
 80085e8:	20000008 	.word	0x20000008

080085ec <GUI_DispStringAt>:
 80085ec:	4b02      	ldr	r3, [pc, #8]	; (80085f8 <GUI_DispStringAt+0xc>)
 80085ee:	681b      	ldr	r3, [r3, #0]
 80085f0:	8459      	strh	r1, [r3, #34]	; 0x22
 80085f2:	849a      	strh	r2, [r3, #36]	; 0x24
 80085f4:	f000 b802 	b.w	80085fc <GUI_DispString>
 80085f8:	20000008 	.word	0x20000008

080085fc <GUI_DispString>:
 80085fc:	e92d 4ff7 	stmdb	sp!, {r0, r1, r2, r4, r5, r6, r7, r8, r9, sl, fp, lr}
 8008600:	4604      	mov	r4, r0
 8008602:	2800      	cmp	r0, #0
 8008604:	d079      	beq.n	80086fa <GUI_DispString+0xfe>
 8008606:	4d3e      	ldr	r5, [pc, #248]	; (8008700 <GUI_DispString+0x104>)
 8008608:	f000 fbca 	bl	8008da0 <GUI_GetFontDistY>
 800860c:	682b      	ldr	r3, [r5, #0]
 800860e:	4680      	mov	r8, r0
 8008610:	f8b3 9022 	ldrh.w	r9, [r3, #34]	; 0x22
 8008614:	f000 fbac 	bl	8008d70 <GUI_GetYAdjust>
 8008618:	682b      	ldr	r3, [r5, #0]
 800861a:	8c9a      	ldrh	r2, [r3, #36]	; 0x24
 800861c:	b287      	uxth	r7, r0
 800861e:	1bd2      	subs	r2, r2, r7
 8008620:	849a      	strh	r2, [r3, #36]	; 0x24
 8008622:	7823      	ldrb	r3, [r4, #0]
 8008624:	2b00      	cmp	r3, #0
 8008626:	d05d      	beq.n	80086e4 <GUI_DispString+0xe8>
 8008628:	f647 71ff 	movw	r1, #32767	; 0x7fff
 800862c:	4620      	mov	r0, r4
 800862e:	f000 faed 	bl	8008c0c <GUI__GetLineNumChars>
 8008632:	4606      	mov	r6, r0
 8008634:	4631      	mov	r1, r6
 8008636:	4620      	mov	r0, r4
 8008638:	f000 fb16 	bl	8008c68 <GUI__GetLineDistX>
 800863c:	682b      	ldr	r3, [r5, #0]
 800863e:	8d9a      	ldrh	r2, [r3, #44]	; 0x2c
 8008640:	f002 0203 	and.w	r2, r2, #3
 8008644:	2a01      	cmp	r2, #1
 8008646:	d005      	beq.n	8008654 <GUI_DispString+0x58>
 8008648:	2a02      	cmp	r2, #2
 800864a:	bf14      	ite	ne
 800864c:	2200      	movne	r2, #0
 800864e:	fb90 f2f2 	sdiveq	r2, r0, r2
 8008652:	e000      	b.n	8008656 <GUI_DispString+0x5a>
 8008654:	4602      	mov	r2, r0
 8008656:	8c59      	ldrh	r1, [r3, #34]	; 0x22
 8008658:	1a8a      	subs	r2, r1, r2
 800865a:	b292      	uxth	r2, r2
 800865c:	b291      	uxth	r1, r2
 800865e:	8459      	strh	r1, [r3, #34]	; 0x22
 8008660:	fa1f fa80 	uxth.w	sl, r0
 8008664:	8c9b      	ldrh	r3, [r3, #36]	; 0x24
 8008666:	f8ad 1000 	strh.w	r1, [sp]
 800866a:	f10a 31ff 	add.w	r1, sl, #4294967295
 800866e:	440a      	add	r2, r1
 8008670:	f8ad 3002 	strh.w	r3, [sp, #2]
 8008674:	fa1f fb88 	uxth.w	fp, r8
 8008678:	3b01      	subs	r3, #1
 800867a:	445b      	add	r3, fp
 800867c:	f8ad 2004 	strh.w	r2, [sp, #4]
 8008680:	4620      	mov	r0, r4
 8008682:	4631      	mov	r1, r6
 8008684:	466a      	mov	r2, sp
 8008686:	f8ad 3006 	strh.w	r3, [sp, #6]
 800868a:	f000 fb1d 	bl	8008cc8 <GUI__DispLine>
 800868e:	682b      	ldr	r3, [r5, #0]
 8008690:	f8bd 2002 	ldrh.w	r2, [sp, #2]
 8008694:	849a      	strh	r2, [r3, #36]	; 0x24
 8008696:	4620      	mov	r0, r4
 8008698:	4631      	mov	r1, r6
 800869a:	f002 fa4d 	bl	800ab38 <GUI_UC__NumChars2NumBytes>
 800869e:	5c23      	ldrb	r3, [r4, r0]
 80086a0:	2b0a      	cmp	r3, #10
 80086a2:	eb04 0200 	add.w	r2, r4, r0
 80086a6:	d001      	beq.n	80086ac <GUI_DispString+0xb0>
 80086a8:	2b0d      	cmp	r3, #13
 80086aa:	d112      	bne.n	80086d2 <GUI_DispString+0xd6>
 80086ac:	682b      	ldr	r3, [r5, #0]
 80086ae:	8d99      	ldrh	r1, [r3, #44]	; 0x2c
 80086b0:	f001 0103 	and.w	r1, r1, #3
 80086b4:	3901      	subs	r1, #1
 80086b6:	2901      	cmp	r1, #1
 80086b8:	bf8a      	itet	hi
 80086ba:	8c19      	ldrhhi	r1, [r3, #32]
 80086bc:	f8a3 9022 	strhls.w	r9, [r3, #34]	; 0x22
 80086c0:	8459      	strhhi	r1, [r3, #34]	; 0x22
 80086c2:	7811      	ldrb	r1, [r2, #0]
 80086c4:	290a      	cmp	r1, #10
 80086c6:	d10b      	bne.n	80086e0 <GUI_DispString+0xe4>
 80086c8:	8c99      	ldrh	r1, [r3, #36]	; 0x24
 80086ca:	448b      	add	fp, r1
 80086cc:	f8a3 b024 	strh.w	fp, [r3, #36]	; 0x24
 80086d0:	e006      	b.n	80086e0 <GUI_DispString+0xe4>
 80086d2:	4b0b      	ldr	r3, [pc, #44]	; (8008700 <GUI_DispString+0x104>)
 80086d4:	f8bd 0000 	ldrh.w	r0, [sp]
 80086d8:	681b      	ldr	r3, [r3, #0]
 80086da:	4482      	add	sl, r0
 80086dc:	f8a3 a022 	strh.w	sl, [r3, #34]	; 0x22
 80086e0:	7813      	ldrb	r3, [r2, #0]
 80086e2:	b943      	cbnz	r3, 80086f6 <GUI_DispString+0xfa>
 80086e4:	682b      	ldr	r3, [r5, #0]
 80086e6:	8c9a      	ldrh	r2, [r3, #36]	; 0x24
 80086e8:	4417      	add	r7, r2
 80086ea:	8d9a      	ldrh	r2, [r3, #44]	; 0x2c
 80086ec:	849f      	strh	r7, [r3, #36]	; 0x24
 80086ee:	f022 0203 	bic.w	r2, r2, #3
 80086f2:	859a      	strh	r2, [r3, #44]	; 0x2c
 80086f4:	e001      	b.n	80086fa <GUI_DispString+0xfe>
 80086f6:	1c54      	adds	r4, r2, #1
 80086f8:	e793      	b.n	8008622 <GUI_DispString+0x26>
 80086fa:	b003      	add	sp, #12
 80086fc:	e8bd 8ff0 	ldmia.w	sp!, {r4, r5, r6, r7, r8, r9, sl, fp, pc}
 8008700:	20000008 	.word	0x20000008

08008704 <_UnlinkDevice>:
 8008704:	4b09      	ldr	r3, [pc, #36]	; (800872c <_UnlinkDevice+0x28>)
 8008706:	6982      	ldr	r2, [r0, #24]
 8008708:	f853 1022 	ldr.w	r1, [r3, r2, lsl #2]
 800870c:	4281      	cmp	r1, r0
 800870e:	bf04      	itt	eq
 8008710:	6801      	ldreq	r1, [r0, #0]
 8008712:	f843 1022 	streq.w	r1, [r3, r2, lsl #2]
 8008716:	6843      	ldr	r3, [r0, #4]
 8008718:	b10b      	cbz	r3, 800871e <_UnlinkDevice+0x1a>
 800871a:	6802      	ldr	r2, [r0, #0]
 800871c:	601a      	str	r2, [r3, #0]
 800871e:	6802      	ldr	r2, [r0, #0]
 8008720:	b102      	cbz	r2, 8008724 <_UnlinkDevice+0x20>
 8008722:	6053      	str	r3, [r2, #4]
 8008724:	2300      	movs	r3, #0
 8008726:	6003      	str	r3, [r0, #0]
 8008728:	6043      	str	r3, [r0, #4]
 800872a:	4770      	bx	lr
 800872c:	20002e8c 	.word	0x20002e8c

08008730 <GUI_DEVICE__GetpDriver>:
 8008730:	2801      	cmp	r0, #1
 8008732:	dc09      	bgt.n	8008748 <GUI_DEVICE__GetpDriver+0x18>
 8008734:	4b05      	ldr	r3, [pc, #20]	; (800874c <GUI_DEVICE__GetpDriver+0x1c>)
 8008736:	f853 0020 	ldr.w	r0, [r3, r0, lsl #2]
 800873a:	b120      	cbz	r0, 8008746 <GUI_DEVICE__GetpDriver+0x16>
 800873c:	68c3      	ldr	r3, [r0, #12]
 800873e:	681b      	ldr	r3, [r3, #0]
 8008740:	b11b      	cbz	r3, 800874a <GUI_DEVICE__GetpDriver+0x1a>
 8008742:	6800      	ldr	r0, [r0, #0]
 8008744:	e7f9      	b.n	800873a <GUI_DEVICE__GetpDriver+0xa>
 8008746:	4770      	bx	lr
 8008748:	2000      	movs	r0, #0
 800874a:	4770      	bx	lr
 800874c:	20002e8c 	.word	0x20002e8c

08008750 <GUI_DEVICE_Delete>:
 8008750:	f000 bc28 	b.w	8008fa4 <GUI_ALLOC_FreeFixedBlock>

08008754 <GUI_DEVICE_Create>:
 8008754:	2b01      	cmp	r3, #1
 8008756:	b5f8      	push	{r3, r4, r5, r6, r7, lr}
 8008758:	4606      	mov	r6, r0
 800875a:	460d      	mov	r5, r1
 800875c:	4617      	mov	r7, r2
 800875e:	461c      	mov	r4, r3
 8008760:	dd01      	ble.n	8008766 <GUI_DEVICE_Create+0x12>
 8008762:	2000      	movs	r0, #0
 8008764:	bdf8      	pop	{r3, r4, r5, r6, r7, pc}
 8008766:	201c      	movs	r0, #28
 8008768:	f000 fd7c 	bl	8009264 <GUI_ALLOC_GetFixedBlock>
 800876c:	2800      	cmp	r0, #0
 800876e:	d0f8      	beq.n	8008762 <GUI_DEVICE_Create+0xe>
 8008770:	b10d      	cbz	r5, 8008776 <GUI_DEVICE_Create+0x22>
 8008772:	6105      	str	r5, [r0, #16]
 8008774:	e009      	b.n	800878a <GUI_DEVICE_Create+0x36>
 8008776:	4b09      	ldr	r3, [pc, #36]	; (800879c <GUI_DEVICE_Create+0x48>)
 8008778:	f853 1024 	ldr.w	r1, [r3, r4, lsl #2]
 800877c:	b129      	cbz	r1, 800878a <GUI_DEVICE_Create+0x36>
 800877e:	680b      	ldr	r3, [r1, #0]
 8008780:	b10b      	cbz	r3, 8008786 <GUI_DEVICE_Create+0x32>
 8008782:	4619      	mov	r1, r3
 8008784:	e7fb      	b.n	800877e <GUI_DEVICE_Create+0x2a>
 8008786:	690b      	ldr	r3, [r1, #16]
 8008788:	6103      	str	r3, [r0, #16]
 800878a:	2300      	movs	r3, #0
 800878c:	6083      	str	r3, [r0, #8]
 800878e:	6184      	str	r4, [r0, #24]
 8008790:	8287      	strh	r7, [r0, #20]
 8008792:	60c6      	str	r6, [r0, #12]
 8008794:	6003      	str	r3, [r0, #0]
 8008796:	6043      	str	r3, [r0, #4]
 8008798:	bdf8      	pop	{r3, r4, r5, r6, r7, pc}
 800879a:	bf00      	nop
 800879c:	20002e8c 	.word	0x20002e8c

080087a0 <GUI_DEVICE_Unlink>:
 80087a0:	f7ff bfb0 	b.w	8008704 <_UnlinkDevice>

080087a4 <GUI_DEVICE_Link>:
 80087a4:	b570      	push	{r4, r5, r6, lr}
 80087a6:	b338      	cbz	r0, 80087f8 <GUI_DEVICE_Link+0x54>
 80087a8:	6982      	ldr	r2, [r0, #24]
 80087aa:	2a01      	cmp	r2, #1
 80087ac:	dc24      	bgt.n	80087f8 <GUI_DEVICE_Link+0x54>
 80087ae:	4919      	ldr	r1, [pc, #100]	; (8008814 <GUI_DEVICE_Link+0x70>)
 80087b0:	f851 3022 	ldr.w	r3, [r1, r2, lsl #2]
 80087b4:	460d      	mov	r5, r1
 80087b6:	b913      	cbnz	r3, 80087be <GUI_DEVICE_Link+0x1a>
 80087b8:	f841 0022 	str.w	r0, [r1, r2, lsl #2]
 80087bc:	e01a      	b.n	80087f4 <GUI_DEVICE_Link+0x50>
 80087be:	6859      	ldr	r1, [r3, #4]
 80087c0:	b109      	cbz	r1, 80087c6 <GUI_DEVICE_Link+0x22>
 80087c2:	460b      	mov	r3, r1
 80087c4:	e7fb      	b.n	80087be <GUI_DEVICE_Link+0x1a>
 80087c6:	68c1      	ldr	r1, [r0, #12]
 80087c8:	680e      	ldr	r6, [r1, #0]
 80087ca:	68d9      	ldr	r1, [r3, #12]
 80087cc:	680c      	ldr	r4, [r1, #0]
 80087ce:	42b4      	cmp	r4, r6
 80087d0:	dd03      	ble.n	80087da <GUI_DEVICE_Link+0x36>
 80087d2:	681b      	ldr	r3, [r3, #0]
 80087d4:	2b00      	cmp	r3, #0
 80087d6:	d1f8      	bne.n	80087ca <GUI_DEVICE_Link+0x26>
 80087d8:	e00e      	b.n	80087f8 <GUI_DEVICE_Link+0x54>
 80087da:	d102      	bne.n	80087e2 <GUI_DEVICE_Link+0x3e>
 80087dc:	8a81      	ldrh	r1, [r0, #20]
 80087de:	2901      	cmp	r1, #1
 80087e0:	d011      	beq.n	8008806 <GUI_DEVICE_Link+0x62>
 80087e2:	6859      	ldr	r1, [r3, #4]
 80087e4:	b199      	cbz	r1, 800880e <GUI_DEVICE_Link+0x6a>
 80087e6:	6008      	str	r0, [r1, #0]
 80087e8:	6041      	str	r1, [r0, #4]
 80087ea:	6058      	str	r0, [r3, #4]
 80087ec:	4298      	cmp	r0, r3
 80087ee:	bf08      	it	eq
 80087f0:	2300      	moveq	r3, #0
 80087f2:	6003      	str	r3, [r0, #0]
 80087f4:	2000      	movs	r0, #0
 80087f6:	bd70      	pop	{r4, r5, r6, pc}
 80087f8:	2001      	movs	r0, #1
 80087fa:	bd70      	pop	{r4, r5, r6, pc}
 80087fc:	68cb      	ldr	r3, [r1, #12]
 80087fe:	681b      	ldr	r3, [r3, #0]
 8008800:	42a3      	cmp	r3, r4
 8008802:	460b      	mov	r3, r1
 8008804:	dbed      	blt.n	80087e2 <GUI_DEVICE_Link+0x3e>
 8008806:	6819      	ldr	r1, [r3, #0]
 8008808:	2900      	cmp	r1, #0
 800880a:	d1f7      	bne.n	80087fc <GUI_DEVICE_Link+0x58>
 800880c:	e7e9      	b.n	80087e2 <GUI_DEVICE_Link+0x3e>
 800880e:	f845 0022 	str.w	r0, [r5, r2, lsl #2]
 8008812:	e7ea      	b.n	80087ea <GUI_DEVICE_Link+0x46>
 8008814:	20002e8c 	.word	0x20002e8c

08008818 <GUI_DEVICE_CreateAndLink>:
 8008818:	b538      	push	{r3, r4, r5, lr}
 800881a:	461d      	mov	r5, r3
 800881c:	f7ff ff9a 	bl	8008754 <GUI_DEVICE_Create>
 8008820:	4604      	mov	r4, r0
 8008822:	b148      	cbz	r0, 8008838 <GUI_DEVICE_CreateAndLink+0x20>
 8008824:	f7ff ffbe 	bl	80087a4 <GUI_DEVICE_Link>
 8008828:	68e3      	ldr	r3, [r4, #12]
 800882a:	681b      	ldr	r3, [r3, #0]
 800882c:	b923      	cbnz	r3, 8008838 <GUI_DEVICE_CreateAndLink+0x20>
 800882e:	4b03      	ldr	r3, [pc, #12]	; (800883c <GUI_DEVICE_CreateAndLink+0x24>)
 8008830:	3516      	adds	r5, #22
 8008832:	681b      	ldr	r3, [r3, #0]
 8008834:	f843 4025 	str.w	r4, [r3, r5, lsl #2]
 8008838:	4620      	mov	r0, r4
 800883a:	bd38      	pop	{r3, r4, r5, pc}
 800883c:	20000008 	.word	0x20000008

08008840 <_OnExit>:
 8008840:	b510      	push	{r4, lr}
 8008842:	4b07      	ldr	r3, [pc, #28]	; (8008860 <_OnExit+0x20>)
 8008844:	4807      	ldr	r0, [pc, #28]	; (8008864 <_OnExit+0x24>)
 8008846:	2400      	movs	r4, #0
 8008848:	4621      	mov	r1, r4
 800884a:	2270      	movs	r2, #112	; 0x70
 800884c:	601c      	str	r4, [r3, #0]
 800884e:	f7ff fd3b 	bl	80082c8 <GUI__memset>
 8008852:	4621      	mov	r1, r4
 8008854:	4804      	ldr	r0, [pc, #16]	; (8008868 <_OnExit+0x28>)
 8008856:	2208      	movs	r2, #8
 8008858:	e8bd 4010 	ldmia.w	sp!, {r4, lr}
 800885c:	f7ff bd34 	b.w	80082c8 <GUI__memset>
 8008860:	20000524 	.word	0x20000524
 8008864:	200004b4 	.word	0x200004b4
 8008868:	20002e8c 	.word	0x20002e8c

0800886c <_InitContext>:
 800886c:	b538      	push	{r3, r4, r5, lr}
 800886e:	4d19      	ldr	r5, [pc, #100]	; (80088d4 <_InitContext+0x68>)
 8008870:	682b      	ldr	r3, [r5, #0]
 8008872:	1d1a      	adds	r2, r3, #4
 8008874:	63da      	str	r2, [r3, #60]	; 0x3c
 8008876:	f103 0208 	add.w	r2, r3, #8
 800887a:	639b      	str	r3, [r3, #56]	; 0x38
 800887c:	641b      	str	r3, [r3, #64]	; 0x40
 800887e:	6142      	str	r2, [r0, #20]
 8008880:	7c5a      	ldrb	r2, [r3, #17]
 8008882:	4b15      	ldr	r3, [pc, #84]	; (80088d8 <_InitContext+0x6c>)
 8008884:	4604      	mov	r4, r0
 8008886:	f853 0022 	ldr.w	r0, [r3, r2, lsl #2]
 800888a:	68c3      	ldr	r3, [r0, #12]
 800888c:	f104 0108 	add.w	r1, r4, #8
 8008890:	6b1b      	ldr	r3, [r3, #48]	; 0x30
 8008892:	4798      	blx	r3
 8008894:	4b11      	ldr	r3, [pc, #68]	; (80088dc <_InitContext+0x70>)
 8008896:	6663      	str	r3, [r4, #100]	; 0x64
 8008898:	4b11      	ldr	r3, [pc, #68]	; (80088e0 <_InitContext+0x74>)
 800889a:	681b      	ldr	r3, [r3, #0]
 800889c:	61e3      	str	r3, [r4, #28]
 800889e:	682b      	ldr	r3, [r5, #0]
 80088a0:	3308      	adds	r3, #8
 80088a2:	6163      	str	r3, [r4, #20]
 80088a4:	2301      	movs	r3, #1
 80088a6:	7623      	strb	r3, [r4, #24]
 80088a8:	f000 fe6a 	bl	8009580 <WM_GetDesktopWindow>
 80088ac:	2303      	movs	r3, #3
 80088ae:	f884 3068 	strb.w	r3, [r4, #104]	; 0x68
 80088b2:	f06f 4370 	mvn.w	r3, #4026531840	; 0xf0000000
 80088b6:	6323      	str	r3, [r4, #48]	; 0x30
 80088b8:	6363      	str	r3, [r4, #52]	; 0x34
 80088ba:	64a0      	str	r0, [r4, #72]	; 0x48
 80088bc:	2000      	movs	r0, #0
 80088be:	f7ff fcf3 	bl	80082a8 <LCD_SetBkColor>
 80088c2:	f06f 407f 	mvn.w	r0, #4278190080	; 0xff000000
 80088c6:	f7ff fcf7 	bl	80082b8 <LCD_SetColor>
 80088ca:	4b06      	ldr	r3, [pc, #24]	; (80088e4 <_InitContext+0x78>)
 80088cc:	4a06      	ldr	r2, [pc, #24]	; (80088e8 <_InitContext+0x7c>)
 80088ce:	601a      	str	r2, [r3, #0]
 80088d0:	bd38      	pop	{r3, r4, r5, pc}
 80088d2:	bf00      	nop
 80088d4:	20000008 	.word	0x20000008
 80088d8:	20002e8c 	.word	0x20002e8c
 80088dc:	0800c774 	.word	0x0800c774
 80088e0:	2000000c 	.word	0x2000000c
 80088e4:	20002e84 	.word	0x20002e84
 80088e8:	0800e400 	.word	0x0800e400

080088ec <GUI_ClearRect>:
 80088ec:	e92d 47f3 	stmdb	sp!, {r0, r1, r4, r5, r6, r7, r8, r9, sl, lr}
 80088f0:	4607      	mov	r7, r0
 80088f2:	2004      	movs	r0, #4
 80088f4:	469a      	mov	sl, r3
 80088f6:	460e      	mov	r6, r1
 80088f8:	4691      	mov	r9, r2
 80088fa:	f7ff f9b1 	bl	8007c60 <LCD_SetDrawMode>
 80088fe:	4b13      	ldr	r3, [pc, #76]	; (800894c <GUI_ClearRect+0x60>)
 8008900:	681c      	ldr	r4, [r3, #0]
 8008902:	6ce5      	ldr	r5, [r4, #76]	; 0x4c
 8008904:	6d24      	ldr	r4, [r4, #80]	; 0x50
 8008906:	442f      	add	r7, r5
 8008908:	4426      	add	r6, r4
 800890a:	4680      	mov	r8, r0
 800890c:	444d      	add	r5, r9
 800890e:	4454      	add	r4, sl
 8008910:	4668      	mov	r0, sp
 8008912:	f8ad 7000 	strh.w	r7, [sp]
 8008916:	f8ad 5004 	strh.w	r5, [sp, #4]
 800891a:	f8ad 6002 	strh.w	r6, [sp, #2]
 800891e:	f8ad 4006 	strh.w	r4, [sp, #6]
 8008922:	f7fd fe69 	bl	80065f8 <WM__InitIVRSearch>
 8008926:	b928      	cbnz	r0, 8008934 <GUI_ClearRect+0x48>
 8008928:	4640      	mov	r0, r8
 800892a:	f7ff f999 	bl	8007c60 <LCD_SetDrawMode>
 800892e:	b002      	add	sp, #8
 8008930:	e8bd 87f0 	ldmia.w	sp!, {r4, r5, r6, r7, r8, r9, sl, pc}
 8008934:	4638      	mov	r0, r7
 8008936:	4631      	mov	r1, r6
 8008938:	462a      	mov	r2, r5
 800893a:	4623      	mov	r3, r4
 800893c:	f7ff f9ec 	bl	8007d18 <LCD_FillRect>
 8008940:	f7fd fd98 	bl	8006474 <WM__GetNextIVR>
 8008944:	2800      	cmp	r0, #0
 8008946:	d1f5      	bne.n	8008934 <GUI_ClearRect+0x48>
 8008948:	e7ee      	b.n	8008928 <GUI_ClearRect+0x3c>
 800894a:	bf00      	nop
 800894c:	20000008 	.word	0x20000008

08008950 <GUI_Clear>:
 8008950:	b510      	push	{r4, lr}
 8008952:	2000      	movs	r0, #0
 8008954:	4601      	mov	r1, r0
 8008956:	f7ff fe41 	bl	80085dc <GUI_GotoXY>
 800895a:	4804      	ldr	r0, [pc, #16]	; (800896c <GUI_Clear+0x1c>)
 800895c:	f643 72ff 	movw	r2, #16383	; 0x3fff
 8008960:	4601      	mov	r1, r0
 8008962:	4613      	mov	r3, r2
 8008964:	e8bd 4010 	ldmia.w	sp!, {r4, lr}
 8008968:	f7ff bfc0 	b.w	80088ec <GUI_ClearRect>
 800896c:	ffffc001 	.word	0xffffc001

08008970 <GUI__RegisterExit>:
 8008970:	b480      	push	{r7}
 8008972:	b083      	sub	sp, #12
 8008974:	af00      	add	r7, sp, #0
 8008976:	6078      	str	r0, [r7, #4]
 8008978:	4b05      	ldr	r3, [pc, #20]	; (8008990 <GUI__RegisterExit+0x20>)
 800897a:	681a      	ldr	r2, [r3, #0]
 800897c:	687b      	ldr	r3, [r7, #4]
 800897e:	605a      	str	r2, [r3, #4]
 8008980:	4b03      	ldr	r3, [pc, #12]	; (8008990 <GUI__RegisterExit+0x20>)
 8008982:	687a      	ldr	r2, [r7, #4]
 8008984:	601a      	str	r2, [r3, #0]
 8008986:	370c      	adds	r7, #12
 8008988:	46bd      	mov	sp, r7
 800898a:	f85d 7b04 	ldr.w	r7, [sp], #4
 800898e:	4770      	bx	lr
 8008990:	200004a8 	.word	0x200004a8

08008994 <GUI__Config>:
 8008994:	b508      	push	{r3, lr}
 8008996:	4b08      	ldr	r3, [pc, #32]	; (80089b8 <GUI__Config+0x24>)
 8008998:	681a      	ldr	r2, [r3, #0]
 800899a:	b962      	cbnz	r2, 80089b6 <GUI__Config+0x22>
 800899c:	2201      	movs	r2, #1
 800899e:	601a      	str	r2, [r3, #0]
 80089a0:	f7fd f8bc 	bl	8005b1c <GUI_X_Config>
 80089a4:	f7fd f914 	bl	8005bd0 <LCD_X_Config>
 80089a8:	4804      	ldr	r0, [pc, #16]	; (80089bc <GUI__Config+0x28>)
 80089aa:	4b05      	ldr	r3, [pc, #20]	; (80089c0 <GUI__Config+0x2c>)
 80089ac:	6003      	str	r3, [r0, #0]
 80089ae:	e8bd 4008 	ldmia.w	sp!, {r3, lr}
 80089b2:	f7ff bfdd 	b.w	8008970 <GUI__RegisterExit>
 80089b6:	bd08      	pop	{r3, pc}
 80089b8:	20000524 	.word	0x20000524
 80089bc:	200004ac 	.word	0x200004ac
 80089c0:	08008841 	.word	0x08008841

080089c4 <GUI_Init>:
 80089c4:	b580      	push	{r7, lr}
 80089c6:	b082      	sub	sp, #8
 80089c8:	af00      	add	r7, sp, #0
 80089ca:	4b15      	ldr	r3, [pc, #84]	; (8008a20 <GUI_Init+0x5c>)
 80089cc:	4a14      	ldr	r2, [pc, #80]	; (8008a20 <GUI_Init+0x5c>)
 80089ce:	6812      	ldr	r2, [r2, #0]
 80089d0:	f022 0201 	bic.w	r2, r2, #1
 80089d4:	601a      	str	r2, [r3, #0]
 80089d6:	4b13      	ldr	r3, [pc, #76]	; (8008a24 <GUI_Init+0x60>)
 80089d8:	2201      	movs	r2, #1
 80089da:	601a      	str	r2, [r3, #0]
 80089dc:	4b12      	ldr	r3, [pc, #72]	; (8008a28 <GUI_Init+0x64>)
 80089de:	4a13      	ldr	r2, [pc, #76]	; (8008a2c <GUI_Init+0x68>)
 80089e0:	601a      	str	r2, [r3, #0]
 80089e2:	4b11      	ldr	r3, [pc, #68]	; (8008a28 <GUI_Init+0x64>)
 80089e4:	681a      	ldr	r2, [r3, #0]
 80089e6:	4b12      	ldr	r3, [pc, #72]	; (8008a30 <GUI_Init+0x6c>)
 80089e8:	429a      	cmp	r2, r3
 80089ea:	d000      	beq.n	80089ee <GUI_Init+0x2a>
 80089ec:	e7fe      	b.n	80089ec <GUI_Init+0x28>
 80089ee:	f7ff ffd1 	bl	8008994 <GUI__Config>
 80089f2:	4b10      	ldr	r3, [pc, #64]	; (8008a34 <GUI_Init+0x70>)
 80089f4:	222e      	movs	r2, #46	; 0x2e
 80089f6:	701a      	strb	r2, [r3, #0]
 80089f8:	f7fd f88f 	bl	8005b1a <GUI_X_Init>
 80089fc:	480e      	ldr	r0, [pc, #56]	; (8008a38 <GUI_Init+0x74>)
 80089fe:	f7ff ff35 	bl	800886c <_InitContext>
 8008a02:	f7ff fbaf 	bl	8008164 <emWin_LCD_Init>
 8008a06:	6078      	str	r0, [r7, #4]
 8008a08:	2000      	movs	r0, #0
 8008a0a:	2100      	movs	r1, #0
 8008a0c:	f002 f8a6 	bl	800ab5c <GUI_SetOrg>
 8008a10:	f7fd fed0 	bl	80067b4 <WM_Init>
 8008a14:	687b      	ldr	r3, [r7, #4]
 8008a16:	4618      	mov	r0, r3
 8008a18:	3708      	adds	r7, #8
 8008a1a:	46bd      	mov	sp, r7
 8008a1c:	bd80      	pop	{r7, pc}
 8008a1e:	bf00      	nop
 8008a20:	e0002000 	.word	0xe0002000
 8008a24:	40023008 	.word	0x40023008
 8008a28:	40023000 	.word	0x40023000
 8008a2c:	f407a5c2 	.word	0xf407a5c2
 8008a30:	b5e8b5cd 	.word	0xb5e8b5cd
 8008a34:	20002e62 	.word	0x20002e62
 8008a38:	200004b4 	.word	0x200004b4

08008a3c <GUIPROP__FindChar>:
 8008a3c:	b138      	cbz	r0, 8008a4e <GUIPROP__FindChar+0x12>
 8008a3e:	8803      	ldrh	r3, [r0, #0]
 8008a40:	428b      	cmp	r3, r1
 8008a42:	d802      	bhi.n	8008a4a <GUIPROP__FindChar+0xe>
 8008a44:	8843      	ldrh	r3, [r0, #2]
 8008a46:	428b      	cmp	r3, r1
 8008a48:	d201      	bcs.n	8008a4e <GUIPROP__FindChar+0x12>
 8008a4a:	6880      	ldr	r0, [r0, #8]
 8008a4c:	e7f6      	b.n	8008a3c <GUIPROP__FindChar>
 8008a4e:	4770      	bx	lr

08008a50 <GUIPROP_DispChar>:
 8008a50:	e92d 4ff0 	stmdb	sp!, {r4, r5, r6, r7, r8, r9, sl, fp, lr}
 8008a54:	4c38      	ldr	r4, [pc, #224]	; (8008b38 <GUIPROP_DispChar+0xe8>)
 8008a56:	6823      	ldr	r3, [r4, #0]
 8008a58:	f9b3 902a 	ldrsh.w	r9, [r3, #42]	; 0x2a
 8008a5c:	69db      	ldr	r3, [r3, #28]
 8008a5e:	4605      	mov	r5, r0
 8008a60:	b089      	sub	sp, #36	; 0x24
 8008a62:	69d8      	ldr	r0, [r3, #28]
 8008a64:	4629      	mov	r1, r5
 8008a66:	f7ff ffe9 	bl	8008a3c <GUIPROP__FindChar>
 8008a6a:	2800      	cmp	r0, #0
 8008a6c:	d061      	beq.n	8008b32 <GUIPROP_DispChar+0xe2>
 8008a6e:	f8b0 8000 	ldrh.w	r8, [r0]
 8008a72:	6847      	ldr	r7, [r0, #4]
 8008a74:	ebc8 0805 	rsb	r8, r8, r5
 8008a78:	eb07 06c8 	add.w	r6, r7, r8, lsl #3
 8008a7c:	4648      	mov	r0, r9
 8008a7e:	f896 b002 	ldrb.w	fp, [r6, #2]
 8008a82:	f7ff f8ed 	bl	8007c60 <LCD_SetDrawMode>
 8008a86:	6825      	ldr	r5, [r4, #0]
 8008a88:	f817 2038 	ldrb.w	r2, [r7, r8, lsl #3]
 8008a8c:	f8d5 e01c 	ldr.w	lr, [r5, #28]
 8008a90:	f9b5 1024 	ldrsh.w	r1, [r5, #36]	; 0x24
 8008a94:	f89e c01a 	ldrb.w	ip, [lr, #26]
 8008a98:	f89e 3018 	ldrb.w	r3, [lr, #24]
 8008a9c:	9306      	str	r3, [sp, #24]
 8008a9e:	4682      	mov	sl, r0
 8008aa0:	f9b5 0022 	ldrsh.w	r0, [r5, #34]	; 0x22
 8008aa4:	f8cd c000 	str.w	ip, [sp]
 8008aa8:	f89e e01b 	ldrb.w	lr, [lr, #27]
 8008aac:	f8cd e004 	str.w	lr, [sp, #4]
 8008ab0:	f04f 0e01 	mov.w	lr, #1
 8008ab4:	f8cd b00c 	str.w	fp, [sp, #12]
 8008ab8:	f8cd e008 	str.w	lr, [sp, #8]
 8008abc:	6873      	ldr	r3, [r6, #4]
 8008abe:	9304      	str	r3, [sp, #16]
 8008ac0:	6bad      	ldr	r5, [r5, #56]	; 0x38
 8008ac2:	9b06      	ldr	r3, [sp, #24]
 8008ac4:	9505      	str	r5, [sp, #20]
 8008ac6:	f7ff fa33 	bl	8007f30 <LCD_DrawBitmap>
 8008aca:	6823      	ldr	r3, [r4, #0]
 8008acc:	69da      	ldr	r2, [r3, #28]
 8008ace:	f892 b019 	ldrb.w	fp, [r2, #25]
 8008ad2:	7e11      	ldrb	r1, [r2, #24]
 8008ad4:	458b      	cmp	fp, r1
 8008ad6:	d920      	bls.n	8008b1a <GUIPROP_DispChar+0xca>
 8008ad8:	f1b9 0f02 	cmp.w	r9, #2
 8008adc:	7ed5      	ldrb	r5, [r2, #27]
 8008ade:	d01c      	beq.n	8008b1a <GUIPROP_DispChar+0xca>
 8008ae0:	9107      	str	r1, [sp, #28]
 8008ae2:	f002 f85c 	bl	800ab9e <GUI_GetColor>
 8008ae6:	4681      	mov	r9, r0
 8008ae8:	f002 f852 	bl	800ab90 <GUI_GetBkColor>
 8008aec:	f7ff fcf8 	bl	80084e0 <GUI_SetColor>
 8008af0:	6824      	ldr	r4, [r4, #0]
 8008af2:	f817 7038 	ldrb.w	r7, [r7, r8, lsl #3]
 8008af6:	69e2      	ldr	r2, [r4, #28]
 8008af8:	f9b4 3024 	ldrsh.w	r3, [r4, #36]	; 0x24
 8008afc:	f9b4 0022 	ldrsh.w	r0, [r4, #34]	; 0x22
 8008b00:	7ed2      	ldrb	r2, [r2, #27]
 8008b02:	9907      	ldr	r1, [sp, #28]
 8008b04:	fb07 0202 	mla	r2, r7, r2, r0
 8008b08:	fb01 3105 	mla	r1, r1, r5, r3
 8008b0c:	fb0b 3305 	mla	r3, fp, r5, r3
 8008b10:	f7ff f902 	bl	8007d18 <LCD_FillRect>
 8008b14:	4648      	mov	r0, r9
 8008b16:	f7ff fce3 	bl	80084e0 <GUI_SetColor>
 8008b1a:	4650      	mov	r0, sl
 8008b1c:	f7ff f8a0 	bl	8007c60 <LCD_SetDrawMode>
 8008b20:	4b05      	ldr	r3, [pc, #20]	; (8008b38 <GUIPROP_DispChar+0xe8>)
 8008b22:	681b      	ldr	r3, [r3, #0]
 8008b24:	69da      	ldr	r2, [r3, #28]
 8008b26:	8c59      	ldrh	r1, [r3, #34]	; 0x22
 8008b28:	7e90      	ldrb	r0, [r2, #26]
 8008b2a:	7872      	ldrb	r2, [r6, #1]
 8008b2c:	fb00 1202 	mla	r2, r0, r2, r1
 8008b30:	845a      	strh	r2, [r3, #34]	; 0x22
 8008b32:	b009      	add	sp, #36	; 0x24
 8008b34:	e8bd 8ff0 	ldmia.w	sp!, {r4, r5, r6, r7, r8, r9, sl, fp, pc}
 8008b38:	20000008 	.word	0x20000008

08008b3c <GUIPROP_GetCharDistX>:
 8008b3c:	4b0d      	ldr	r3, [pc, #52]	; (8008b74 <GUIPROP_GetCharDistX+0x38>)
 8008b3e:	b570      	push	{r4, r5, r6, lr}
 8008b40:	681b      	ldr	r3, [r3, #0]
 8008b42:	69dd      	ldr	r5, [r3, #28]
 8008b44:	4606      	mov	r6, r0
 8008b46:	460c      	mov	r4, r1
 8008b48:	69e8      	ldr	r0, [r5, #28]
 8008b4a:	4631      	mov	r1, r6
 8008b4c:	f7ff ff76 	bl	8008a3c <GUIPROP__FindChar>
 8008b50:	b170      	cbz	r0, 8008b70 <GUIPROP_GetCharDistX+0x34>
 8008b52:	8803      	ldrh	r3, [r0, #0]
 8008b54:	6842      	ldr	r2, [r0, #4]
 8008b56:	1af6      	subs	r6, r6, r3
 8008b58:	eb02 03c6 	add.w	r3, r2, r6, lsl #3
 8008b5c:	7858      	ldrb	r0, [r3, #1]
 8008b5e:	7eab      	ldrb	r3, [r5, #26]
 8008b60:	fb10 f003 	smulbb	r0, r0, r3
 8008b64:	b124      	cbz	r4, 8008b70 <GUIPROP_GetCharDistX+0x34>
 8008b66:	f812 2036 	ldrb.w	r2, [r2, r6, lsl #3]
 8008b6a:	fb12 f303 	smulbb	r3, r2, r3
 8008b6e:	6023      	str	r3, [r4, #0]
 8008b70:	bd70      	pop	{r4, r5, r6, pc}
 8008b72:	bf00      	nop
 8008b74:	20000008 	.word	0x20000008

08008b78 <GUIPROP_GetFontInfo>:
 8008b78:	2301      	movs	r3, #1
 8008b7a:	800b      	strh	r3, [r1, #0]
 8008b7c:	4770      	bx	lr

08008b7e <GUIPROP_IsInFont>:
 8008b7e:	b508      	push	{r3, lr}
 8008b80:	69c0      	ldr	r0, [r0, #28]
 8008b82:	f7ff ff5b 	bl	8008a3c <GUIPROP__FindChar>
 8008b86:	3000      	adds	r0, #0
 8008b88:	bf18      	it	ne
 8008b8a:	2001      	movne	r0, #1
 8008b8c:	bd08      	pop	{r3, pc}

08008b8e <_Log2VisBuffered>:
 8008b8e:	4770      	bx	lr

08008b90 <_DispLine>:
 8008b90:	b537      	push	{r0, r1, r2, r4, r5, lr}
 8008b92:	4615      	mov	r5, r2
 8008b94:	ab02      	add	r3, sp, #8
 8008b96:	4a1a      	ldr	r2, [pc, #104]	; (8008c00 <_DispLine+0x70>)
 8008b98:	f843 1d08 	str.w	r1, [r3, #-8]!
 8008b9c:	9001      	str	r0, [sp, #4]
 8008b9e:	6812      	ldr	r2, [r2, #0]
 8008ba0:	4c18      	ldr	r4, [pc, #96]	; (8008c04 <_DispLine+0x74>)
 8008ba2:	4669      	mov	r1, sp
 8008ba4:	4790      	blx	r2
 8008ba6:	6823      	ldr	r3, [r4, #0]
 8008ba8:	9001      	str	r0, [sp, #4]
 8008baa:	6958      	ldr	r0, [r3, #20]
 8008bac:	b958      	cbnz	r0, 8008bc6 <_DispLine+0x36>
 8008bae:	2001      	movs	r0, #1
 8008bb0:	f7ff fc20 	bl	80083f4 <GUI__ManageCache>
 8008bb4:	6823      	ldr	r3, [r4, #0]
 8008bb6:	69db      	ldr	r3, [r3, #28]
 8008bb8:	695b      	ldr	r3, [r3, #20]
 8008bba:	b1bb      	cbz	r3, 8008bec <_DispLine+0x5c>
 8008bbc:	689b      	ldr	r3, [r3, #8]
 8008bbe:	9801      	ldr	r0, [sp, #4]
 8008bc0:	9900      	ldr	r1, [sp, #0]
 8008bc2:	4798      	blx	r3
 8008bc4:	e017      	b.n	8008bf6 <_DispLine+0x66>
 8008bc6:	4629      	mov	r1, r5
 8008bc8:	f7ff fca7 	bl	800851a <GUI_RectsIntersect>
 8008bcc:	2800      	cmp	r0, #0
 8008bce:	d1ee      	bne.n	8008bae <_DispLine+0x1e>
 8008bd0:	e014      	b.n	8008bfc <_DispLine+0x6c>
 8008bd2:	a801      	add	r0, sp, #4
 8008bd4:	f001 ff9c 	bl	800ab10 <GUI_UC__GetCharCodeInc>
 8008bd8:	6823      	ldr	r3, [r4, #0]
 8008bda:	69db      	ldr	r3, [r3, #28]
 8008bdc:	681b      	ldr	r3, [r3, #0]
 8008bde:	4605      	mov	r5, r0
 8008be0:	4798      	blx	r3
 8008be2:	4b09      	ldr	r3, [pc, #36]	; (8008c08 <_DispLine+0x78>)
 8008be4:	681b      	ldr	r3, [r3, #0]
 8008be6:	b10b      	cbz	r3, 8008bec <_DispLine+0x5c>
 8008be8:	4628      	mov	r0, r5
 8008bea:	4798      	blx	r3
 8008bec:	9b00      	ldr	r3, [sp, #0]
 8008bee:	3b01      	subs	r3, #1
 8008bf0:	2b00      	cmp	r3, #0
 8008bf2:	9300      	str	r3, [sp, #0]
 8008bf4:	daed      	bge.n	8008bd2 <_DispLine+0x42>
 8008bf6:	2000      	movs	r0, #0
 8008bf8:	f7ff fbfc 	bl	80083f4 <GUI__ManageCache>
 8008bfc:	b003      	add	sp, #12
 8008bfe:	bd30      	pop	{r4, r5, pc}
 8008c00:	20000010 	.word	0x20000010
 8008c04:	20000008 	.word	0x20000008
 8008c08:	20002e7c 	.word	0x20002e7c

08008c0c <GUI__GetLineNumChars>:
 8008c0c:	b537      	push	{r0, r1, r2, r4, r5, lr}
 8008c0e:	460d      	mov	r5, r1
 8008c10:	9001      	str	r0, [sp, #4]
 8008c12:	4604      	mov	r4, r0
 8008c14:	b198      	cbz	r0, 8008c3e <GUI__GetLineNumChars+0x32>
 8008c16:	4b0b      	ldr	r3, [pc, #44]	; (8008c44 <GUI__GetLineNumChars+0x38>)
 8008c18:	681b      	ldr	r3, [r3, #0]
 8008c1a:	69db      	ldr	r3, [r3, #28]
 8008c1c:	695b      	ldr	r3, [r3, #20]
 8008c1e:	b10b      	cbz	r3, 8008c24 <GUI__GetLineNumChars+0x18>
 8008c20:	685b      	ldr	r3, [r3, #4]
 8008c22:	b90b      	cbnz	r3, 8008c28 <GUI__GetLineNumChars+0x1c>
 8008c24:	2400      	movs	r4, #0
 8008c26:	e008      	b.n	8008c3a <GUI__GetLineNumChars+0x2e>
 8008c28:	4798      	blx	r3
 8008c2a:	e009      	b.n	8008c40 <GUI__GetLineNumChars+0x34>
 8008c2c:	a801      	add	r0, sp, #4
 8008c2e:	f001 ff6f 	bl	800ab10 <GUI_UC__GetCharCodeInc>
 8008c32:	b120      	cbz	r0, 8008c3e <GUI__GetLineNumChars+0x32>
 8008c34:	280a      	cmp	r0, #10
 8008c36:	d002      	beq.n	8008c3e <GUI__GetLineNumChars+0x32>
 8008c38:	3401      	adds	r4, #1
 8008c3a:	42ac      	cmp	r4, r5
 8008c3c:	dbf6      	blt.n	8008c2c <GUI__GetLineNumChars+0x20>
 8008c3e:	4620      	mov	r0, r4
 8008c40:	b003      	add	sp, #12
 8008c42:	bd30      	pop	{r4, r5, pc}
 8008c44:	20000008 	.word	0x20000008

08008c48 <GUI__GetOverlap>:
 8008c48:	b513      	push	{r0, r1, r4, lr}
 8008c4a:	a902      	add	r1, sp, #8
 8008c4c:	2400      	movs	r4, #0
 8008c4e:	f841 4d04 	str.w	r4, [r1, #-4]!
 8008c52:	f000 f8b7 	bl	8008dc4 <GUI_GetCharDistXEx>
 8008c56:	9b01      	ldr	r3, [sp, #4]
 8008c58:	4283      	cmp	r3, r0
 8008c5a:	bfcc      	ite	gt
 8008c5c:	ebc0 0003 	rsbgt	r0, r0, r3
 8008c60:	4620      	movle	r0, r4
 8008c62:	b002      	add	sp, #8
 8008c64:	bd10      	pop	{r4, pc}
	...

08008c68 <GUI__GetLineDistX>:
 8008c68:	b537      	push	{r0, r1, r2, r4, r5, lr}
 8008c6a:	4a15      	ldr	r2, [pc, #84]	; (8008cc0 <GUI__GetLineDistX+0x58>)
 8008c6c:	9001      	str	r0, [sp, #4]
 8008c6e:	ab02      	add	r3, sp, #8
 8008c70:	6812      	ldr	r2, [r2, #0]
 8008c72:	f843 1d08 	str.w	r1, [r3, #-8]!
 8008c76:	4669      	mov	r1, sp
 8008c78:	4790      	blx	r2
 8008c7a:	9001      	str	r0, [sp, #4]
 8008c7c:	b1f0      	cbz	r0, 8008cbc <GUI__GetLineDistX+0x54>
 8008c7e:	4b11      	ldr	r3, [pc, #68]	; (8008cc4 <GUI__GetLineDistX+0x5c>)
 8008c80:	681b      	ldr	r3, [r3, #0]
 8008c82:	69db      	ldr	r3, [r3, #28]
 8008c84:	695b      	ldr	r3, [r3, #20]
 8008c86:	b10b      	cbz	r3, 8008c8c <GUI__GetLineDistX+0x24>
 8008c88:	681b      	ldr	r3, [r3, #0]
 8008c8a:	b913      	cbnz	r3, 8008c92 <GUI__GetLineDistX+0x2a>
 8008c8c:	2500      	movs	r5, #0
 8008c8e:	462c      	mov	r4, r5
 8008c90:	e002      	b.n	8008c98 <GUI__GetLineDistX+0x30>
 8008c92:	9900      	ldr	r1, [sp, #0]
 8008c94:	4798      	blx	r3
 8008c96:	e011      	b.n	8008cbc <GUI__GetLineDistX+0x54>
 8008c98:	9b00      	ldr	r3, [sp, #0]
 8008c9a:	3b01      	subs	r3, #1
 8008c9c:	2b00      	cmp	r3, #0
 8008c9e:	9300      	str	r3, [sp, #0]
 8008ca0:	db07      	blt.n	8008cb2 <GUI__GetLineDistX+0x4a>
 8008ca2:	a801      	add	r0, sp, #4
 8008ca4:	f001 ff34 	bl	800ab10 <GUI_UC__GetCharCodeInc>
 8008ca8:	4605      	mov	r5, r0
 8008caa:	f000 f881 	bl	8008db0 <GUI_GetCharDistX>
 8008cae:	4404      	add	r4, r0
 8008cb0:	e7f2      	b.n	8008c98 <GUI__GetLineDistX+0x30>
 8008cb2:	4628      	mov	r0, r5
 8008cb4:	f7ff ffc8 	bl	8008c48 <GUI__GetOverlap>
 8008cb8:	4420      	add	r0, r4
 8008cba:	e7ff      	b.n	8008cbc <GUI__GetLineDistX+0x54>
 8008cbc:	b003      	add	sp, #12
 8008cbe:	bd30      	pop	{r4, r5, pc}
 8008cc0:	20000010 	.word	0x20000010
 8008cc4:	20000008 	.word	0x20000008

08008cc8 <GUI__DispLine>:
 8008cc8:	4b27      	ldr	r3, [pc, #156]	; (8008d68 <GUI__DispLine+0xa0>)
 8008cca:	681b      	ldr	r3, [r3, #0]
 8008ccc:	b573      	push	{r0, r1, r4, r5, r6, lr}
 8008cce:	4605      	mov	r5, r0
 8008cd0:	460c      	mov	r4, r1
 8008cd2:	b163      	cbz	r3, 8008cee <GUI__DispLine+0x26>
 8008cd4:	2000      	movs	r0, #0
 8008cd6:	f7fd fc8f 	bl	80065f8 <WM__InitIVRSearch>
 8008cda:	2800      	cmp	r0, #0
 8008cdc:	d041      	beq.n	8008d62 <GUI__DispLine+0x9a>
 8008cde:	4628      	mov	r0, r5
 8008ce0:	4621      	mov	r1, r4
 8008ce2:	466a      	mov	r2, sp
 8008ce4:	f7ff ff54 	bl	8008b90 <_DispLine>
 8008ce8:	f7fd fbc4 	bl	8006474 <WM__GetNextIVR>
 8008cec:	e7f5      	b.n	8008cda <GUI__DispLine+0x12>
 8008cee:	6810      	ldr	r0, [r2, #0]
 8008cf0:	6851      	ldr	r1, [r2, #4]
 8008cf2:	4e1e      	ldr	r6, [pc, #120]	; (8008d6c <GUI__DispLine+0xa4>)
 8008cf4:	466b      	mov	r3, sp
 8008cf6:	c303      	stmia	r3!, {r0, r1}
 8008cf8:	6833      	ldr	r3, [r6, #0]
 8008cfa:	f8bd 1000 	ldrh.w	r1, [sp]
 8008cfe:	f8b3 204c 	ldrh.w	r2, [r3, #76]	; 0x4c
 8008d02:	f8b3 3050 	ldrh.w	r3, [r3, #80]	; 0x50
 8008d06:	4411      	add	r1, r2
 8008d08:	f8ad 1000 	strh.w	r1, [sp]
 8008d0c:	f8bd 1002 	ldrh.w	r1, [sp, #2]
 8008d10:	4419      	add	r1, r3
 8008d12:	f8ad 1002 	strh.w	r1, [sp, #2]
 8008d16:	f8bd 1004 	ldrh.w	r1, [sp, #4]
 8008d1a:	440a      	add	r2, r1
 8008d1c:	f8ad 2004 	strh.w	r2, [sp, #4]
 8008d20:	f8bd 2006 	ldrh.w	r2, [sp, #6]
 8008d24:	4668      	mov	r0, sp
 8008d26:	4413      	add	r3, r2
 8008d28:	f8ad 3006 	strh.w	r3, [sp, #6]
 8008d2c:	f7fd fc64 	bl	80065f8 <WM__InitIVRSearch>
 8008d30:	6833      	ldr	r3, [r6, #0]
 8008d32:	b940      	cbnz	r0, 8008d46 <GUI__DispLine+0x7e>
 8008d34:	8c59      	ldrh	r1, [r3, #34]	; 0x22
 8008d36:	6cda      	ldr	r2, [r3, #76]	; 0x4c
 8008d38:	1a8a      	subs	r2, r1, r2
 8008d3a:	845a      	strh	r2, [r3, #34]	; 0x22
 8008d3c:	8c99      	ldrh	r1, [r3, #36]	; 0x24
 8008d3e:	6d1a      	ldr	r2, [r3, #80]	; 0x50
 8008d40:	1a8a      	subs	r2, r1, r2
 8008d42:	849a      	strh	r2, [r3, #36]	; 0x24
 8008d44:	e00d      	b.n	8008d62 <GUI__DispLine+0x9a>
 8008d46:	f8bd 2000 	ldrh.w	r2, [sp]
 8008d4a:	845a      	strh	r2, [r3, #34]	; 0x22
 8008d4c:	f8bd 2002 	ldrh.w	r2, [sp, #2]
 8008d50:	849a      	strh	r2, [r3, #36]	; 0x24
 8008d52:	4628      	mov	r0, r5
 8008d54:	4621      	mov	r1, r4
 8008d56:	466a      	mov	r2, sp
 8008d58:	f7ff ff1a 	bl	8008b90 <_DispLine>
 8008d5c:	f7fd fb8a 	bl	8006474 <WM__GetNextIVR>
 8008d60:	e7e6      	b.n	8008d30 <GUI__DispLine+0x68>
 8008d62:	b002      	add	sp, #8
 8008d64:	bd70      	pop	{r4, r5, r6, pc}
 8008d66:	bf00      	nop
 8008d68:	20002e64 	.word	0x20002e64
 8008d6c:	20000008 	.word	0x20000008

08008d70 <GUI_GetYAdjust>:
 8008d70:	4b0a      	ldr	r3, [pc, #40]	; (8008d9c <GUI_GetYAdjust+0x2c>)
 8008d72:	681b      	ldr	r3, [r3, #0]
 8008d74:	8d9a      	ldrh	r2, [r3, #44]	; 0x2c
 8008d76:	f002 020c 	and.w	r2, r2, #12
 8008d7a:	2a08      	cmp	r2, #8
 8008d7c:	d007      	beq.n	8008d8e <GUI_GetYAdjust+0x1e>
 8008d7e:	2a0c      	cmp	r2, #12
 8008d80:	d005      	beq.n	8008d8e <GUI_GetYAdjust+0x1e>
 8008d82:	2a04      	cmp	r2, #4
 8008d84:	d107      	bne.n	8008d96 <GUI_GetYAdjust+0x26>
 8008d86:	69db      	ldr	r3, [r3, #28]
 8008d88:	7e18      	ldrb	r0, [r3, #24]
 8008d8a:	3801      	subs	r0, #1
 8008d8c:	4770      	bx	lr
 8008d8e:	69db      	ldr	r3, [r3, #28]
 8008d90:	7e18      	ldrb	r0, [r3, #24]
 8008d92:	0840      	lsrs	r0, r0, #1
 8008d94:	4770      	bx	lr
 8008d96:	2000      	movs	r0, #0
 8008d98:	4770      	bx	lr
 8008d9a:	bf00      	nop
 8008d9c:	20000008 	.word	0x20000008

08008da0 <GUI_GetFontDistY>:
 8008da0:	4b02      	ldr	r3, [pc, #8]	; (8008dac <GUI_GetFontDistY+0xc>)
 8008da2:	681b      	ldr	r3, [r3, #0]
 8008da4:	69db      	ldr	r3, [r3, #28]
 8008da6:	7e58      	ldrb	r0, [r3, #25]
 8008da8:	4770      	bx	lr
 8008daa:	bf00      	nop
 8008dac:	20000008 	.word	0x20000008

08008db0 <GUI_GetCharDistX>:
 8008db0:	b508      	push	{r3, lr}
 8008db2:	4b03      	ldr	r3, [pc, #12]	; (8008dc0 <GUI_GetCharDistX+0x10>)
 8008db4:	681b      	ldr	r3, [r3, #0]
 8008db6:	69db      	ldr	r3, [r3, #28]
 8008db8:	2100      	movs	r1, #0
 8008dba:	685b      	ldr	r3, [r3, #4]
 8008dbc:	4798      	blx	r3
 8008dbe:	bd08      	pop	{r3, pc}
 8008dc0:	20000008 	.word	0x20000008

08008dc4 <GUI_GetCharDistXEx>:
 8008dc4:	b508      	push	{r3, lr}
 8008dc6:	4b03      	ldr	r3, [pc, #12]	; (8008dd4 <GUI_GetCharDistXEx+0x10>)
 8008dc8:	681b      	ldr	r3, [r3, #0]
 8008dca:	69db      	ldr	r3, [r3, #28]
 8008dcc:	685b      	ldr	r3, [r3, #4]
 8008dce:	4798      	blx	r3
 8008dd0:	bd08      	pop	{r3, pc}
 8008dd2:	bf00      	nop
 8008dd4:	20000008 	.word	0x20000008

08008dd8 <_PushFreeBlock>:
 8008dd8:	4b07      	ldr	r3, [pc, #28]	; (8008df8 <_PushFreeBlock+0x20>)
 8008dda:	685a      	ldr	r2, [r3, #4]
 8008ddc:	6a59      	ldr	r1, [r3, #36]	; 0x24
 8008dde:	3201      	adds	r2, #1
 8008de0:	b510      	push	{r4, lr}
 8008de2:	605a      	str	r2, [r3, #4]
 8008de4:	6b5a      	ldr	r2, [r3, #52]	; 0x34
 8008de6:	eb02 04c0 	add.w	r4, r2, r0, lsl #3
 8008dea:	6061      	str	r1, [r4, #4]
 8008dec:	2100      	movs	r1, #0
 8008dee:	f802 1030 	strb.w	r1, [r2, r0, lsl #3]
 8008df2:	6258      	str	r0, [r3, #36]	; 0x24
 8008df4:	bd10      	pop	{r4, pc}
 8008df6:	bf00      	nop
 8008df8:	20002e9c 	.word	0x20002e9c

08008dfc <_OnExit>:
 8008dfc:	b538      	push	{r3, r4, r5, lr}
 8008dfe:	4d0b      	ldr	r5, [pc, #44]	; (8008e2c <_OnExit+0x30>)
 8008e00:	2400      	movs	r4, #0
 8008e02:	f105 0040 	add.w	r0, r5, #64	; 0x40
 8008e06:	4621      	mov	r1, r4
 8008e08:	2280      	movs	r2, #128	; 0x80
 8008e0a:	f885 4028 	strb.w	r4, [r5, #40]	; 0x28
 8008e0e:	f7ff fa5b 	bl	80082c8 <GUI__memset>
 8008e12:	4628      	mov	r0, r5
 8008e14:	4621      	mov	r1, r4
 8008e16:	22c0      	movs	r2, #192	; 0xc0
 8008e18:	f7ff fa56 	bl	80082c8 <GUI__memset>
 8008e1c:	4621      	mov	r1, r4
 8008e1e:	4804      	ldr	r0, [pc, #16]	; (8008e30 <_OnExit+0x34>)
 8008e20:	220c      	movs	r2, #12
 8008e22:	e8bd 4038 	ldmia.w	sp!, {r3, r4, r5, lr}
 8008e26:	f7ff ba4f 	b.w	80082c8 <GUI__memset>
 8008e2a:	bf00      	nop
 8008e2c:	20002e9c 	.word	0x20002e9c
 8008e30:	20000528 	.word	0x20000528

08008e34 <_RemoveFreeBlock>:
 8008e34:	b510      	push	{r4, lr}
 8008e36:	6842      	ldr	r2, [r0, #4]
 8008e38:	230f      	movs	r3, #15
 8008e3a:	490b      	ldr	r1, [pc, #44]	; (8008e68 <_RemoveFreeBlock+0x34>)
 8008e3c:	eb01 04c3 	add.w	r4, r1, r3, lsl #3
 8008e40:	6c24      	ldr	r4, [r4, #64]	; 0x40
 8008e42:	42a2      	cmp	r2, r4
 8008e44:	d202      	bcs.n	8008e4c <_RemoveFreeBlock+0x18>
 8008e46:	f113 33ff 	adds.w	r3, r3, #4294967295
 8008e4a:	d2f6      	bcs.n	8008e3a <_RemoveFreeBlock+0x6>
 8008e4c:	680c      	ldr	r4, [r1, #0]
 8008e4e:	1aa2      	subs	r2, r4, r2
 8008e50:	600a      	str	r2, [r1, #0]
 8008e52:	6882      	ldr	r2, [r0, #8]
 8008e54:	68c0      	ldr	r0, [r0, #12]
 8008e56:	b102      	cbz	r2, 8008e5a <_RemoveFreeBlock+0x26>
 8008e58:	6050      	str	r0, [r2, #4]
 8008e5a:	b108      	cbz	r0, 8008e60 <_RemoveFreeBlock+0x2c>
 8008e5c:	6002      	str	r2, [r0, #0]
 8008e5e:	bd10      	pop	{r4, pc}
 8008e60:	eb01 03c3 	add.w	r3, r1, r3, lsl #3
 8008e64:	645a      	str	r2, [r3, #68]	; 0x44
 8008e66:	bd10      	pop	{r4, pc}
 8008e68:	20002e9c 	.word	0x20002e9c

08008e6c <_AddFreeMemory>:
 8008e6c:	b5f8      	push	{r3, r4, r5, r6, r7, lr}
 8008e6e:	4e25      	ldr	r6, [pc, #148]	; (8008f04 <_AddFreeMemory+0x98>)
 8008e70:	68f3      	ldr	r3, [r6, #12]
 8008e72:	1e5a      	subs	r2, r3, #1
 8008e74:	6bb3      	ldr	r3, [r6, #56]	; 0x38
 8008e76:	4605      	mov	r5, r0
 8008e78:	4413      	add	r3, r2
 8008e7a:	1808      	adds	r0, r1, r0
 8008e7c:	4298      	cmp	r0, r3
 8008e7e:	460c      	mov	r4, r1
 8008e80:	d805      	bhi.n	8008e8e <_AddFreeMemory+0x22>
 8008e82:	594b      	ldr	r3, [r1, r5]
 8008e84:	b91b      	cbnz	r3, 8008e8e <_AddFreeMemory+0x22>
 8008e86:	6843      	ldr	r3, [r0, #4]
 8008e88:	441d      	add	r5, r3
 8008e8a:	f7ff ffd3 	bl	8008e34 <_RemoveFreeBlock>
 8008e8e:	6bb3      	ldr	r3, [r6, #56]	; 0x38
 8008e90:	429c      	cmp	r4, r3
 8008e92:	d90a      	bls.n	8008eaa <_AddFreeMemory+0x3e>
 8008e94:	f854 7c04 	ldr.w	r7, [r4, #-4]
 8008e98:	1be7      	subs	r7, r4, r7
 8008e9a:	683b      	ldr	r3, [r7, #0]
 8008e9c:	b92b      	cbnz	r3, 8008eaa <_AddFreeMemory+0x3e>
 8008e9e:	687b      	ldr	r3, [r7, #4]
 8008ea0:	4638      	mov	r0, r7
 8008ea2:	441d      	add	r5, r3
 8008ea4:	f7ff ffc6 	bl	8008e34 <_RemoveFreeBlock>
 8008ea8:	463c      	mov	r4, r7
 8008eaa:	230f      	movs	r3, #15
 8008eac:	eb06 02c3 	add.w	r2, r6, r3, lsl #3
 8008eb0:	6c12      	ldr	r2, [r2, #64]	; 0x40
 8008eb2:	4295      	cmp	r5, r2
 8008eb4:	d202      	bcs.n	8008ebc <_AddFreeMemory+0x50>
 8008eb6:	f113 33ff 	adds.w	r3, r3, #4294967295
 8008eba:	d2f7      	bcs.n	8008eac <_AddFreeMemory+0x40>
 8008ebc:	3308      	adds	r3, #8
 8008ebe:	eb06 02c3 	add.w	r2, r6, r3, lsl #3
 8008ec2:	1961      	adds	r1, r4, r5
 8008ec4:	6852      	ldr	r2, [r2, #4]
 8008ec6:	60a2      	str	r2, [r4, #8]
 8008ec8:	2000      	movs	r0, #0
 8008eca:	e884 0021 	stmia.w	r4, {r0, r5}
 8008ece:	6124      	str	r4, [r4, #16]
 8008ed0:	f841 5c04 	str.w	r5, [r1, #-4]
 8008ed4:	f104 0108 	add.w	r1, r4, #8
 8008ed8:	b102      	cbz	r2, 8008edc <_AddFreeMemory+0x70>
 8008eda:	6051      	str	r1, [r2, #4]
 8008edc:	eb06 03c3 	add.w	r3, r6, r3, lsl #3
 8008ee0:	60e0      	str	r0, [r4, #12]
 8008ee2:	6059      	str	r1, [r3, #4]
 8008ee4:	6833      	ldr	r3, [r6, #0]
 8008ee6:	f896 1029 	ldrb.w	r1, [r6, #41]	; 0x29
 8008eea:	4a06      	ldr	r2, [pc, #24]	; (8008f04 <_AddFreeMemory+0x98>)
 8008eec:	442b      	add	r3, r5
 8008eee:	6033      	str	r3, [r6, #0]
 8008ef0:	b929      	cbnz	r1, 8008efe <_AddFreeMemory+0x92>
 8008ef2:	68d1      	ldr	r1, [r2, #12]
 8008ef4:	1acb      	subs	r3, r1, r3
 8008ef6:	6891      	ldr	r1, [r2, #8]
 8008ef8:	4299      	cmp	r1, r3
 8008efa:	bf38      	it	cc
 8008efc:	6093      	strcc	r3, [r2, #8]
 8008efe:	4628      	mov	r0, r5
 8008f00:	bdf8      	pop	{r3, r4, r5, r6, r7, pc}
 8008f02:	bf00      	nop
 8008f04:	20002e9c 	.word	0x20002e9c

08008f08 <_RemoveHoles>:
 8008f08:	4b25      	ldr	r3, [pc, #148]	; (8008fa0 <_RemoveHoles+0x98>)
 8008f0a:	e92d 4ff7 	stmdb	sp!, {r0, r1, r2, r4, r5, r6, r7, r8, r9, sl, fp, lr}
 8008f0e:	68da      	ldr	r2, [r3, #12]
 8008f10:	6b9c      	ldr	r4, [r3, #56]	; 0x38
 8008f12:	3a01      	subs	r2, #1
 8008f14:	4682      	mov	sl, r0
 8008f16:	eb02 0904 	add.w	r9, r2, r4
 8008f1a:	469b      	mov	fp, r3
 8008f1c:	e894 0028 	ldmia.w	r4, {r3, r5}
 8008f20:	2b00      	cmp	r3, #0
 8008f22:	d133      	bne.n	8008f8c <_RemoveHoles+0x84>
 8008f24:	eb04 0805 	add.w	r8, r4, r5
 8008f28:	45c8      	cmp	r8, r9
 8008f2a:	d22f      	bcs.n	8008f8c <_RemoveHoles+0x84>
 8008f2c:	f854 c005 	ldr.w	ip, [r4, r5]
 8008f30:	f8d8 6004 	ldr.w	r6, [r8, #4]
 8008f34:	f1bc 0f00 	cmp.w	ip, #0
 8008f38:	d028      	beq.n	8008f8c <_RemoveHoles+0x84>
 8008f3a:	f8db 3034 	ldr.w	r3, [fp, #52]	; 0x34
 8008f3e:	4f18      	ldr	r7, [pc, #96]	; (8008fa0 <_RemoveHoles+0x98>)
 8008f40:	f813 303c 	ldrb.w	r3, [r3, ip, lsl #3]
 8008f44:	2b01      	cmp	r3, #1
 8008f46:	d121      	bne.n	8008f8c <_RemoveHoles+0x84>
 8008f48:	6afb      	ldr	r3, [r7, #44]	; 0x2c
 8008f4a:	4620      	mov	r0, r4
 8008f4c:	e88d 1008 	stmia.w	sp, {r3, ip}
 8008f50:	f7ff ff70 	bl	8008e34 <_RemoveFreeBlock>
 8008f54:	f8d8 1000 	ldr.w	r1, [r8]
 8008f58:	6b7a      	ldr	r2, [r7, #52]	; 0x34
 8008f5a:	eb02 02c1 	add.w	r2, r2, r1, lsl #3
 8008f5e:	4620      	mov	r0, r4
 8008f60:	6054      	str	r4, [r2, #4]
 8008f62:	4641      	mov	r1, r8
 8008f64:	4632      	mov	r2, r6
 8008f66:	f001 ffe3 	bl	800af30 <memmove>
 8008f6a:	e89d 1008 	ldmia.w	sp, {r3, ip}
 8008f6e:	459c      	cmp	ip, r3
 8008f70:	d102      	bne.n	8008f78 <_RemoveHoles+0x70>
 8008f72:	6b7b      	ldr	r3, [r7, #52]	; 0x34
 8008f74:	1b5b      	subs	r3, r3, r5
 8008f76:	637b      	str	r3, [r7, #52]	; 0x34
 8008f78:	4628      	mov	r0, r5
 8008f7a:	19a1      	adds	r1, r4, r6
 8008f7c:	f7ff ff76 	bl	8008e6c <_AddFreeMemory>
 8008f80:	f1ba 0f00 	cmp.w	sl, #0
 8008f84:	d001      	beq.n	8008f8a <_RemoveHoles+0x82>
 8008f86:	4582      	cmp	sl, r0
 8008f88:	d905      	bls.n	8008f96 <_RemoveHoles+0x8e>
 8008f8a:	4635      	mov	r5, r6
 8008f8c:	442c      	add	r4, r5
 8008f8e:	454c      	cmp	r4, r9
 8008f90:	d3c4      	bcc.n	8008f1c <_RemoveHoles+0x14>
 8008f92:	2001      	movs	r0, #1
 8008f94:	e000      	b.n	8008f98 <_RemoveHoles+0x90>
 8008f96:	2000      	movs	r0, #0
 8008f98:	b003      	add	sp, #12
 8008f9a:	e8bd 8ff0 	ldmia.w	sp!, {r4, r5, r6, r7, r8, r9, sl, fp, pc}
 8008f9e:	bf00      	nop
 8008fa0:	20002e9c 	.word	0x20002e9c

08008fa4 <GUI_ALLOC_FreeFixedBlock>:
 8008fa4:	b128      	cbz	r0, 8008fb2 <GUI_ALLOC_FreeFixedBlock+0xe>
 8008fa6:	4a03      	ldr	r2, [pc, #12]	; (8008fb4 <GUI_ALLOC_FreeFixedBlock+0x10>)
 8008fa8:	6bd3      	ldr	r3, [r2, #60]	; 0x3c
 8008faa:	6003      	str	r3, [r0, #0]
 8008fac:	b103      	cbz	r3, 8008fb0 <GUI_ALLOC_FreeFixedBlock+0xc>
 8008fae:	6058      	str	r0, [r3, #4]
 8008fb0:	63d0      	str	r0, [r2, #60]	; 0x3c
 8008fb2:	4770      	bx	lr
 8008fb4:	20002e9c 	.word	0x20002e9c

08008fb8 <GUI_ALLOC_h2p>:
 8008fb8:	b128      	cbz	r0, 8008fc6 <GUI_ALLOC_h2p+0xe>
 8008fba:	4b03      	ldr	r3, [pc, #12]	; (8008fc8 <GUI_ALLOC_h2p+0x10>)
 8008fbc:	6b5b      	ldr	r3, [r3, #52]	; 0x34
 8008fbe:	eb03 00c0 	add.w	r0, r3, r0, lsl #3
 8008fc2:	6840      	ldr	r0, [r0, #4]
 8008fc4:	3008      	adds	r0, #8
 8008fc6:	4770      	bx	lr
 8008fc8:	20002e9c 	.word	0x20002e9c

08008fcc <GUI_ALLOC_LockH>:
 8008fcc:	4b05      	ldr	r3, [pc, #20]	; (8008fe4 <GUI_ALLOC_LockH+0x18>)
 8008fce:	69d9      	ldr	r1, [r3, #28]
 8008fd0:	3101      	adds	r1, #1
 8008fd2:	61d9      	str	r1, [r3, #28]
 8008fd4:	6b5b      	ldr	r3, [r3, #52]	; 0x34
 8008fd6:	f813 1030 	ldrb.w	r1, [r3, r0, lsl #3]
 8008fda:	3101      	adds	r1, #1
 8008fdc:	f803 1030 	strb.w	r1, [r3, r0, lsl #3]
 8008fe0:	f7ff bfea 	b.w	8008fb8 <GUI_ALLOC_h2p>
 8008fe4:	20002e9c 	.word	0x20002e9c

08008fe8 <GUI_ALLOC_UnlockH>:
 8008fe8:	b530      	push	{r4, r5, lr}
 8008fea:	6802      	ldr	r2, [r0, #0]
 8008fec:	4b09      	ldr	r3, [pc, #36]	; (8009014 <GUI_ALLOC_UnlockH+0x2c>)
 8008fee:	f852 1c08 	ldr.w	r1, [r2, #-8]
 8008ff2:	6b5a      	ldr	r2, [r3, #52]	; 0x34
 8008ff4:	f812 4031 	ldrb.w	r4, [r2, r1, lsl #3]
 8008ff8:	2c01      	cmp	r4, #1
 8008ffa:	d903      	bls.n	8009004 <GUI_ALLOC_UnlockH+0x1c>
 8008ffc:	69dd      	ldr	r5, [r3, #28]
 8008ffe:	b10d      	cbz	r5, 8009004 <GUI_ALLOC_UnlockH+0x1c>
 8009000:	3d01      	subs	r5, #1
 8009002:	61dd      	str	r5, [r3, #28]
 8009004:	3c01      	subs	r4, #1
 8009006:	f802 4031 	strb.w	r4, [r2, r1, lsl #3]
 800900a:	2300      	movs	r3, #0
 800900c:	6003      	str	r3, [r0, #0]
 800900e:	4618      	mov	r0, r3
 8009010:	bd30      	pop	{r4, r5, pc}
 8009012:	bf00      	nop
 8009014:	20002e9c 	.word	0x20002e9c

08009018 <GUI_ALLOC_AssignMemory>:
 8009018:	4b02      	ldr	r3, [pc, #8]	; (8009024 <GUI_ALLOC_AssignMemory+0xc>)
 800901a:	f021 0103 	bic.w	r1, r1, #3
 800901e:	6018      	str	r0, [r3, #0]
 8009020:	6059      	str	r1, [r3, #4]
 8009022:	4770      	bx	lr
 8009024:	20000528 	.word	0x20000528

08009028 <GUI_ALLOC_Free>:
 8009028:	b510      	push	{r4, lr}
 800902a:	4604      	mov	r4, r0
 800902c:	b180      	cbz	r0, 8009050 <GUI_ALLOC_Free+0x28>
 800902e:	4b09      	ldr	r3, [pc, #36]	; (8009054 <GUI_ALLOC_Free+0x2c>)
 8009030:	6b5b      	ldr	r3, [r3, #52]	; 0x34
 8009032:	eb03 02c0 	add.w	r2, r3, r0, lsl #3
 8009036:	f813 3030 	ldrb.w	r3, [r3, r0, lsl #3]
 800903a:	2b01      	cmp	r3, #1
 800903c:	d108      	bne.n	8009050 <GUI_ALLOC_Free+0x28>
 800903e:	6851      	ldr	r1, [r2, #4]
 8009040:	6848      	ldr	r0, [r1, #4]
 8009042:	f7ff ff13 	bl	8008e6c <_AddFreeMemory>
 8009046:	4620      	mov	r0, r4
 8009048:	e8bd 4010 	ldmia.w	sp!, {r4, lr}
 800904c:	f7ff bec4 	b.w	8008dd8 <_PushFreeBlock>
 8009050:	bd10      	pop	{r4, pc}
 8009052:	bf00      	nop
 8009054:	20002e9c 	.word	0x20002e9c

08009058 <_EnlargeBlocks>:
 8009058:	e92d 41f0 	stmdb	sp!, {r4, r5, r6, r7, r8, lr}
 800905c:	4c22      	ldr	r4, [pc, #136]	; (80090e8 <_EnlargeBlocks+0x90>)
 800905e:	6ae3      	ldr	r3, [r4, #44]	; 0x2c
 8009060:	b93b      	cbnz	r3, 8009072 <_EnlargeBlocks+0x1a>
 8009062:	4b22      	ldr	r3, [pc, #136]	; (80090ec <_EnlargeBlocks+0x94>)
 8009064:	689d      	ldr	r5, [r3, #8]
 8009066:	685b      	ldr	r3, [r3, #4]
 8009068:	3508      	adds	r5, #8
 800906a:	fbb3 f5f5 	udiv	r5, r3, r5
 800906e:	3502      	adds	r5, #2
 8009070:	e003      	b.n	800907a <_EnlargeBlocks+0x22>
 8009072:	6923      	ldr	r3, [r4, #16]
 8009074:	1d1d      	adds	r5, r3, #4
 8009076:	eb05 05d3 	add.w	r5, r5, r3, lsr #3
 800907a:	00e8      	lsls	r0, r5, #3
 800907c:	f000 f944 	bl	8009308 <_Alloc>
 8009080:	4680      	mov	r8, r0
 8009082:	b360      	cbz	r0, 80090de <_EnlargeBlocks+0x86>
 8009084:	6b61      	ldr	r1, [r4, #52]	; 0x34
 8009086:	6922      	ldr	r2, [r4, #16]
 8009088:	6ae7      	ldr	r7, [r4, #44]	; 0x2c
 800908a:	eb01 03c0 	add.w	r3, r1, r0, lsl #3
 800908e:	00d2      	lsls	r2, r2, #3
 8009090:	685e      	ldr	r6, [r3, #4]
 8009092:	3608      	adds	r6, #8
 8009094:	4630      	mov	r0, r6
 8009096:	f7f7 fb77 	bl	8000788 <memcpy>
 800909a:	6922      	ldr	r2, [r4, #16]
 800909c:	6366      	str	r6, [r4, #52]	; 0x34
 800909e:	eb06 01c2 	add.w	r1, r6, r2, lsl #3
 80090a2:	f8c4 802c 	str.w	r8, [r4, #44]	; 0x2c
 80090a6:	3104      	adds	r1, #4
 80090a8:	4613      	mov	r3, r2
 80090aa:	1e68      	subs	r0, r5, #1
 80090ac:	4283      	cmp	r3, r0
 80090ae:	f101 0108 	add.w	r1, r1, #8
 80090b2:	d203      	bcs.n	80090bc <_EnlargeBlocks+0x64>
 80090b4:	3301      	adds	r3, #1
 80090b6:	f841 3c08 	str.w	r3, [r1, #-8]
 80090ba:	e7f6      	b.n	80090aa <_EnlargeBlocks+0x52>
 80090bc:	eb06 03c3 	add.w	r3, r6, r3, lsl #3
 80090c0:	2600      	movs	r6, #0
 80090c2:	605e      	str	r6, [r3, #4]
 80090c4:	6863      	ldr	r3, [r4, #4]
 80090c6:	6262      	str	r2, [r4, #36]	; 0x24
 80090c8:	1a9b      	subs	r3, r3, r2
 80090ca:	442b      	add	r3, r5
 80090cc:	6063      	str	r3, [r4, #4]
 80090ce:	6125      	str	r5, [r4, #16]
 80090d0:	4638      	mov	r0, r7
 80090d2:	b13f      	cbz	r7, 80090e4 <_EnlargeBlocks+0x8c>
 80090d4:	f7ff ffa8 	bl	8009028 <GUI_ALLOC_Free>
 80090d8:	4630      	mov	r0, r6
 80090da:	e8bd 81f0 	ldmia.w	sp!, {r4, r5, r6, r7, r8, pc}
 80090de:	2001      	movs	r0, #1
 80090e0:	e8bd 81f0 	ldmia.w	sp!, {r4, r5, r6, r7, r8, pc}
 80090e4:	e8bd 81f0 	ldmia.w	sp!, {r4, r5, r6, r7, r8, pc}
 80090e8:	20002e9c 	.word	0x20002e9c
 80090ec:	20000528 	.word	0x20000528

080090f0 <_InitOnce>:
 80090f0:	b5f8      	push	{r3, r4, r5, r6, r7, lr}
 80090f2:	4e58      	ldr	r6, [pc, #352]	; (8009254 <_InitOnce+0x164>)
 80090f4:	f896 1028 	ldrb.w	r1, [r6, #40]	; 0x28
 80090f8:	2900      	cmp	r1, #0
 80090fa:	f040 80aa 	bne.w	8009252 <_InitOnce+0x162>
 80090fe:	4d56      	ldr	r5, [pc, #344]	; (8009258 <_InitOnce+0x168>)
 8009100:	686a      	ldr	r2, [r5, #4]
 8009102:	2301      	movs	r3, #1
 8009104:	f886 3028 	strb.w	r3, [r6, #40]	; 0x28
 8009108:	f5b2 5f20 	cmp.w	r2, #10240	; 0x2800
 800910c:	bf28      	it	cs
 800910e:	f44f 5220 	movcs.w	r2, #10240	; 0x2800
 8009112:	682b      	ldr	r3, [r5, #0]
 8009114:	0894      	lsrs	r4, r2, #2
 8009116:	2000      	movs	r0, #0
 8009118:	42a0      	cmp	r0, r4
 800911a:	d00c      	beq.n	8009136 <_InitOnce+0x46>
 800911c:	1847      	adds	r7, r0, r1
 800911e:	f04f 0eff 	mov.w	lr, #255	; 0xff
 8009122:	fbb7 fefe 	udiv	lr, r7, lr
 8009126:	ebce 2e0e 	rsb	lr, lr, lr, lsl #8
 800912a:	ebce 0707 	rsb	r7, lr, r7
 800912e:	f843 7020 	str.w	r7, [r3, r0, lsl #2]
 8009132:	3001      	adds	r0, #1
 8009134:	e7f0      	b.n	8009118 <_InitOnce+0x28>
 8009136:	2000      	movs	r0, #0
 8009138:	42a0      	cmp	r0, r4
 800913a:	d016      	beq.n	800916a <_InitOnce+0x7a>
 800913c:	1847      	adds	r7, r0, r1
 800913e:	f04f 0eff 	mov.w	lr, #255	; 0xff
 8009142:	fbb7 fefe 	udiv	lr, r7, lr
 8009146:	ebce 2e0e 	rsb	lr, lr, lr, lsl #8
 800914a:	ebce 0e07 	rsb	lr, lr, r7
 800914e:	f853 7020 	ldr.w	r7, [r3, r0, lsl #2]
 8009152:	4577      	cmp	r7, lr
 8009154:	d007      	beq.n	8009166 <_InitOnce+0x76>
 8009156:	68aa      	ldr	r2, [r5, #8]
 8009158:	4b3f      	ldr	r3, [pc, #252]	; (8009258 <_InitOnce+0x168>)
 800915a:	2a00      	cmp	r2, #0
 800915c:	d155      	bne.n	800920a <_InitOnce+0x11a>
 800915e:	685a      	ldr	r2, [r3, #4]
 8009160:	0892      	lsrs	r2, r2, #2
 8009162:	609a      	str	r2, [r3, #8]
 8009164:	e051      	b.n	800920a <_InitOnce+0x11a>
 8009166:	3001      	adds	r0, #1
 8009168:	e7e6      	b.n	8009138 <_InitOnce+0x48>
 800916a:	3101      	adds	r1, #1
 800916c:	2902      	cmp	r1, #2
 800916e:	d1d2      	bne.n	8009116 <_InitOnce+0x26>
 8009170:	0854      	lsrs	r4, r2, #1
 8009172:	2100      	movs	r1, #0
 8009174:	2000      	movs	r0, #0
 8009176:	42a0      	cmp	r0, r4
 8009178:	d00c      	beq.n	8009194 <_InitOnce+0xa4>
 800917a:	1847      	adds	r7, r0, r1
 800917c:	f04f 0eff 	mov.w	lr, #255	; 0xff
 8009180:	fbb7 fefe 	udiv	lr, r7, lr
 8009184:	ebce 2e0e 	rsb	lr, lr, lr, lsl #8
 8009188:	ebce 0707 	rsb	r7, lr, r7
 800918c:	f823 7010 	strh.w	r7, [r3, r0, lsl #1]
 8009190:	3001      	adds	r0, #1
 8009192:	e7f0      	b.n	8009176 <_InitOnce+0x86>
 8009194:	2000      	movs	r0, #0
 8009196:	42a0      	cmp	r0, r4
 8009198:	d00f      	beq.n	80091ba <_InitOnce+0xca>
 800919a:	1847      	adds	r7, r0, r1
 800919c:	f04f 0eff 	mov.w	lr, #255	; 0xff
 80091a0:	fbb7 fefe 	udiv	lr, r7, lr
 80091a4:	ebce 2e0e 	rsb	lr, lr, lr, lsl #8
 80091a8:	ebce 0707 	rsb	r7, lr, r7
 80091ac:	f833 c010 	ldrh.w	ip, [r3, r0, lsl #1]
 80091b0:	b2bf      	uxth	r7, r7
 80091b2:	45bc      	cmp	ip, r7
 80091b4:	d1cf      	bne.n	8009156 <_InitOnce+0x66>
 80091b6:	3001      	adds	r0, #1
 80091b8:	e7ed      	b.n	8009196 <_InitOnce+0xa6>
 80091ba:	3101      	adds	r1, #1
 80091bc:	2902      	cmp	r1, #2
 80091be:	d1d9      	bne.n	8009174 <_InitOnce+0x84>
 80091c0:	2100      	movs	r1, #0
 80091c2:	2000      	movs	r0, #0
 80091c4:	4290      	cmp	r0, r2
 80091c6:	d007      	beq.n	80091d8 <_InitOnce+0xe8>
 80091c8:	1844      	adds	r4, r0, r1
 80091ca:	27ff      	movs	r7, #255	; 0xff
 80091cc:	fbb4 f7f7 	udiv	r7, r4, r7
 80091d0:	443c      	add	r4, r7
 80091d2:	541c      	strb	r4, [r3, r0]
 80091d4:	3001      	adds	r0, #1
 80091d6:	e7f5      	b.n	80091c4 <_InitOnce+0xd4>
 80091d8:	2000      	movs	r0, #0
 80091da:	4290      	cmp	r0, r2
 80091dc:	d00b      	beq.n	80091f6 <_InitOnce+0x106>
 80091de:	1844      	adds	r4, r0, r1
 80091e0:	27ff      	movs	r7, #255	; 0xff
 80091e2:	fbb4 f7f7 	udiv	r7, r4, r7
 80091e6:	443c      	add	r4, r7
 80091e8:	5c1f      	ldrb	r7, [r3, r0]
 80091ea:	f004 04ff 	and.w	r4, r4, #255	; 0xff
 80091ee:	42a7      	cmp	r7, r4
 80091f0:	d1b1      	bne.n	8009156 <_InitOnce+0x66>
 80091f2:	3001      	adds	r0, #1
 80091f4:	e7f1      	b.n	80091da <_InitOnce+0xea>
 80091f6:	3101      	adds	r1, #1
 80091f8:	2902      	cmp	r1, #2
 80091fa:	d1e2      	bne.n	80091c2 <_InitOnce+0xd2>
 80091fc:	2100      	movs	r1, #0
 80091fe:	4291      	cmp	r1, r2
 8009200:	d0a9      	beq.n	8009156 <_InitOnce+0x66>
 8009202:	2000      	movs	r0, #0
 8009204:	5458      	strb	r0, [r3, r1]
 8009206:	3101      	adds	r1, #1
 8009208:	e7f9      	b.n	80091fe <_InitOnce+0x10e>
 800920a:	4814      	ldr	r0, [pc, #80]	; (800925c <_InitOnce+0x16c>)
 800920c:	4b14      	ldr	r3, [pc, #80]	; (8009260 <_InitOnce+0x170>)
 800920e:	6003      	str	r3, [r0, #0]
 8009210:	f7ff fbae 	bl	8008970 <GUI__RegisterExit>
 8009214:	235a      	movs	r3, #90	; 0x5a
 8009216:	6233      	str	r3, [r6, #32]
 8009218:	2300      	movs	r3, #0
 800921a:	2110      	movs	r1, #16
 800921c:	eb06 02c3 	add.w	r2, r6, r3, lsl #3
 8009220:	4099      	lsls	r1, r3
 8009222:	3301      	adds	r3, #1
 8009224:	2b10      	cmp	r3, #16
 8009226:	4c0b      	ldr	r4, [pc, #44]	; (8009254 <_InitOnce+0x164>)
 8009228:	6411      	str	r1, [r2, #64]	; 0x40
 800922a:	d1f6      	bne.n	800921a <_InitOnce+0x12a>
 800922c:	6868      	ldr	r0, [r5, #4]
 800922e:	6829      	ldr	r1, [r5, #0]
 8009230:	63a1      	str	r1, [r4, #56]	; 0x38
 8009232:	2302      	movs	r3, #2
 8009234:	6123      	str	r3, [r4, #16]
 8009236:	f1a0 0314 	sub.w	r3, r0, #20
 800923a:	440b      	add	r3, r1
 800923c:	2501      	movs	r5, #1
 800923e:	6363      	str	r3, [r4, #52]	; 0x34
 8009240:	60e0      	str	r0, [r4, #12]
 8009242:	605d      	str	r5, [r3, #4]
 8009244:	6265      	str	r5, [r4, #36]	; 0x24
 8009246:	6065      	str	r5, [r4, #4]
 8009248:	f7ff fe10 	bl	8008e6c <_AddFreeMemory>
 800924c:	f7ff ff04 	bl	8009058 <_EnlargeBlocks>
 8009250:	6325      	str	r5, [r4, #48]	; 0x30
 8009252:	bdf8      	pop	{r3, r4, r5, r6, r7, pc}
 8009254:	20002e9c 	.word	0x20002e9c
 8009258:	20000528 	.word	0x20000528
 800925c:	20000534 	.word	0x20000534
 8009260:	08008dfd 	.word	0x08008dfd

08009264 <GUI_ALLOC_GetFixedBlock>:
 8009264:	e92d 41f0 	stmdb	sp!, {r4, r5, r6, r7, r8, lr}
 8009268:	4605      	mov	r5, r0
 800926a:	4e26      	ldr	r6, [pc, #152]	; (8009304 <GUI_ALLOC_GetFixedBlock+0xa0>)
 800926c:	3503      	adds	r5, #3
 800926e:	f7ff ff3f 	bl	80090f0 <_InitOnce>
 8009272:	f025 0503 	bic.w	r5, r5, #3
 8009276:	6c33      	ldr	r3, [r6, #64]	; 0x40
 8009278:	6bf2      	ldr	r2, [r6, #60]	; 0x3c
 800927a:	3504      	adds	r5, #4
 800927c:	429d      	cmp	r5, r3
 800927e:	bf38      	it	cc
 8009280:	461d      	movcc	r5, r3
 8009282:	4614      	mov	r4, r2
 8009284:	b12c      	cbz	r4, 8009292 <GUI_ALLOC_GetFixedBlock+0x2e>
 8009286:	f854 3c04 	ldr.w	r3, [r4, #-4]
 800928a:	42ab      	cmp	r3, r5
 800928c:	d02c      	beq.n	80092e8 <GUI_ALLOC_GetFixedBlock+0x84>
 800928e:	6824      	ldr	r4, [r4, #0]
 8009290:	e7f8      	b.n	8009284 <GUI_ALLOC_GetFixedBlock+0x20>
 8009292:	68f3      	ldr	r3, [r6, #12]
 8009294:	6bb2      	ldr	r2, [r6, #56]	; 0x38
 8009296:	eb02 0803 	add.w	r8, r2, r3
 800929a:	f858 7c04 	ldr.w	r7, [r8, #-4]
 800929e:	ebc7 0708 	rsb	r7, r7, r8
 80092a2:	683b      	ldr	r3, [r7, #0]
 80092a4:	b133      	cbz	r3, 80092b4 <GUI_ALLOC_GetFixedBlock+0x50>
 80092a6:	4620      	mov	r0, r4
 80092a8:	f7ff fe2e 	bl	8008f08 <_RemoveHoles>
 80092ac:	f858 7c04 	ldr.w	r7, [r8, #-4]
 80092b0:	ebc7 0708 	rsb	r7, r7, r8
 80092b4:	683b      	ldr	r3, [r7, #0]
 80092b6:	bb13      	cbnz	r3, 80092fe <GUI_ALLOC_GetFixedBlock+0x9a>
 80092b8:	687b      	ldr	r3, [r7, #4]
 80092ba:	42ab      	cmp	r3, r5
 80092bc:	db1f      	blt.n	80092fe <GUI_ALLOC_GetFixedBlock+0x9a>
 80092be:	4638      	mov	r0, r7
 80092c0:	1d1c      	adds	r4, r3, #4
 80092c2:	f7ff fdb7 	bl	8008e34 <_RemoveFreeBlock>
 80092c6:	68f3      	ldr	r3, [r6, #12]
 80092c8:	6878      	ldr	r0, [r7, #4]
 80092ca:	1b5b      	subs	r3, r3, r5
 80092cc:	60f3      	str	r3, [r6, #12]
 80092ce:	6973      	ldr	r3, [r6, #20]
 80092d0:	1b64      	subs	r4, r4, r5
 80092d2:	442b      	add	r3, r5
 80092d4:	1b40      	subs	r0, r0, r5
 80092d6:	443c      	add	r4, r7
 80092d8:	6173      	str	r3, [r6, #20]
 80092da:	d002      	beq.n	80092e2 <GUI_ALLOC_GetFixedBlock+0x7e>
 80092dc:	4639      	mov	r1, r7
 80092de:	f7ff fdc5 	bl	8008e6c <_AddFreeMemory>
 80092e2:	f844 5c04 	str.w	r5, [r4, #-4]
 80092e6:	e00a      	b.n	80092fe <GUI_ALLOC_GetFixedBlock+0x9a>
 80092e8:	6823      	ldr	r3, [r4, #0]
 80092ea:	b10b      	cbz	r3, 80092f0 <GUI_ALLOC_GetFixedBlock+0x8c>
 80092ec:	6861      	ldr	r1, [r4, #4]
 80092ee:	6059      	str	r1, [r3, #4]
 80092f0:	6861      	ldr	r1, [r4, #4]
 80092f2:	b101      	cbz	r1, 80092f6 <GUI_ALLOC_GetFixedBlock+0x92>
 80092f4:	600b      	str	r3, [r1, #0]
 80092f6:	42a2      	cmp	r2, r4
 80092f8:	d101      	bne.n	80092fe <GUI_ALLOC_GetFixedBlock+0x9a>
 80092fa:	6823      	ldr	r3, [r4, #0]
 80092fc:	63f3      	str	r3, [r6, #60]	; 0x3c
 80092fe:	4620      	mov	r0, r4
 8009300:	e8bd 81f0 	ldmia.w	sp!, {r4, r5, r6, r7, r8, pc}
 8009304:	20002e9c 	.word	0x20002e9c

08009308 <_Alloc>:
 8009308:	e92d 43f8 	stmdb	sp!, {r3, r4, r5, r6, r7, r8, r9, lr}
 800930c:	4d3a      	ldr	r5, [pc, #232]	; (80093f8 <_Alloc+0xf0>)
 800930e:	4604      	mov	r4, r0
 8009310:	f7ff feee 	bl	80090f0 <_InitOnce>
 8009314:	6c2f      	ldr	r7, [r5, #64]	; 0x40
 8009316:	682b      	ldr	r3, [r5, #0]
 8009318:	42bc      	cmp	r4, r7
 800931a:	bf24      	itt	cs
 800931c:	1ce7      	addcs	r7, r4, #3
 800931e:	f027 0703 	biccs.w	r7, r7, #3
 8009322:	370c      	adds	r7, #12
 8009324:	429f      	cmp	r7, r3
 8009326:	4c34      	ldr	r4, [pc, #208]	; (80093f8 <_Alloc+0xf0>)
 8009328:	d842      	bhi.n	80093b0 <_Alloc+0xa8>
 800932a:	6b23      	ldr	r3, [r4, #48]	; 0x30
 800932c:	6862      	ldr	r2, [r4, #4]
 800932e:	429a      	cmp	r2, r3
 8009330:	d90f      	bls.n	8009352 <_Alloc+0x4a>
 8009332:	686b      	ldr	r3, [r5, #4]
 8009334:	6a6e      	ldr	r6, [r5, #36]	; 0x24
 8009336:	3b01      	subs	r3, #1
 8009338:	606b      	str	r3, [r5, #4]
 800933a:	6b6b      	ldr	r3, [r5, #52]	; 0x34
 800933c:	ea4f 09c6 	mov.w	r9, r6, lsl #3
 8009340:	eb03 0209 	add.w	r2, r3, r9
 8009344:	6852      	ldr	r2, [r2, #4]
 8009346:	626a      	str	r2, [r5, #36]	; 0x24
 8009348:	2201      	movs	r2, #1
 800934a:	f803 2036 	strb.w	r2, [r3, r6, lsl #3]
 800934e:	b956      	cbnz	r6, 8009366 <_Alloc+0x5e>
 8009350:	e02e      	b.n	80093b0 <_Alloc+0xa8>
 8009352:	3b01      	subs	r3, #1
 8009354:	6323      	str	r3, [r4, #48]	; 0x30
 8009356:	f7ff fe7f 	bl	8009058 <_EnlargeBlocks>
 800935a:	6b23      	ldr	r3, [r4, #48]	; 0x30
 800935c:	3301      	adds	r3, #1
 800935e:	6323      	str	r3, [r4, #48]	; 0x30
 8009360:	2800      	cmp	r0, #0
 8009362:	d0e6      	beq.n	8009332 <_Alloc+0x2a>
 8009364:	e024      	b.n	80093b0 <_Alloc+0xa8>
 8009366:	230f      	movs	r3, #15
 8009368:	eb05 02c3 	add.w	r2, r5, r3, lsl #3
 800936c:	6c12      	ldr	r2, [r2, #64]	; 0x40
 800936e:	4297      	cmp	r7, r2
 8009370:	d208      	bcs.n	8009384 <_Alloc+0x7c>
 8009372:	f113 33ff 	adds.w	r3, r3, #4294967295
 8009376:	d2f7      	bcs.n	8009368 <_Alloc+0x60>
 8009378:	e004      	b.n	8009384 <_Alloc+0x7c>
 800937a:	eb05 02c3 	add.w	r2, r5, r3, lsl #3
 800937e:	6c52      	ldr	r2, [r2, #68]	; 0x44
 8009380:	b91a      	cbnz	r2, 800938a <_Alloc+0x82>
 8009382:	3301      	adds	r3, #1
 8009384:	2b0f      	cmp	r3, #15
 8009386:	d9f8      	bls.n	800937a <_Alloc+0x72>
 8009388:	e00a      	b.n	80093a0 <_Alloc+0x98>
 800938a:	6894      	ldr	r4, [r2, #8]
 800938c:	2c00      	cmp	r4, #0
 800938e:	d0f8      	beq.n	8009382 <_Alloc+0x7a>
 8009390:	6862      	ldr	r2, [r4, #4]
 8009392:	4297      	cmp	r7, r2
 8009394:	d90f      	bls.n	80093b6 <_Alloc+0xae>
 8009396:	68a2      	ldr	r2, [r4, #8]
 8009398:	2a00      	cmp	r2, #0
 800939a:	d0f2      	beq.n	8009382 <_Alloc+0x7a>
 800939c:	6894      	ldr	r4, [r2, #8]
 800939e:	e7f7      	b.n	8009390 <_Alloc+0x88>
 80093a0:	4638      	mov	r0, r7
 80093a2:	f7ff fdb1 	bl	8008f08 <_RemoveHoles>
 80093a6:	2800      	cmp	r0, #0
 80093a8:	d0dd      	beq.n	8009366 <_Alloc+0x5e>
 80093aa:	4630      	mov	r0, r6
 80093ac:	f7ff fd14 	bl	8008dd8 <_PushFreeBlock>
 80093b0:	2000      	movs	r0, #0
 80093b2:	e8bd 83f8 	ldmia.w	sp!, {r3, r4, r5, r6, r7, r8, r9, pc}
 80093b6:	f8d4 8004 	ldr.w	r8, [r4, #4]
 80093ba:	6c2b      	ldr	r3, [r5, #64]	; 0x40
 80093bc:	ebc7 0208 	rsb	r2, r7, r8
 80093c0:	330c      	adds	r3, #12
 80093c2:	4620      	mov	r0, r4
 80093c4:	429a      	cmp	r2, r3
 80093c6:	bf38      	it	cc
 80093c8:	4647      	movcc	r7, r8
 80093ca:	f7ff fd33 	bl	8008e34 <_RemoveFreeBlock>
 80093ce:	6b6b      	ldr	r3, [r5, #52]	; 0x34
 80093d0:	444b      	add	r3, r9
 80093d2:	19e1      	adds	r1, r4, r7
 80093d4:	605c      	str	r4, [r3, #4]
 80093d6:	45b8      	cmp	r8, r7
 80093d8:	f04f 0300 	mov.w	r3, #0
 80093dc:	e884 00c0 	stmia.w	r4, {r6, r7}
 80093e0:	60a3      	str	r3, [r4, #8]
 80093e2:	6124      	str	r4, [r4, #16]
 80093e4:	f841 7c04 	str.w	r7, [r1, #-4]
 80093e8:	dd03      	ble.n	80093f2 <_Alloc+0xea>
 80093ea:	ebc7 0008 	rsb	r0, r7, r8
 80093ee:	f7ff fd3d 	bl	8008e6c <_AddFreeMemory>
 80093f2:	4630      	mov	r0, r6
 80093f4:	e8bd 83f8 	ldmia.w	sp!, {r3, r4, r5, r6, r7, r8, r9, pc}
 80093f8:	20002e9c 	.word	0x20002e9c

080093fc <GUI_ALLOC_AllocNoInit>:
 80093fc:	b108      	cbz	r0, 8009402 <GUI_ALLOC_AllocNoInit+0x6>
 80093fe:	f7ff bf83 	b.w	8009308 <_Alloc>
 8009402:	4770      	bx	lr

08009404 <GUI_ALLOC_AllocZero>:
 8009404:	b573      	push	{r0, r1, r4, r5, r6, lr}
 8009406:	4605      	mov	r5, r0
 8009408:	f7ff fff8 	bl	80093fc <GUI_ALLOC_AllocNoInit>
 800940c:	4606      	mov	r6, r0
 800940e:	b158      	cbz	r0, 8009428 <GUI_ALLOC_AllocZero+0x24>
 8009410:	f7ff fddc 	bl	8008fcc <GUI_ALLOC_LockH>
 8009414:	ac02      	add	r4, sp, #8
 8009416:	2100      	movs	r1, #0
 8009418:	f844 0d04 	str.w	r0, [r4, #-4]!
 800941c:	462a      	mov	r2, r5
 800941e:	f7fe ff53 	bl	80082c8 <GUI__memset>
 8009422:	4620      	mov	r0, r4
 8009424:	f7ff fde0 	bl	8008fe8 <GUI_ALLOC_UnlockH>
 8009428:	4630      	mov	r0, r6
 800942a:	b002      	add	sp, #8
 800942c:	bd70      	pop	{r4, r5, r6, pc}
	...

08009430 <LCD_Index2Color_565>:
 8009430:	f3c0 1345 	ubfx	r3, r0, #5, #6
 8009434:	4a06      	ldr	r2, [pc, #24]	; (8009450 <LCD_Index2Color_565+0x20>)
 8009436:	5cd1      	ldrb	r1, [r2, r3]
 8009438:	4b06      	ldr	r3, [pc, #24]	; (8009454 <LCD_Index2Color_565+0x24>)
 800943a:	f3c0 22c4 	ubfx	r2, r0, #11, #5
 800943e:	f000 001f 	and.w	r0, r0, #31
 8009442:	5c9a      	ldrb	r2, [r3, r2]
 8009444:	5c18      	ldrb	r0, [r3, r0]
 8009446:	0412      	lsls	r2, r2, #16
 8009448:	eb02 2201 	add.w	r2, r2, r1, lsl #8
 800944c:	4410      	add	r0, r2
 800944e:	4770      	bx	lr
 8009450:	0800e19e 	.word	0x0800e19e
 8009454:	0800e1de 	.word	0x0800e1de

08009458 <_Color2Index_565>:
 8009458:	f3c0 2307 	ubfx	r3, r0, #8, #8
 800945c:	4a06      	ldr	r2, [pc, #24]	; (8009478 <_Color2Index_565+0x20>)
 800945e:	5cd1      	ldrb	r1, [r2, r3]
 8009460:	4b06      	ldr	r3, [pc, #24]	; (800947c <_Color2Index_565+0x24>)
 8009462:	f3c0 4207 	ubfx	r2, r0, #16, #8
 8009466:	b2c0      	uxtb	r0, r0
 8009468:	5c9a      	ldrb	r2, [r3, r2]
 800946a:	5c18      	ldrb	r0, [r3, r0]
 800946c:	02d2      	lsls	r2, r2, #11
 800946e:	eb02 1241 	add.w	r2, r2, r1, lsl #5
 8009472:	4410      	add	r0, r2
 8009474:	4770      	bx	lr
 8009476:	bf00      	nop
 8009478:	0800e1fe 	.word	0x0800e1fe
 800947c:	0800e2fe 	.word	0x0800e2fe

08009480 <_GetIndexMask_565>:
 8009480:	f64f 70ff 	movw	r0, #65535	; 0xffff
 8009484:	4770      	bx	lr
	...

08009488 <_Color2IndexBulk>:
 8009488:	b5f0      	push	{r4, r5, r6, r7, lr}
 800948a:	f850 4b04 	ldr.w	r4, [r0], #4
 800948e:	4e0a      	ldr	r6, [pc, #40]	; (80094b8 <_Color2IndexBulk+0x30>)
 8009490:	f3c4 2507 	ubfx	r5, r4, #8, #8
 8009494:	3a01      	subs	r2, #1
 8009496:	5d77      	ldrb	r7, [r6, r5]
 8009498:	4d08      	ldr	r5, [pc, #32]	; (80094bc <_Color2IndexBulk+0x34>)
 800949a:	f3c4 4607 	ubfx	r6, r4, #16, #8
 800949e:	b2e4      	uxtb	r4, r4
 80094a0:	5dae      	ldrb	r6, [r5, r6]
 80094a2:	5d2c      	ldrb	r4, [r5, r4]
 80094a4:	ea4f 26c6 	mov.w	r6, r6, lsl #11
 80094a8:	eb06 1647 	add.w	r6, r6, r7, lsl #5
 80094ac:	4434      	add	r4, r6
 80094ae:	800c      	strh	r4, [r1, #0]
 80094b0:	4419      	add	r1, r3
 80094b2:	d1ea      	bne.n	800948a <_Color2IndexBulk+0x2>
 80094b4:	bdf0      	pop	{r4, r5, r6, r7, pc}
 80094b6:	bf00      	nop
 80094b8:	0800e1fe 	.word	0x0800e1fe
 80094bc:	0800e2fe 	.word	0x0800e2fe

080094c0 <_Index2ColorBulk>:
 80094c0:	b5f0      	push	{r4, r5, r6, r7, lr}
 80094c2:	1e54      	subs	r4, r2, #1
 80094c4:	fb03 0004 	mla	r0, r3, r4, r0
 80094c8:	f102 4480 	add.w	r4, r2, #1073741824	; 0x40000000
 80094cc:	3c01      	subs	r4, #1
 80094ce:	eb01 0184 	add.w	r1, r1, r4, lsl #2
 80094d2:	8805      	ldrh	r5, [r0, #0]
 80094d4:	4c0a      	ldr	r4, [pc, #40]	; (8009500 <_Index2ColorBulk+0x40>)
 80094d6:	0aee      	lsrs	r6, r5, #11
 80094d8:	f005 071f 	and.w	r7, r5, #31
 80094dc:	5da6      	ldrb	r6, [r4, r6]
 80094de:	5de4      	ldrb	r4, [r4, r7]
 80094e0:	f3c5 1545 	ubfx	r5, r5, #5, #6
 80094e4:	eb04 4406 	add.w	r4, r4, r6, lsl #16
 80094e8:	4e06      	ldr	r6, [pc, #24]	; (8009504 <_Index2ColorBulk+0x44>)
 80094ea:	5d75      	ldrb	r5, [r6, r5]
 80094ec:	3a01      	subs	r2, #1
 80094ee:	eb04 2405 	add.w	r4, r4, r5, lsl #8
 80094f2:	f841 4904 	str.w	r4, [r1], #-4
 80094f6:	ebc3 0000 	rsb	r0, r3, r0
 80094fa:	d1ea      	bne.n	80094d2 <_Index2ColorBulk+0x12>
 80094fc:	bdf0      	pop	{r4, r5, r6, r7, pc}
 80094fe:	bf00      	nop
 8009500:	0800e1de 	.word	0x0800e1de
 8009504:	0800e19e 	.word	0x0800e19e

08009508 <WM__SendMessage>:
 8009508:	b570      	push	{r4, r5, r6, lr}
 800950a:	4c0d      	ldr	r4, [pc, #52]	; (8009540 <WM__SendMessage+0x38>)
 800950c:	6823      	ldr	r3, [r4, #0]
 800950e:	2b13      	cmp	r3, #19
 8009510:	4606      	mov	r6, r0
 8009512:	460d      	mov	r5, r1
 8009514:	dc12      	bgt.n	800953c <WM__SendMessage+0x34>
 8009516:	f7ff fd4f 	bl	8008fb8 <GUI_ALLOC_h2p>
 800951a:	6903      	ldr	r3, [r0, #16]
 800951c:	606e      	str	r6, [r5, #4]
 800951e:	b143      	cbz	r3, 8009532 <WM__SendMessage+0x2a>
 8009520:	6822      	ldr	r2, [r4, #0]
 8009522:	4628      	mov	r0, r5
 8009524:	3201      	adds	r2, #1
 8009526:	6022      	str	r2, [r4, #0]
 8009528:	4798      	blx	r3
 800952a:	6823      	ldr	r3, [r4, #0]
 800952c:	3b01      	subs	r3, #1
 800952e:	6023      	str	r3, [r4, #0]
 8009530:	bd70      	pop	{r4, r5, r6, pc}
 8009532:	4628      	mov	r0, r5
 8009534:	e8bd 4070 	ldmia.w	sp!, {r4, r5, r6, lr}
 8009538:	f7fd b8e4 	b.w	8006704 <WM_DefaultProc>
 800953c:	bd70      	pop	{r4, r5, r6, pc}
 800953e:	bf00      	nop
 8009540:	2000053c 	.word	0x2000053c

08009544 <WM_SendToParent>:
 8009544:	b538      	push	{r3, r4, r5, lr}
 8009546:	4605      	mov	r5, r0
 8009548:	460c      	mov	r4, r1
 800954a:	b141      	cbz	r1, 800955e <WM_SendToParent+0x1a>
 800954c:	f000 f808 	bl	8009560 <WM_GetParent>
 8009550:	b128      	cbz	r0, 800955e <WM_SendToParent+0x1a>
 8009552:	60a5      	str	r5, [r4, #8]
 8009554:	4621      	mov	r1, r4
 8009556:	e8bd 4038 	ldmia.w	sp!, {r3, r4, r5, lr}
 800955a:	f7ff bfd5 	b.w	8009508 <WM__SendMessage>
 800955e:	bd38      	pop	{r3, r4, r5, pc}

08009560 <WM_GetParent>:
 8009560:	b508      	push	{r3, lr}
 8009562:	4603      	mov	r3, r0
 8009564:	b110      	cbz	r0, 800956c <WM_GetParent+0xc>
 8009566:	f7ff fd27 	bl	8008fb8 <GUI_ALLOC_h2p>
 800956a:	6983      	ldr	r3, [r0, #24]
 800956c:	4618      	mov	r0, r3
 800956e:	bd08      	pop	{r3, pc}

08009570 <WM_GetFirstChild>:
 8009570:	b508      	push	{r3, lr}
 8009572:	4603      	mov	r3, r0
 8009574:	b110      	cbz	r0, 800957c <WM_GetFirstChild+0xc>
 8009576:	f7ff fd1f 	bl	8008fb8 <GUI_ALLOC_h2p>
 800957a:	69c3      	ldr	r3, [r0, #28]
 800957c:	4618      	mov	r0, r3
 800957e:	bd08      	pop	{r3, pc}

08009580 <WM_GetDesktopWindow>:
 8009580:	4b03      	ldr	r3, [pc, #12]	; (8009590 <WM_GetDesktopWindow+0x10>)
 8009582:	681b      	ldr	r3, [r3, #0]
 8009584:	7c5a      	ldrb	r2, [r3, #17]
 8009586:	4b03      	ldr	r3, [pc, #12]	; (8009594 <WM_GetDesktopWindow+0x14>)
 8009588:	f853 0022 	ldr.w	r0, [r3, r2, lsl #2]
 800958c:	4770      	bx	lr
 800958e:	bf00      	nop
 8009590:	20000008 	.word	0x20000008
 8009594:	20002e14 	.word	0x20002e14

08009598 <WM__GetClientRectEx>:
 8009598:	b537      	push	{r0, r1, r2, r4, r5, lr}
 800959a:	460d      	mov	r5, r1
 800959c:	b158      	cbz	r0, 80095b6 <WM__GetClientRectEx+0x1e>
 800959e:	b151      	cbz	r1, 80095b6 <WM__GetClientRectEx+0x1e>
 80095a0:	f7ff fd14 	bl	8008fcc <GUI_ALLOC_LockH>
 80095a4:	ac02      	add	r4, sp, #8
 80095a6:	4629      	mov	r1, r5
 80095a8:	f844 0d04 	str.w	r0, [r4, #-4]!
 80095ac:	f7fc fe2f 	bl	800620e <WM__GetClientRectWin>
 80095b0:	4620      	mov	r0, r4
 80095b2:	f7ff fd19 	bl	8008fe8 <GUI_ALLOC_UnlockH>
 80095b6:	b003      	add	sp, #12
 80095b8:	bd30      	pop	{r4, r5, pc}
	...

080095bc <WM__AddCriticalHandle>:
 80095bc:	4b02      	ldr	r3, [pc, #8]	; (80095c8 <WM__AddCriticalHandle+0xc>)
 80095be:	681a      	ldr	r2, [r3, #0]
 80095c0:	6002      	str	r2, [r0, #0]
 80095c2:	6018      	str	r0, [r3, #0]
 80095c4:	4770      	bx	lr
 80095c6:	bf00      	nop
 80095c8:	20002e48 	.word	0x20002e48

080095cc <WM_BringToBottom>:
 80095cc:	e92d 43f0 	stmdb	sp!, {r4, r5, r6, r7, r8, r9, lr}
 80095d0:	4604      	mov	r4, r0
 80095d2:	b087      	sub	sp, #28
 80095d4:	2800      	cmp	r0, #0
 80095d6:	d039      	beq.n	800964c <WM_BringToBottom+0x80>
 80095d8:	f7ff fcf8 	bl	8008fcc <GUI_ALLOC_LockH>
 80095dc:	4603      	mov	r3, r0
 80095de:	9001      	str	r0, [sp, #4]
 80095e0:	c803      	ldmia	r0, {r0, r1}
 80095e2:	ad04      	add	r5, sp, #16
 80095e4:	e885 0003 	stmia.w	r5, {r0, r1}
 80095e8:	a801      	add	r0, sp, #4
 80095ea:	6a1e      	ldr	r6, [r3, #32]
 80095ec:	f8d3 9028 	ldr.w	r9, [r3, #40]	; 0x28
 80095f0:	f7ff fcfa 	bl	8008fe8 <GUI_ALLOC_UnlockH>
 80095f4:	4620      	mov	r0, r4
 80095f6:	f001 fc10 	bl	800ae1a <WM__GetPrevSibling>
 80095fa:	4607      	mov	r7, r0
 80095fc:	b330      	cbz	r0, 800964c <WM_BringToBottom+0x80>
 80095fe:	4620      	mov	r0, r4
 8009600:	f7ff ffae 	bl	8009560 <WM_GetParent>
 8009604:	f019 0f02 	tst.w	r9, #2
 8009608:	4680      	mov	r8, r0
 800960a:	d004      	beq.n	8009616 <WM_BringToBottom+0x4a>
 800960c:	4628      	mov	r0, r5
 800960e:	4641      	mov	r1, r8
 8009610:	4632      	mov	r2, r6
 8009612:	f7fc fdee 	bl	80061f2 <WM__InvalidateRectEx>
 8009616:	4620      	mov	r0, r4
 8009618:	f7ff fcd8 	bl	8008fcc <GUI_ALLOC_LockH>
 800961c:	9001      	str	r0, [sp, #4]
 800961e:	4640      	mov	r0, r8
 8009620:	f7ff fcd4 	bl	8008fcc <GUI_ALLOC_LockH>
 8009624:	9003      	str	r0, [sp, #12]
 8009626:	4638      	mov	r0, r7
 8009628:	f7ff fcd0 	bl	8008fcc <GUI_ALLOC_LockH>
 800962c:	9b03      	ldr	r3, [sp, #12]
 800962e:	9a01      	ldr	r2, [sp, #4]
 8009630:	69d9      	ldr	r1, [r3, #28]
 8009632:	6206      	str	r6, [r0, #32]
 8009634:	9002      	str	r0, [sp, #8]
 8009636:	6211      	str	r1, [r2, #32]
 8009638:	a801      	add	r0, sp, #4
 800963a:	61dc      	str	r4, [r3, #28]
 800963c:	f7ff fcd4 	bl	8008fe8 <GUI_ALLOC_UnlockH>
 8009640:	a803      	add	r0, sp, #12
 8009642:	f7ff fcd1 	bl	8008fe8 <GUI_ALLOC_UnlockH>
 8009646:	a802      	add	r0, sp, #8
 8009648:	f7ff fcce 	bl	8008fe8 <GUI_ALLOC_UnlockH>
 800964c:	b007      	add	sp, #28
 800964e:	e8bd 83f0 	ldmia.w	sp!, {r4, r5, r6, r7, r8, r9, pc}

08009652 <_Convert16>:
 8009652:	e92d 4ff8 	stmdb	sp!, {r3, r4, r5, r6, r7, r8, r9, sl, fp, lr}
 8009656:	f8dd b028 	ldr.w	fp, [sp, #40]	; 0x28
 800965a:	f8dd a02c 	ldr.w	sl, [sp, #44]	; 0x2c
 800965e:	4605      	mov	r5, r0
 8009660:	460e      	mov	r6, r1
 8009662:	4690      	mov	r8, r2
 8009664:	461f      	mov	r7, r3
 8009666:	4614      	mov	r4, r2
 8009668:	4689      	mov	r9, r1
 800966a:	f835 0b02 	ldrh.w	r0, [r5], #2
 800966e:	47d8      	blx	fp
 8009670:	47d0      	blx	sl
 8009672:	3c01      	subs	r4, #1
 8009674:	f849 0b04 	str.w	r0, [r9], #4
 8009678:	d1f7      	bne.n	800966a <_Convert16+0x18>
 800967a:	2f1f      	cmp	r7, #31
 800967c:	d806      	bhi.n	800968c <_Convert16+0x3a>
 800967e:	4630      	mov	r0, r6
 8009680:	4641      	mov	r1, r8
 8009682:	463a      	mov	r2, r7
 8009684:	e8bd 4ff8 	ldmia.w	sp!, {r3, r4, r5, r6, r7, r8, r9, sl, fp, lr}
 8009688:	f001 b982 	b.w	800a990 <GUI__CompactPixelIndices>
 800968c:	e8bd 8ff8 	ldmia.w	sp!, {r3, r4, r5, r6, r7, r8, r9, sl, fp, pc}

08009690 <_Convert8>:
 8009690:	e92d 4ff8 	stmdb	sp!, {r3, r4, r5, r6, r7, r8, r9, sl, fp, lr}
 8009694:	f8dd b028 	ldr.w	fp, [sp, #40]	; 0x28
 8009698:	f8dd a02c 	ldr.w	sl, [sp, #44]	; 0x2c
 800969c:	4605      	mov	r5, r0
 800969e:	460e      	mov	r6, r1
 80096a0:	4690      	mov	r8, r2
 80096a2:	461f      	mov	r7, r3
 80096a4:	4689      	mov	r9, r1
 80096a6:	4604      	mov	r4, r0
 80096a8:	f814 0b01 	ldrb.w	r0, [r4], #1
 80096ac:	47d8      	blx	fp
 80096ae:	47d0      	blx	sl
 80096b0:	1b2b      	subs	r3, r5, r4
 80096b2:	4443      	add	r3, r8
 80096b4:	f849 0b04 	str.w	r0, [r9], #4
 80096b8:	2b00      	cmp	r3, #0
 80096ba:	d1f5      	bne.n	80096a8 <_Convert8+0x18>
 80096bc:	2f1f      	cmp	r7, #31
 80096be:	d806      	bhi.n	80096ce <_Convert8+0x3e>
 80096c0:	4630      	mov	r0, r6
 80096c2:	4641      	mov	r1, r8
 80096c4:	463a      	mov	r2, r7
 80096c6:	e8bd 4ff8 	ldmia.w	sp!, {r3, r4, r5, r6, r7, r8, r9, sl, fp, lr}
 80096ca:	f001 b961 	b.w	800a990 <GUI__CompactPixelIndices>
 80096ce:	e8bd 8ff8 	ldmia.w	sp!, {r3, r4, r5, r6, r7, r8, r9, sl, fp, pc}
	...

080096d4 <GUI_MEMDEV__WriteToActiveOpaque>:
 80096d4:	e92d 4ff0 	stmdb	sp!, {r4, r5, r6, r7, r8, r9, sl, fp, lr}
 80096d8:	b09d      	sub	sp, #116	; 0x74
 80096da:	4606      	mov	r6, r0
 80096dc:	910f      	str	r1, [sp, #60]	; 0x3c
 80096de:	920d      	str	r2, [sp, #52]	; 0x34
 80096e0:	f7ff fc74 	bl	8008fcc <GUI_ALLOC_LockH>
 80096e4:	ab1c      	add	r3, sp, #112	; 0x70
 80096e6:	6944      	ldr	r4, [r0, #20]
 80096e8:	f843 0d1c 	str.w	r0, [r3, #-28]!
 80096ec:	4618      	mov	r0, r3
 80096ee:	f7ff fc7b 	bl	8008fe8 <GUI_ALLOC_UnlockH>
 80096f2:	4630      	mov	r0, r6
 80096f4:	f7fd f8e7 	bl	80068c6 <GUI_MEMDEV_GetBitsPerPixel>
 80096f8:	2808      	cmp	r0, #8
 80096fa:	4601      	mov	r1, r0
 80096fc:	dd02      	ble.n	8009704 <GUI_MEMDEV__WriteToActiveOpaque+0x30>
 80096fe:	2c00      	cmp	r4, #0
 8009700:	f000 81c3 	beq.w	8009a8a <GUI_MEMDEV__WriteToActiveOpaque+0x3b6>
 8009704:	2201      	movs	r2, #1
 8009706:	f04f 0800 	mov.w	r8, #0
 800970a:	4630      	mov	r0, r6
 800970c:	921b      	str	r2, [sp, #108]	; 0x6c
 800970e:	920b      	str	r2, [sp, #44]	; 0x2c
 8009710:	f8cd 8068 	str.w	r8, [sp, #104]	; 0x68
 8009714:	f7ff fc5a 	bl	8008fcc <GUI_ALLOC_LockH>
 8009718:	6803      	ldr	r3, [r0, #0]
 800971a:	f8df a610 	ldr.w	sl, [pc, #1552]	; 8009d2c <GUI_MEMDEV__WriteToActiveOpaque+0x658>
 800971e:	691b      	ldr	r3, [r3, #16]
 8009720:	f9b0 100a 	ldrsh.w	r1, [r0, #10]
 8009724:	685b      	ldr	r3, [r3, #4]
 8009726:	930e      	str	r3, [sp, #56]	; 0x38
 8009728:	f10d 0b70 	add.w	fp, sp, #112	; 0x70
 800972c:	f8da 3000 	ldr.w	r3, [sl]
 8009730:	f84b 0d14 	str.w	r0, [fp, #-20]!
 8009734:	6904      	ldr	r4, [r0, #16]
 8009736:	6945      	ldr	r5, [r0, #20]
 8009738:	f8d0 900c 	ldr.w	r9, [r0, #12]
 800973c:	f9b0 7008 	ldrsh.w	r7, [r0, #8]
 8009740:	7c58      	ldrb	r0, [r3, #17]
 8009742:	9112      	str	r1, [sp, #72]	; 0x48
 8009744:	f7fe f9f4 	bl	8007b30 <GUI_GetBitsPerPixelEx>
 8009748:	f8da 3000 	ldr.w	r3, [sl]
 800974c:	9010      	str	r0, [sp, #64]	; 0x40
 800974e:	7c58      	ldrb	r0, [r3, #17]
 8009750:	f7fe fa0c 	bl	8007b6c <GUI_GetpfIndex2ColorEx>
 8009754:	4603      	mov	r3, r0
 8009756:	4658      	mov	r0, fp
 8009758:	9309      	str	r3, [sp, #36]	; 0x24
 800975a:	f7ff fc45 	bl	8008fe8 <GUI_ALLOC_UnlockH>
 800975e:	2c08      	cmp	r4, #8
 8009760:	4651      	mov	r1, sl
 8009762:	9a0b      	ldr	r2, [sp, #44]	; 0x2c
 8009764:	9b09      	ldr	r3, [sp, #36]	; 0x24
 8009766:	d904      	bls.n	8009772 <GUI_MEMDEV__WriteToActiveOpaque+0x9e>
 8009768:	2c10      	cmp	r4, #16
 800976a:	bf8c      	ite	hi
 800976c:	2204      	movhi	r2, #4
 800976e:	2202      	movls	r2, #2
 8009770:	e005      	b.n	800977e <GUI_MEMDEV__WriteToActiveOpaque+0xaa>
 8009772:	2c01      	cmp	r4, #1
 8009774:	d103      	bne.n	800977e <GUI_MEMDEV__WriteToActiveOpaque+0xaa>
 8009776:	9411      	str	r4, [sp, #68]	; 0x44
 8009778:	f10d 0868 	add.w	r8, sp, #104	; 0x68
 800977c:	e000      	b.n	8009780 <GUI_MEMDEV__WriteToActiveOpaque+0xac>
 800977e:	9211      	str	r2, [sp, #68]	; 0x44
 8009780:	980e      	ldr	r0, [sp, #56]	; 0x38
 8009782:	4298      	cmp	r0, r3
 8009784:	f000 80e2 	beq.w	800994c <GUI_MEMDEV__WriteToActiveOpaque+0x278>
 8009788:	680b      	ldr	r3, [r1, #0]
 800978a:	7c58      	ldrb	r0, [r3, #17]
 800978c:	f7fe f9f6 	bl	8007b7c <GUI_GetpfColor2IndexEx>
 8009790:	9013      	str	r0, [sp, #76]	; 0x4c
 8009792:	00b8      	lsls	r0, r7, #2
 8009794:	f7ff fe32 	bl	80093fc <GUI_ALLOC_AllocNoInit>
 8009798:	900c      	str	r0, [sp, #48]	; 0x30
 800979a:	2800      	cmp	r0, #0
 800979c:	f000 8327 	beq.w	8009dee <GUI_MEMDEV__WriteToActiveOpaque+0x71a>
 80097a0:	4630      	mov	r0, r6
 80097a2:	f7fd f881 	bl	80068a8 <GUI_MEMDEV_GetDataPtr>
 80097a6:	4606      	mov	r6, r0
 80097a8:	2d00      	cmp	r5, #0
 80097aa:	f000 80be 	beq.w	800992a <GUI_MEMDEV__WriteToActiveOpaque+0x256>
 80097ae:	4628      	mov	r0, r5
 80097b0:	f7ff fc0c 	bl	8008fcc <GUI_ALLOC_LockH>
 80097b4:	f8dd b034 	ldr.w	fp, [sp, #52]	; 0x34
 80097b8:	9018      	str	r0, [sp, #96]	; 0x60
 80097ba:	f04f 0a00 	mov.w	sl, #0
 80097be:	9a12      	ldr	r2, [sp, #72]	; 0x48
 80097c0:	4592      	cmp	sl, r2
 80097c2:	f280 80ae 	bge.w	8009922 <GUI_MEMDEV__WriteToActiveOpaque+0x24e>
 80097c6:	9818      	ldr	r0, [sp, #96]	; 0x60
 80097c8:	2300      	movs	r3, #0
 80097ca:	9319      	str	r3, [sp, #100]	; 0x64
 80097cc:	6883      	ldr	r3, [r0, #8]
 80097ce:	a919      	add	r1, sp, #100	; 0x64
 80097d0:	695b      	ldr	r3, [r3, #20]
 80097d2:	4652      	mov	r2, sl
 80097d4:	4798      	blx	r3
 80097d6:	42b8      	cmp	r0, r7
 80097d8:	4605      	mov	r5, r0
 80097da:	d12f      	bne.n	800983c <GUI_MEMDEV__WriteToActiveOpaque+0x168>
 80097dc:	980c      	ldr	r0, [sp, #48]	; 0x30
 80097de:	f7ff fbf5 	bl	8008fcc <GUI_ALLOC_LockH>
 80097e2:	2c08      	cmp	r4, #8
 80097e4:	4601      	mov	r1, r0
 80097e6:	9016      	str	r0, [sp, #88]	; 0x58
 80097e8:	d909      	bls.n	80097fe <GUI_MEMDEV__WriteToActiveOpaque+0x12a>
 80097ea:	9a0e      	ldr	r2, [sp, #56]	; 0x38
 80097ec:	9b13      	ldr	r3, [sp, #76]	; 0x4c
 80097ee:	9200      	str	r2, [sp, #0]
 80097f0:	9301      	str	r3, [sp, #4]
 80097f2:	4630      	mov	r0, r6
 80097f4:	463a      	mov	r2, r7
 80097f6:	9b10      	ldr	r3, [sp, #64]	; 0x40
 80097f8:	f7ff ff2b 	bl	8009652 <_Convert16>
 80097fc:	e008      	b.n	8009810 <GUI_MEMDEV__WriteToActiveOpaque+0x13c>
 80097fe:	980e      	ldr	r0, [sp, #56]	; 0x38
 8009800:	9a13      	ldr	r2, [sp, #76]	; 0x4c
 8009802:	9000      	str	r0, [sp, #0]
 8009804:	9201      	str	r2, [sp, #4]
 8009806:	4630      	mov	r0, r6
 8009808:	463a      	mov	r2, r7
 800980a:	9b10      	ldr	r3, [sp, #64]	; 0x40
 800980c:	f7ff ff40 	bl	8009690 <_Convert8>
 8009810:	2301      	movs	r3, #1
 8009812:	9810      	ldr	r0, [sp, #64]	; 0x40
 8009814:	9002      	str	r0, [sp, #8]
 8009816:	ad1c      	add	r5, sp, #112	; 0x70
 8009818:	2200      	movs	r2, #0
 800981a:	9300      	str	r3, [sp, #0]
 800981c:	9301      	str	r3, [sp, #4]
 800981e:	9203      	str	r2, [sp, #12]
 8009820:	f855 2d18 	ldr.w	r2, [r5, #-24]!
 8009824:	9204      	str	r2, [sp, #16]
 8009826:	980f      	ldr	r0, [sp, #60]	; 0x3c
 8009828:	f8cd 8014 	str.w	r8, [sp, #20]
 800982c:	4659      	mov	r1, fp
 800982e:	463a      	mov	r2, r7
 8009830:	f7fe fb7e 	bl	8007f30 <LCD_DrawBitmap>
 8009834:	4628      	mov	r0, r5
 8009836:	f7ff fbd7 	bl	8008fe8 <GUI_ALLOC_UnlockH>
 800983a:	e060      	b.n	80098fe <GUI_MEMDEV__WriteToActiveOpaque+0x22a>
 800983c:	2c01      	cmp	r4, #1
 800983e:	d15c      	bne.n	80098fa <GUI_MEMDEV__WriteToActiveOpaque+0x226>
 8009840:	2d00      	cmp	r5, #0
 8009842:	d05c      	beq.n	80098fe <GUI_MEMDEV__WriteToActiveOpaque+0x22a>
 8009844:	9819      	ldr	r0, [sp, #100]	; 0x64
 8009846:	990f      	ldr	r1, [sp, #60]	; 0x3c
 8009848:	f8cd 900c 	str.w	r9, [sp, #12]
 800984c:	2208      	movs	r2, #8
 800984e:	fb90 f2f2 	sdiv	r2, r0, r2
 8009852:	4432      	add	r2, r6
 8009854:	2301      	movs	r3, #1
 8009856:	9204      	str	r2, [sp, #16]
 8009858:	f000 0207 	and.w	r2, r0, #7
 800985c:	9300      	str	r3, [sp, #0]
 800985e:	4408      	add	r0, r1
 8009860:	9301      	str	r3, [sp, #4]
 8009862:	9302      	str	r3, [sp, #8]
 8009864:	9206      	str	r2, [sp, #24]
 8009866:	4659      	mov	r1, fp
 8009868:	462a      	mov	r2, r5
 800986a:	f8cd 8014 	str.w	r8, [sp, #20]
 800986e:	f7fe fa7f 	bl	8007d70 <LCD__DrawBitmap_1bpp>
 8009872:	9b19      	ldr	r3, [sp, #100]	; 0x64
 8009874:	9818      	ldr	r0, [sp, #96]	; 0x60
 8009876:	441d      	add	r5, r3
 8009878:	6883      	ldr	r3, [r0, #8]
 800987a:	9519      	str	r5, [sp, #100]	; 0x64
 800987c:	695b      	ldr	r3, [r3, #20]
 800987e:	a919      	add	r1, sp, #100	; 0x64
 8009880:	4652      	mov	r2, sl
 8009882:	4798      	blx	r3
 8009884:	4605      	mov	r5, r0
 8009886:	e7db      	b.n	8009840 <GUI_MEMDEV__WriteToActiveOpaque+0x16c>
 8009888:	980c      	ldr	r0, [sp, #48]	; 0x30
 800988a:	f7ff fb9f 	bl	8008fcc <GUI_ALLOC_LockH>
 800988e:	2c08      	cmp	r4, #8
 8009890:	4601      	mov	r1, r0
 8009892:	9016      	str	r0, [sp, #88]	; 0x58
 8009894:	9819      	ldr	r0, [sp, #100]	; 0x64
 8009896:	d938      	bls.n	800990a <GUI_MEMDEV__WriteToActiveOpaque+0x236>
 8009898:	9a0e      	ldr	r2, [sp, #56]	; 0x38
 800989a:	9200      	str	r2, [sp, #0]
 800989c:	9a11      	ldr	r2, [sp, #68]	; 0x44
 800989e:	9b13      	ldr	r3, [sp, #76]	; 0x4c
 80098a0:	9301      	str	r3, [sp, #4]
 80098a2:	fb00 6002 	mla	r0, r0, r2, r6
 80098a6:	9b10      	ldr	r3, [sp, #64]	; 0x40
 80098a8:	462a      	mov	r2, r5
 80098aa:	f7ff fed2 	bl	8009652 <_Convert16>
 80098ae:	2301      	movs	r3, #1
 80098b0:	f10d 0c70 	add.w	ip, sp, #112	; 0x70
 80098b4:	9810      	ldr	r0, [sp, #64]	; 0x40
 80098b6:	9300      	str	r3, [sp, #0]
 80098b8:	2200      	movs	r2, #0
 80098ba:	9301      	str	r3, [sp, #4]
 80098bc:	9002      	str	r0, [sp, #8]
 80098be:	990f      	ldr	r1, [sp, #60]	; 0x3c
 80098c0:	9203      	str	r2, [sp, #12]
 80098c2:	9819      	ldr	r0, [sp, #100]	; 0x64
 80098c4:	f85c 2d18 	ldr.w	r2, [ip, #-24]!
 80098c8:	9204      	str	r2, [sp, #16]
 80098ca:	4408      	add	r0, r1
 80098cc:	462a      	mov	r2, r5
 80098ce:	4659      	mov	r1, fp
 80098d0:	f8cd 8014 	str.w	r8, [sp, #20]
 80098d4:	f8cd c02c 	str.w	ip, [sp, #44]	; 0x2c
 80098d8:	f7fe fb2a 	bl	8007f30 <LCD_DrawBitmap>
 80098dc:	f8dd c02c 	ldr.w	ip, [sp, #44]	; 0x2c
 80098e0:	4660      	mov	r0, ip
 80098e2:	f7ff fb81 	bl	8008fe8 <GUI_ALLOC_UnlockH>
 80098e6:	9b19      	ldr	r3, [sp, #100]	; 0x64
 80098e8:	9818      	ldr	r0, [sp, #96]	; 0x60
 80098ea:	441d      	add	r5, r3
 80098ec:	6883      	ldr	r3, [r0, #8]
 80098ee:	9519      	str	r5, [sp, #100]	; 0x64
 80098f0:	695b      	ldr	r3, [r3, #20]
 80098f2:	a919      	add	r1, sp, #100	; 0x64
 80098f4:	4652      	mov	r2, sl
 80098f6:	4798      	blx	r3
 80098f8:	4605      	mov	r5, r0
 80098fa:	2d00      	cmp	r5, #0
 80098fc:	d1c4      	bne.n	8009888 <GUI_MEMDEV__WriteToActiveOpaque+0x1b4>
 80098fe:	444e      	add	r6, r9
 8009900:	f10a 0a01 	add.w	sl, sl, #1
 8009904:	f10b 0b01 	add.w	fp, fp, #1
 8009908:	e759      	b.n	80097be <GUI_MEMDEV__WriteToActiveOpaque+0xea>
 800990a:	9b0e      	ldr	r3, [sp, #56]	; 0x38
 800990c:	9300      	str	r3, [sp, #0]
 800990e:	9b11      	ldr	r3, [sp, #68]	; 0x44
 8009910:	9a13      	ldr	r2, [sp, #76]	; 0x4c
 8009912:	9201      	str	r2, [sp, #4]
 8009914:	fb00 6003 	mla	r0, r0, r3, r6
 8009918:	462a      	mov	r2, r5
 800991a:	9b10      	ldr	r3, [sp, #64]	; 0x40
 800991c:	f7ff feb8 	bl	8009690 <_Convert8>
 8009920:	e7c5      	b.n	80098ae <GUI_MEMDEV__WriteToActiveOpaque+0x1da>
 8009922:	a818      	add	r0, sp, #96	; 0x60
 8009924:	f7ff fb60 	bl	8008fe8 <GUI_ALLOC_UnlockH>
 8009928:	e00e      	b.n	8009948 <GUI_MEMDEV__WriteToActiveOpaque+0x274>
 800992a:	2301      	movs	r3, #1
 800992c:	9300      	str	r3, [sp, #0]
 800992e:	9301      	str	r3, [sp, #4]
 8009930:	9004      	str	r0, [sp, #16]
 8009932:	9402      	str	r4, [sp, #8]
 8009934:	f8cd 900c 	str.w	r9, [sp, #12]
 8009938:	f8cd 8014 	str.w	r8, [sp, #20]
 800993c:	980f      	ldr	r0, [sp, #60]	; 0x3c
 800993e:	990d      	ldr	r1, [sp, #52]	; 0x34
 8009940:	9b12      	ldr	r3, [sp, #72]	; 0x48
 8009942:	463a      	mov	r2, r7
 8009944:	f7fe faf4 	bl	8007f30 <LCD_DrawBitmap>
 8009948:	980c      	ldr	r0, [sp, #48]	; 0x30
 800994a:	e24e      	b.n	8009dea <GUI_MEMDEV__WriteToActiveOpaque+0x716>
 800994c:	4630      	mov	r0, r6
 800994e:	f7fc ffab 	bl	80068a8 <GUI_MEMDEV_GetDataPtr>
 8009952:	4606      	mov	r6, r0
 8009954:	2d00      	cmp	r5, #0
 8009956:	f000 808a 	beq.w	8009a6e <GUI_MEMDEV__WriteToActiveOpaque+0x39a>
 800995a:	4628      	mov	r0, r5
 800995c:	f7ff fb36 	bl	8008fcc <GUI_ALLOC_LockH>
 8009960:	2500      	movs	r5, #0
 8009962:	9018      	str	r0, [sp, #96]	; 0x60
 8009964:	9b12      	ldr	r3, [sp, #72]	; 0x48
 8009966:	429d      	cmp	r5, r3
 8009968:	da7d      	bge.n	8009a66 <GUI_MEMDEV__WriteToActiveOpaque+0x392>
 800996a:	9818      	ldr	r0, [sp, #96]	; 0x60
 800996c:	2300      	movs	r3, #0
 800996e:	9319      	str	r3, [sp, #100]	; 0x64
 8009970:	6883      	ldr	r3, [r0, #8]
 8009972:	a919      	add	r1, sp, #100	; 0x64
 8009974:	695b      	ldr	r3, [r3, #20]
 8009976:	462a      	mov	r2, r5
 8009978:	4798      	blx	r3
 800997a:	42b8      	cmp	r0, r7
 800997c:	4682      	mov	sl, r0
 800997e:	d124      	bne.n	80099ca <GUI_MEMDEV__WriteToActiveOpaque+0x2f6>
 8009980:	46aa      	mov	sl, r5
 8009982:	9818      	ldr	r0, [sp, #96]	; 0x60
 8009984:	6883      	ldr	r3, [r0, #8]
 8009986:	f10a 0b01 	add.w	fp, sl, #1
 800998a:	695b      	ldr	r3, [r3, #20]
 800998c:	a919      	add	r1, sp, #100	; 0x64
 800998e:	465a      	mov	r2, fp
 8009990:	4798      	blx	r3
 8009992:	42b8      	cmp	r0, r7
 8009994:	d101      	bne.n	800999a <GUI_MEMDEV__WriteToActiveOpaque+0x2c6>
 8009996:	46da      	mov	sl, fp
 8009998:	e7f3      	b.n	8009982 <GUI_MEMDEV__WriteToActiveOpaque+0x2ae>
 800999a:	ebc5 0b0a 	rsb	fp, r5, sl
 800999e:	990d      	ldr	r1, [sp, #52]	; 0x34
 80099a0:	9604      	str	r6, [sp, #16]
 80099a2:	2301      	movs	r3, #1
 80099a4:	f10b 0b01 	add.w	fp, fp, #1
 80099a8:	9300      	str	r3, [sp, #0]
 80099aa:	9301      	str	r3, [sp, #4]
 80099ac:	4429      	add	r1, r5
 80099ae:	9402      	str	r4, [sp, #8]
 80099b0:	f8cd 900c 	str.w	r9, [sp, #12]
 80099b4:	f8cd 8014 	str.w	r8, [sp, #20]
 80099b8:	980f      	ldr	r0, [sp, #60]	; 0x3c
 80099ba:	463a      	mov	r2, r7
 80099bc:	465b      	mov	r3, fp
 80099be:	f7fe fab7 	bl	8007f30 <LCD_DrawBitmap>
 80099c2:	fb09 660b 	mla	r6, r9, fp, r6
 80099c6:	4655      	mov	r5, sl
 80099c8:	e04b      	b.n	8009a62 <GUI_MEMDEV__WriteToActiveOpaque+0x38e>
 80099ca:	2c01      	cmp	r4, #1
 80099cc:	d127      	bne.n	8009a1e <GUI_MEMDEV__WriteToActiveOpaque+0x34a>
 80099ce:	f1ba 0f00 	cmp.w	sl, #0
 80099d2:	d022      	beq.n	8009a1a <GUI_MEMDEV__WriteToActiveOpaque+0x346>
 80099d4:	9819      	ldr	r0, [sp, #100]	; 0x64
 80099d6:	990f      	ldr	r1, [sp, #60]	; 0x3c
 80099d8:	f8cd 900c 	str.w	r9, [sp, #12]
 80099dc:	2208      	movs	r2, #8
 80099de:	fb90 f2f2 	sdiv	r2, r0, r2
 80099e2:	4432      	add	r2, r6
 80099e4:	9204      	str	r2, [sp, #16]
 80099e6:	f000 0207 	and.w	r2, r0, #7
 80099ea:	4408      	add	r0, r1
 80099ec:	990d      	ldr	r1, [sp, #52]	; 0x34
 80099ee:	9206      	str	r2, [sp, #24]
 80099f0:	2301      	movs	r3, #1
 80099f2:	4652      	mov	r2, sl
 80099f4:	9300      	str	r3, [sp, #0]
 80099f6:	9301      	str	r3, [sp, #4]
 80099f8:	9302      	str	r3, [sp, #8]
 80099fa:	4429      	add	r1, r5
 80099fc:	f8cd 8014 	str.w	r8, [sp, #20]
 8009a00:	f7fe f9b6 	bl	8007d70 <LCD__DrawBitmap_1bpp>
 8009a04:	9b19      	ldr	r3, [sp, #100]	; 0x64
 8009a06:	9818      	ldr	r0, [sp, #96]	; 0x60
 8009a08:	4453      	add	r3, sl
 8009a0a:	9319      	str	r3, [sp, #100]	; 0x64
 8009a0c:	6883      	ldr	r3, [r0, #8]
 8009a0e:	a919      	add	r1, sp, #100	; 0x64
 8009a10:	695b      	ldr	r3, [r3, #20]
 8009a12:	462a      	mov	r2, r5
 8009a14:	4798      	blx	r3
 8009a16:	4682      	mov	sl, r0
 8009a18:	e7d9      	b.n	80099ce <GUI_MEMDEV__WriteToActiveOpaque+0x2fa>
 8009a1a:	444e      	add	r6, r9
 8009a1c:	e021      	b.n	8009a62 <GUI_MEMDEV__WriteToActiveOpaque+0x38e>
 8009a1e:	f1ba 0f00 	cmp.w	sl, #0
 8009a22:	d0fa      	beq.n	8009a1a <GUI_MEMDEV__WriteToActiveOpaque+0x346>
 8009a24:	9819      	ldr	r0, [sp, #100]	; 0x64
 8009a26:	9911      	ldr	r1, [sp, #68]	; 0x44
 8009a28:	9402      	str	r4, [sp, #8]
 8009a2a:	fb00 6201 	mla	r2, r0, r1, r6
 8009a2e:	9204      	str	r2, [sp, #16]
 8009a30:	990d      	ldr	r1, [sp, #52]	; 0x34
 8009a32:	9a0f      	ldr	r2, [sp, #60]	; 0x3c
 8009a34:	f8cd 900c 	str.w	r9, [sp, #12]
 8009a38:	2301      	movs	r3, #1
 8009a3a:	4410      	add	r0, r2
 8009a3c:	9300      	str	r3, [sp, #0]
 8009a3e:	4652      	mov	r2, sl
 8009a40:	9301      	str	r3, [sp, #4]
 8009a42:	4429      	add	r1, r5
 8009a44:	f8cd 8014 	str.w	r8, [sp, #20]
 8009a48:	f7fe fa72 	bl	8007f30 <LCD_DrawBitmap>
 8009a4c:	9b19      	ldr	r3, [sp, #100]	; 0x64
 8009a4e:	9818      	ldr	r0, [sp, #96]	; 0x60
 8009a50:	4453      	add	r3, sl
 8009a52:	9319      	str	r3, [sp, #100]	; 0x64
 8009a54:	6883      	ldr	r3, [r0, #8]
 8009a56:	a919      	add	r1, sp, #100	; 0x64
 8009a58:	695b      	ldr	r3, [r3, #20]
 8009a5a:	462a      	mov	r2, r5
 8009a5c:	4798      	blx	r3
 8009a5e:	4682      	mov	sl, r0
 8009a60:	e7dd      	b.n	8009a1e <GUI_MEMDEV__WriteToActiveOpaque+0x34a>
 8009a62:	3501      	adds	r5, #1
 8009a64:	e77e      	b.n	8009964 <GUI_MEMDEV__WriteToActiveOpaque+0x290>
 8009a66:	a818      	add	r0, sp, #96	; 0x60
 8009a68:	f7ff fabe 	bl	8008fe8 <GUI_ALLOC_UnlockH>
 8009a6c:	e1bf      	b.n	8009dee <GUI_MEMDEV__WriteToActiveOpaque+0x71a>
 8009a6e:	2301      	movs	r3, #1
 8009a70:	9300      	str	r3, [sp, #0]
 8009a72:	9301      	str	r3, [sp, #4]
 8009a74:	9004      	str	r0, [sp, #16]
 8009a76:	9402      	str	r4, [sp, #8]
 8009a78:	f8cd 900c 	str.w	r9, [sp, #12]
 8009a7c:	f8cd 8014 	str.w	r8, [sp, #20]
 8009a80:	980f      	ldr	r0, [sp, #60]	; 0x3c
 8009a82:	990d      	ldr	r1, [sp, #52]	; 0x34
 8009a84:	9b12      	ldr	r3, [sp, #72]	; 0x48
 8009a86:	463a      	mov	r2, r7
 8009a88:	e041      	b.n	8009b0e <GUI_MEMDEV__WriteToActiveOpaque+0x43a>
 8009a8a:	4630      	mov	r0, r6
 8009a8c:	910a      	str	r1, [sp, #40]	; 0x28
 8009a8e:	f7ff fa9d 	bl	8008fcc <GUI_ALLOC_LockH>
 8009a92:	4682      	mov	sl, r0
 8009a94:	a81c      	add	r0, sp, #112	; 0x70
 8009a96:	f8ba 200a 	ldrh.w	r2, [sl, #10]
 8009a9a:	f840 ad10 	str.w	sl, [r0, #-16]!
 8009a9e:	f8da 4000 	ldr.w	r4, [sl]
 8009aa2:	9210      	str	r2, [sp, #64]	; 0x40
 8009aa4:	f8d4 9010 	ldr.w	r9, [r4, #16]
 8009aa8:	f8ba 7008 	ldrh.w	r7, [sl, #8]
 8009aac:	4c9e      	ldr	r4, [pc, #632]	; (8009d28 <GUI_MEMDEV__WriteToActiveOpaque+0x654>)
 8009aae:	b213      	sxth	r3, r2
 8009ab0:	f8da 200c 	ldr.w	r2, [sl, #12]
 8009ab4:	920b      	str	r2, [sp, #44]	; 0x2c
 8009ab6:	9309      	str	r3, [sp, #36]	; 0x24
 8009ab8:	f7ff fa96 	bl	8008fe8 <GUI_ALLOC_UnlockH>
 8009abc:	f8d9 0004 	ldr.w	r0, [r9, #4]
 8009ac0:	900e      	str	r0, [sp, #56]	; 0x38
 8009ac2:	489a      	ldr	r0, [pc, #616]	; (8009d2c <GUI_MEMDEV__WriteToActiveOpaque+0x658>)
 8009ac4:	6800      	ldr	r0, [r0, #0]
 8009ac6:	7c40      	ldrb	r0, [r0, #17]
 8009ac8:	f854 4020 	ldr.w	r4, [r4, r0, lsl #2]
 8009acc:	6925      	ldr	r5, [r4, #16]
 8009ace:	f8d5 8000 	ldr.w	r8, [r5]
 8009ad2:	f7fe f82d 	bl	8007b30 <GUI_GetBitsPerPixelEx>
 8009ad6:	2808      	cmp	r0, #8
 8009ad8:	fa0f fb87 	sxth.w	fp, r7
 8009adc:	990a      	ldr	r1, [sp, #40]	; 0x28
 8009ade:	9a0b      	ldr	r2, [sp, #44]	; 0x2c
 8009ae0:	9b09      	ldr	r3, [sp, #36]	; 0x24
 8009ae2:	d904      	bls.n	8009aee <GUI_MEMDEV__WriteToActiveOpaque+0x41a>
 8009ae4:	2810      	cmp	r0, #16
 8009ae6:	bf8c      	ite	hi
 8009ae8:	2404      	movhi	r4, #4
 8009aea:	2402      	movls	r4, #2
 8009aec:	e000      	b.n	8009af0 <GUI_MEMDEV__WriteToActiveOpaque+0x41c>
 8009aee:	2401      	movs	r4, #1
 8009af0:	45a9      	cmp	r9, r5
 8009af2:	d10f      	bne.n	8009b14 <GUI_MEMDEV__WriteToActiveOpaque+0x440>
 8009af4:	2001      	movs	r0, #1
 8009af6:	9203      	str	r2, [sp, #12]
 8009af8:	f10a 0218 	add.w	r2, sl, #24
 8009afc:	9000      	str	r0, [sp, #0]
 8009afe:	9001      	str	r0, [sp, #4]
 8009b00:	9102      	str	r1, [sp, #8]
 8009b02:	9204      	str	r2, [sp, #16]
 8009b04:	980f      	ldr	r0, [sp, #60]	; 0x3c
 8009b06:	990d      	ldr	r1, [sp, #52]	; 0x34
 8009b08:	2200      	movs	r2, #0
 8009b0a:	9205      	str	r2, [sp, #20]
 8009b0c:	465a      	mov	r2, fp
 8009b0e:	f7fe fa0f 	bl	8007f30 <LCD_DrawBitmap>
 8009b12:	e16c      	b.n	8009dee <GUI_MEMDEV__WriteToActiveOpaque+0x71a>
 8009b14:	2920      	cmp	r1, #32
 8009b16:	f040 808e 	bne.w	8009c36 <GUI_MEMDEV__WriteToActiveOpaque+0x562>
 8009b1a:	fb0b f004 	mul.w	r0, fp, r4
 8009b1e:	f7ff fc6d 	bl	80093fc <GUI_ALLOC_AllocNoInit>
 8009b22:	900e      	str	r0, [sp, #56]	; 0x38
 8009b24:	2800      	cmp	r0, #0
 8009b26:	f000 8162 	beq.w	8009dee <GUI_MEMDEV__WriteToActiveOpaque+0x71a>
 8009b2a:	f7ff fa4f 	bl	8008fcc <GUI_ALLOC_LockH>
 8009b2e:	901a      	str	r0, [sp, #104]	; 0x68
 8009b30:	4630      	mov	r0, r6
 8009b32:	f7ff fa4b 	bl	8008fcc <GUI_ALLOC_LockH>
 8009b36:	9018      	str	r0, [sp, #96]	; 0x60
 8009b38:	692b      	ldr	r3, [r5, #16]
 8009b3a:	f100 0a18 	add.w	sl, r0, #24
 8009b3e:	ea4f 068b 	mov.w	r6, fp, lsl #2
 8009b42:	ea4f 09c4 	mov.w	r9, r4, lsl #3
 8009b46:	2b00      	cmp	r3, #0
 8009b48:	d02f      	beq.n	8009baa <GUI_MEMDEV__WriteToActiveOpaque+0x4d6>
 8009b4a:	f8dd 8034 	ldr.w	r8, [sp, #52]	; 0x34
 8009b4e:	2c02      	cmp	r4, #2
 8009b50:	d003      	beq.n	8009b5a <GUI_MEMDEV__WriteToActiveOpaque+0x486>
 8009b52:	2c04      	cmp	r4, #4
 8009b54:	d001      	beq.n	8009b5a <GUI_MEMDEV__WriteToActiveOpaque+0x486>
 8009b56:	2c01      	cmp	r4, #1
 8009b58:	d106      	bne.n	8009b68 <GUI_MEMDEV__WriteToActiveOpaque+0x494>
 8009b5a:	4650      	mov	r0, sl
 8009b5c:	692f      	ldr	r7, [r5, #16]
 8009b5e:	991a      	ldr	r1, [sp, #104]	; 0x68
 8009b60:	465a      	mov	r2, fp
 8009b62:	4623      	mov	r3, r4
 8009b64:	47b8      	blx	r7
 8009b66:	44b2      	add	sl, r6
 8009b68:	2301      	movs	r3, #1
 8009b6a:	2200      	movs	r2, #0
 8009b6c:	991a      	ldr	r1, [sp, #104]	; 0x68
 8009b6e:	9300      	str	r3, [sp, #0]
 8009b70:	9301      	str	r3, [sp, #4]
 8009b72:	9203      	str	r2, [sp, #12]
 8009b74:	9104      	str	r1, [sp, #16]
 8009b76:	9205      	str	r2, [sp, #20]
 8009b78:	4641      	mov	r1, r8
 8009b7a:	465a      	mov	r2, fp
 8009b7c:	f8cd 9008 	str.w	r9, [sp, #8]
 8009b80:	980f      	ldr	r0, [sp, #60]	; 0x3c
 8009b82:	f7fe f9d5 	bl	8007f30 <LCD_DrawBitmap>
 8009b86:	9910      	ldr	r1, [sp, #64]	; 0x40
 8009b88:	9a0d      	ldr	r2, [sp, #52]	; 0x34
 8009b8a:	f108 0701 	add.w	r7, r8, #1
 8009b8e:	fa02 f381 	sxtah	r3, r2, r1
 8009b92:	42bb      	cmp	r3, r7
 8009b94:	d107      	bne.n	8009ba6 <GUI_MEMDEV__WriteToActiveOpaque+0x4d2>
 8009b96:	a818      	add	r0, sp, #96	; 0x60
 8009b98:	f7ff fa26 	bl	8008fe8 <GUI_ALLOC_UnlockH>
 8009b9c:	a81a      	add	r0, sp, #104	; 0x68
 8009b9e:	f7ff fa23 	bl	8008fe8 <GUI_ALLOC_UnlockH>
 8009ba2:	980e      	ldr	r0, [sp, #56]	; 0x38
 8009ba4:	e121      	b.n	8009dea <GUI_MEMDEV__WriteToActiveOpaque+0x716>
 8009ba6:	46b8      	mov	r8, r7
 8009ba8:	e7d1      	b.n	8009b4e <GUI_MEMDEV__WriteToActiveOpaque+0x47a>
 8009baa:	9d0d      	ldr	r5, [sp, #52]	; 0x34
 8009bac:	2c02      	cmp	r4, #2
 8009bae:	9f1a      	ldr	r7, [sp, #104]	; 0x68
 8009bb0:	d00e      	beq.n	8009bd0 <GUI_MEMDEV__WriteToActiveOpaque+0x4fc>
 8009bb2:	2c04      	cmp	r4, #4
 8009bb4:	d018      	beq.n	8009be8 <GUI_MEMDEV__WriteToActiveOpaque+0x514>
 8009bb6:	2c01      	cmp	r4, #1
 8009bb8:	d125      	bne.n	8009c06 <GUI_MEMDEV__WriteToActiveOpaque+0x532>
 8009bba:	2300      	movs	r3, #0
 8009bbc:	f85a 0023 	ldr.w	r0, [sl, r3, lsl #2]
 8009bc0:	9309      	str	r3, [sp, #36]	; 0x24
 8009bc2:	47c0      	blx	r8
 8009bc4:	9b09      	ldr	r3, [sp, #36]	; 0x24
 8009bc6:	54f8      	strb	r0, [r7, r3]
 8009bc8:	3301      	adds	r3, #1
 8009bca:	459b      	cmp	fp, r3
 8009bcc:	d1f6      	bne.n	8009bbc <GUI_MEMDEV__WriteToActiveOpaque+0x4e8>
 8009bce:	e019      	b.n	8009c04 <GUI_MEMDEV__WriteToActiveOpaque+0x530>
 8009bd0:	2300      	movs	r3, #0
 8009bd2:	f85a 0023 	ldr.w	r0, [sl, r3, lsl #2]
 8009bd6:	9309      	str	r3, [sp, #36]	; 0x24
 8009bd8:	47c0      	blx	r8
 8009bda:	9b09      	ldr	r3, [sp, #36]	; 0x24
 8009bdc:	f827 0013 	strh.w	r0, [r7, r3, lsl #1]
 8009be0:	3301      	adds	r3, #1
 8009be2:	459b      	cmp	fp, r3
 8009be4:	d1f5      	bne.n	8009bd2 <GUI_MEMDEV__WriteToActiveOpaque+0x4fe>
 8009be6:	e00d      	b.n	8009c04 <GUI_MEMDEV__WriteToActiveOpaque+0x530>
 8009be8:	465a      	mov	r2, fp
 8009bea:	2300      	movs	r3, #0
 8009bec:	f85a 0003 	ldr.w	r0, [sl, r3]
 8009bf0:	920b      	str	r2, [sp, #44]	; 0x2c
 8009bf2:	9309      	str	r3, [sp, #36]	; 0x24
 8009bf4:	47c0      	blx	r8
 8009bf6:	9a0b      	ldr	r2, [sp, #44]	; 0x2c
 8009bf8:	9b09      	ldr	r3, [sp, #36]	; 0x24
 8009bfa:	3a01      	subs	r2, #1
 8009bfc:	50f8      	str	r0, [r7, r3]
 8009bfe:	f103 0304 	add.w	r3, r3, #4
 8009c02:	d1f3      	bne.n	8009bec <GUI_MEMDEV__WriteToActiveOpaque+0x518>
 8009c04:	44b2      	add	sl, r6
 8009c06:	2301      	movs	r3, #1
 8009c08:	2200      	movs	r2, #0
 8009c0a:	991a      	ldr	r1, [sp, #104]	; 0x68
 8009c0c:	9300      	str	r3, [sp, #0]
 8009c0e:	9301      	str	r3, [sp, #4]
 8009c10:	9203      	str	r2, [sp, #12]
 8009c12:	9104      	str	r1, [sp, #16]
 8009c14:	9205      	str	r2, [sp, #20]
 8009c16:	980f      	ldr	r0, [sp, #60]	; 0x3c
 8009c18:	f8cd 9008 	str.w	r9, [sp, #8]
 8009c1c:	4629      	mov	r1, r5
 8009c1e:	465a      	mov	r2, fp
 8009c20:	f7fe f986 	bl	8007f30 <LCD_DrawBitmap>
 8009c24:	9810      	ldr	r0, [sp, #64]	; 0x40
 8009c26:	990d      	ldr	r1, [sp, #52]	; 0x34
 8009c28:	1c6f      	adds	r7, r5, #1
 8009c2a:	fa01 f380 	sxtah	r3, r1, r0
 8009c2e:	42bb      	cmp	r3, r7
 8009c30:	d0b1      	beq.n	8009b96 <GUI_MEMDEV__WriteToActiveOpaque+0x4c2>
 8009c32:	463d      	mov	r5, r7
 8009c34:	e7ba      	b.n	8009bac <GUI_MEMDEV__WriteToActiveOpaque+0x4d8>
 8009c36:	2910      	cmp	r1, #16
 8009c38:	f040 80d9 	bne.w	8009dee <GUI_MEMDEV__WriteToActiveOpaque+0x71a>
 8009c3c:	fa0f fa87 	sxth.w	sl, r7
 8009c40:	fb0a f004 	mul.w	r0, sl, r4
 8009c44:	f7ff fbda 	bl	80093fc <GUI_ALLOC_AllocNoInit>
 8009c48:	9012      	str	r0, [sp, #72]	; 0x48
 8009c4a:	2800      	cmp	r0, #0
 8009c4c:	f000 80cf 	beq.w	8009dee <GUI_MEMDEV__WriteToActiveOpaque+0x71a>
 8009c50:	f7ff f9bc 	bl	8008fcc <GUI_ALLOC_LockH>
 8009c54:	901a      	str	r0, [sp, #104]	; 0x68
 8009c56:	4630      	mov	r0, r6
 8009c58:	f7ff f9b8 	bl	8008fcc <GUI_ALLOC_LockH>
 8009c5c:	9018      	str	r0, [sp, #96]	; 0x60
 8009c5e:	692b      	ldr	r3, [r5, #16]
 8009c60:	f100 0618 	add.w	r6, r0, #24
 8009c64:	b113      	cbz	r3, 8009c6c <GUI_MEMDEV__WriteToActiveOpaque+0x598>
 8009c66:	f8d9 3014 	ldr.w	r3, [r9, #20]
 8009c6a:	b92b      	cbnz	r3, 8009c78 <GUI_MEMDEV__WriteToActiveOpaque+0x5a4>
 8009c6c:	00e2      	lsls	r2, r4, #3
 8009c6e:	b23f      	sxth	r7, r7
 8009c70:	9211      	str	r2, [sp, #68]	; 0x44
 8009c72:	007f      	lsls	r7, r7, #1
 8009c74:	9d0d      	ldr	r5, [sp, #52]	; 0x34
 8009c76:	e089      	b.n	8009d8c <GUI_MEMDEV__WriteToActiveOpaque+0x6b8>
 8009c78:	f9b0 0008 	ldrsh.w	r0, [r0, #8]
 8009c7c:	0080      	lsls	r0, r0, #2
 8009c7e:	f7ff fbbd 	bl	80093fc <GUI_ALLOC_AllocNoInit>
 8009c82:	9011      	str	r0, [sp, #68]	; 0x44
 8009c84:	b118      	cbz	r0, 8009c8e <GUI_MEMDEV__WriteToActiveOpaque+0x5ba>
 8009c86:	f7ff f9a1 	bl	8008fcc <GUI_ALLOC_LockH>
 8009c8a:	9019      	str	r0, [sp, #100]	; 0x64
 8009c8c:	e001      	b.n	8009c92 <GUI_MEMDEV__WriteToActiveOpaque+0x5be>
 8009c8e:	9b11      	ldr	r3, [sp, #68]	; 0x44
 8009c90:	9319      	str	r3, [sp, #100]	; 0x64
 8009c92:	9b19      	ldr	r3, [sp, #100]	; 0x64
 8009c94:	2b00      	cmp	r3, #0
 8009c96:	f000 80a1 	beq.w	8009ddc <GUI_MEMDEV__WriteToActiveOpaque+0x708>
 8009c9a:	b23f      	sxth	r7, r7
 8009c9c:	007f      	lsls	r7, r7, #1
 8009c9e:	970e      	str	r7, [sp, #56]	; 0x38
 8009ca0:	00e7      	lsls	r7, r4, #3
 8009ca2:	9713      	str	r7, [sp, #76]	; 0x4c
 8009ca4:	9f0d      	ldr	r7, [sp, #52]	; 0x34
 8009ca6:	970c      	str	r7, [sp, #48]	; 0x30
 8009ca8:	2c02      	cmp	r4, #2
 8009caa:	f8dd 8068 	ldr.w	r8, [sp, #104]	; 0x68
 8009cae:	d004      	beq.n	8009cba <GUI_MEMDEV__WriteToActiveOpaque+0x5e6>
 8009cb0:	2c04      	cmp	r4, #4
 8009cb2:	d007      	beq.n	8009cc4 <GUI_MEMDEV__WriteToActiveOpaque+0x5f0>
 8009cb4:	2c01      	cmp	r4, #1
 8009cb6:	d114      	bne.n	8009ce2 <GUI_MEMDEV__WriteToActiveOpaque+0x60e>
 8009cb8:	e004      	b.n	8009cc4 <GUI_MEMDEV__WriteToActiveOpaque+0x5f0>
 8009cba:	4630      	mov	r0, r6
 8009cbc:	9919      	ldr	r1, [sp, #100]	; 0x64
 8009cbe:	4652      	mov	r2, sl
 8009cc0:	4623      	mov	r3, r4
 8009cc2:	e003      	b.n	8009ccc <GUI_MEMDEV__WriteToActiveOpaque+0x5f8>
 8009cc4:	9919      	ldr	r1, [sp, #100]	; 0x64
 8009cc6:	4630      	mov	r0, r6
 8009cc8:	4652      	mov	r2, sl
 8009cca:	2302      	movs	r3, #2
 8009ccc:	f8d9 7014 	ldr.w	r7, [r9, #20]
 8009cd0:	47b8      	blx	r7
 8009cd2:	692f      	ldr	r7, [r5, #16]
 8009cd4:	9819      	ldr	r0, [sp, #100]	; 0x64
 8009cd6:	4641      	mov	r1, r8
 8009cd8:	4652      	mov	r2, sl
 8009cda:	4623      	mov	r3, r4
 8009cdc:	47b8      	blx	r7
 8009cde:	9f0e      	ldr	r7, [sp, #56]	; 0x38
 8009ce0:	443e      	add	r6, r7
 8009ce2:	9f0c      	ldr	r7, [sp, #48]	; 0x30
 8009ce4:	991a      	ldr	r1, [sp, #104]	; 0x68
 8009ce6:	9104      	str	r1, [sp, #16]
 8009ce8:	2301      	movs	r3, #1
 8009cea:	2200      	movs	r2, #0
 8009cec:	f107 0801 	add.w	r8, r7, #1
 8009cf0:	9f13      	ldr	r7, [sp, #76]	; 0x4c
 8009cf2:	9300      	str	r3, [sp, #0]
 8009cf4:	9301      	str	r3, [sp, #4]
 8009cf6:	9702      	str	r7, [sp, #8]
 8009cf8:	9203      	str	r2, [sp, #12]
 8009cfa:	9205      	str	r2, [sp, #20]
 8009cfc:	980f      	ldr	r0, [sp, #60]	; 0x3c
 8009cfe:	990c      	ldr	r1, [sp, #48]	; 0x30
 8009d00:	465a      	mov	r2, fp
 8009d02:	f7fe f915 	bl	8007f30 <LCD_DrawBitmap>
 8009d06:	9f10      	ldr	r7, [sp, #64]	; 0x40
 8009d08:	980d      	ldr	r0, [sp, #52]	; 0x34
 8009d0a:	fa00 f387 	sxtah	r3, r0, r7
 8009d0e:	4543      	cmp	r3, r8
 8009d10:	d002      	beq.n	8009d18 <GUI_MEMDEV__WriteToActiveOpaque+0x644>
 8009d12:	f8cd 8030 	str.w	r8, [sp, #48]	; 0x30
 8009d16:	e7c7      	b.n	8009ca8 <GUI_MEMDEV__WriteToActiveOpaque+0x5d4>
 8009d18:	a819      	add	r0, sp, #100	; 0x64
 8009d1a:	f7ff f965 	bl	8008fe8 <GUI_ALLOC_UnlockH>
 8009d1e:	9811      	ldr	r0, [sp, #68]	; 0x44
 8009d20:	f7ff f982 	bl	8009028 <GUI_ALLOC_Free>
 8009d24:	e05a      	b.n	8009ddc <GUI_MEMDEV__WriteToActiveOpaque+0x708>
 8009d26:	bf00      	nop
 8009d28:	20002e8c 	.word	0x20002e8c
 8009d2c:	20000008 	.word	0x20000008
 8009d30:	2c04      	cmp	r4, #4
 8009d32:	d041      	beq.n	8009db8 <GUI_MEMDEV__WriteToActiveOpaque+0x6e4>
 8009d34:	2c01      	cmp	r4, #1
 8009d36:	d111      	bne.n	8009d5c <GUI_MEMDEV__WriteToActiveOpaque+0x688>
 8009d38:	464a      	mov	r2, r9
 8009d3a:	4631      	mov	r1, r6
 8009d3c:	f831 0b02 	ldrh.w	r0, [r1], #2
 8009d40:	910a      	str	r1, [sp, #40]	; 0x28
 8009d42:	920b      	str	r2, [sp, #44]	; 0x2c
 8009d44:	9b0e      	ldr	r3, [sp, #56]	; 0x38
 8009d46:	4798      	blx	r3
 8009d48:	47c0      	blx	r8
 8009d4a:	9a0b      	ldr	r2, [sp, #44]	; 0x2c
 8009d4c:	f802 0b01 	strb.w	r0, [r2], #1
 8009d50:	eb09 000a 	add.w	r0, r9, sl
 8009d54:	4282      	cmp	r2, r0
 8009d56:	990a      	ldr	r1, [sp, #40]	; 0x28
 8009d58:	d1f0      	bne.n	8009d3c <GUI_MEMDEV__WriteToActiveOpaque+0x668>
 8009d5a:	443e      	add	r6, r7
 8009d5c:	2301      	movs	r3, #1
 8009d5e:	9811      	ldr	r0, [sp, #68]	; 0x44
 8009d60:	991a      	ldr	r1, [sp, #104]	; 0x68
 8009d62:	9300      	str	r3, [sp, #0]
 8009d64:	2200      	movs	r2, #0
 8009d66:	9301      	str	r3, [sp, #4]
 8009d68:	9002      	str	r0, [sp, #8]
 8009d6a:	9203      	str	r2, [sp, #12]
 8009d6c:	9104      	str	r1, [sp, #16]
 8009d6e:	9205      	str	r2, [sp, #20]
 8009d70:	4629      	mov	r1, r5
 8009d72:	465a      	mov	r2, fp
 8009d74:	980f      	ldr	r0, [sp, #60]	; 0x3c
 8009d76:	f7fe f8db 	bl	8007f30 <LCD_DrawBitmap>
 8009d7a:	9910      	ldr	r1, [sp, #64]	; 0x40
 8009d7c:	9a0d      	ldr	r2, [sp, #52]	; 0x34
 8009d7e:	f105 0901 	add.w	r9, r5, #1
 8009d82:	fa02 f381 	sxtah	r3, r2, r1
 8009d86:	454b      	cmp	r3, r9
 8009d88:	d028      	beq.n	8009ddc <GUI_MEMDEV__WriteToActiveOpaque+0x708>
 8009d8a:	464d      	mov	r5, r9
 8009d8c:	2c02      	cmp	r4, #2
 8009d8e:	f8dd 9068 	ldr.w	r9, [sp, #104]	; 0x68
 8009d92:	d1cd      	bne.n	8009d30 <GUI_MEMDEV__WriteToActiveOpaque+0x65c>
 8009d94:	464b      	mov	r3, r9
 8009d96:	4631      	mov	r1, r6
 8009d98:	46d9      	mov	r9, fp
 8009d9a:	f831 0b02 	ldrh.w	r0, [r1], #2
 8009d9e:	910a      	str	r1, [sp, #40]	; 0x28
 8009da0:	9309      	str	r3, [sp, #36]	; 0x24
 8009da2:	9a0e      	ldr	r2, [sp, #56]	; 0x38
 8009da4:	4790      	blx	r2
 8009da6:	47c0      	blx	r8
 8009da8:	9b09      	ldr	r3, [sp, #36]	; 0x24
 8009daa:	990a      	ldr	r1, [sp, #40]	; 0x28
 8009dac:	f823 0b02 	strh.w	r0, [r3], #2
 8009db0:	f1b9 0901 	subs.w	r9, r9, #1
 8009db4:	d1f1      	bne.n	8009d9a <GUI_MEMDEV__WriteToActiveOpaque+0x6c6>
 8009db6:	e7d0      	b.n	8009d5a <GUI_MEMDEV__WriteToActiveOpaque+0x686>
 8009db8:	464b      	mov	r3, r9
 8009dba:	4631      	mov	r1, r6
 8009dbc:	46d9      	mov	r9, fp
 8009dbe:	f831 0b02 	ldrh.w	r0, [r1], #2
 8009dc2:	910a      	str	r1, [sp, #40]	; 0x28
 8009dc4:	9309      	str	r3, [sp, #36]	; 0x24
 8009dc6:	9a0e      	ldr	r2, [sp, #56]	; 0x38
 8009dc8:	4790      	blx	r2
 8009dca:	47c0      	blx	r8
 8009dcc:	9b09      	ldr	r3, [sp, #36]	; 0x24
 8009dce:	990a      	ldr	r1, [sp, #40]	; 0x28
 8009dd0:	f843 0b04 	str.w	r0, [r3], #4
 8009dd4:	f1b9 0901 	subs.w	r9, r9, #1
 8009dd8:	d1f1      	bne.n	8009dbe <GUI_MEMDEV__WriteToActiveOpaque+0x6ea>
 8009dda:	e7be      	b.n	8009d5a <GUI_MEMDEV__WriteToActiveOpaque+0x686>
 8009ddc:	a818      	add	r0, sp, #96	; 0x60
 8009dde:	f7ff f903 	bl	8008fe8 <GUI_ALLOC_UnlockH>
 8009de2:	a81a      	add	r0, sp, #104	; 0x68
 8009de4:	f7ff f900 	bl	8008fe8 <GUI_ALLOC_UnlockH>
 8009de8:	9812      	ldr	r0, [sp, #72]	; 0x48
 8009dea:	f7ff f91d 	bl	8009028 <GUI_ALLOC_Free>
 8009dee:	b01d      	add	sp, #116	; 0x74
 8009df0:	e8bd 8ff0 	ldmia.w	sp!, {r4, r5, r6, r7, r8, r9, sl, fp, pc}

08009df4 <GUI_USAGE_DecUseCnt>:
 8009df4:	b537      	push	{r0, r1, r2, r4, r5, lr}
 8009df6:	4605      	mov	r5, r0
 8009df8:	f7ff f8e8 	bl	8008fcc <GUI_ALLOC_LockH>
 8009dfc:	4602      	mov	r2, r0
 8009dfe:	a802      	add	r0, sp, #8
 8009e00:	8994      	ldrh	r4, [r2, #12]
 8009e02:	f840 2d04 	str.w	r2, [r0, #-4]!
 8009e06:	3c01      	subs	r4, #1
 8009e08:	b2a4      	uxth	r4, r4
 8009e0a:	8194      	strh	r4, [r2, #12]
 8009e0c:	f7ff f8ec 	bl	8008fe8 <GUI_ALLOC_UnlockH>
 8009e10:	b914      	cbnz	r4, 8009e18 <GUI_USAGE_DecUseCnt+0x24>
 8009e12:	4628      	mov	r0, r5
 8009e14:	f7ff f908 	bl	8009028 <GUI_ALLOC_Free>
 8009e18:	b003      	add	sp, #12
 8009e1a:	bd30      	pop	{r4, r5, pc}

08009e1c <GUI_USAGE_AddRect>:
 8009e1c:	e92d 43f8 	stmdb	sp!, {r3, r4, r5, r6, r7, r8, r9, lr}
 8009e20:	4605      	mov	r5, r0
 8009e22:	4688      	mov	r8, r1
 8009e24:	4617      	mov	r7, r2
 8009e26:	4699      	mov	r9, r3
 8009e28:	68a8      	ldr	r0, [r5, #8]
 8009e2a:	464b      	mov	r3, r9
 8009e2c:	6846      	ldr	r6, [r0, #4]
 8009e2e:	4641      	mov	r1, r8
 8009e30:	4628      	mov	r0, r5
 8009e32:	1c54      	adds	r4, r2, #1
 8009e34:	47b0      	blx	r6
 8009e36:	9b08      	ldr	r3, [sp, #32]
 8009e38:	443b      	add	r3, r7
 8009e3a:	42a3      	cmp	r3, r4
 8009e3c:	d001      	beq.n	8009e42 <GUI_USAGE_AddRect+0x26>
 8009e3e:	4622      	mov	r2, r4
 8009e40:	e7f2      	b.n	8009e28 <GUI_USAGE_AddRect+0xc>
 8009e42:	e8bd 83f8 	ldmia.w	sp!, {r3, r4, r5, r6, r7, r8, r9, pc}
	...

08009e48 <_GetDevData>:
 8009e48:	4802      	ldr	r0, [pc, #8]	; (8009e54 <_GetDevData+0xc>)
 8009e4a:	2901      	cmp	r1, #1
 8009e4c:	bf18      	it	ne
 8009e4e:	2000      	movne	r0, #0
 8009e50:	4770      	bx	lr
 8009e52:	bf00      	nop
 8009e54:	0800c7d4 	.word	0x0800c7d4

08009e58 <_GetDevFunc>:
 8009e58:	4802      	ldr	r0, [pc, #8]	; (8009e64 <_GetDevFunc+0xc>)
 8009e5a:	2916      	cmp	r1, #22
 8009e5c:	bf18      	it	ne
 8009e5e:	2000      	movne	r0, #0
 8009e60:	4770      	bx	lr
 8009e62:	bf00      	nop
 8009e64:	080096d5 	.word	0x080096d5

08009e68 <_SetOrg>:
 8009e68:	6800      	ldr	r0, [r0, #0]
 8009e6a:	b508      	push	{r3, lr}
 8009e6c:	b110      	cbz	r0, 8009e74 <_SetOrg+0xc>
 8009e6e:	68c3      	ldr	r3, [r0, #12]
 8009e70:	6a1b      	ldr	r3, [r3, #32]
 8009e72:	4798      	blx	r3
 8009e74:	bd08      	pop	{r3, pc}

08009e76 <_GetDevProp>:
 8009e76:	6800      	ldr	r0, [r0, #0]
 8009e78:	b508      	push	{r3, lr}
 8009e7a:	b118      	cbz	r0, 8009e84 <_GetDevProp+0xe>
 8009e7c:	68c3      	ldr	r3, [r0, #12]
 8009e7e:	6a9b      	ldr	r3, [r3, #40]	; 0x28
 8009e80:	4798      	blx	r3
 8009e82:	bd08      	pop	{r3, pc}
 8009e84:	f04f 30ff 	mov.w	r0, #4294967295
 8009e88:	bd08      	pop	{r3, pc}

08009e8a <_GetRect>:
 8009e8a:	b537      	push	{r0, r1, r2, r4, r5, lr}
 8009e8c:	6880      	ldr	r0, [r0, #8]
 8009e8e:	460c      	mov	r4, r1
 8009e90:	f7ff f89c 	bl	8008fcc <GUI_ALLOC_LockH>
 8009e94:	4603      	mov	r3, r0
 8009e96:	a802      	add	r0, sp, #8
 8009e98:	8899      	ldrh	r1, [r3, #4]
 8009e9a:	88da      	ldrh	r2, [r3, #6]
 8009e9c:	891d      	ldrh	r5, [r3, #8]
 8009e9e:	f840 3d04 	str.w	r3, [r0, #-4]!
 8009ea2:	895b      	ldrh	r3, [r3, #10]
 8009ea4:	8021      	strh	r1, [r4, #0]
 8009ea6:	8062      	strh	r2, [r4, #2]
 8009ea8:	4429      	add	r1, r5
 8009eaa:	441a      	add	r2, r3
 8009eac:	3901      	subs	r1, #1
 8009eae:	3a01      	subs	r2, #1
 8009eb0:	80a1      	strh	r1, [r4, #4]
 8009eb2:	80e2      	strh	r2, [r4, #6]
 8009eb4:	f7ff f898 	bl	8008fe8 <GUI_ALLOC_UnlockH>
 8009eb8:	b003      	add	sp, #12
 8009eba:	bd30      	pop	{r4, r5, pc}

08009ebc <_XY2PTR>:
 8009ebc:	4b0e      	ldr	r3, [pc, #56]	; (8009ef8 <_XY2PTR+0x3c>)
 8009ebe:	681b      	ldr	r3, [r3, #0]
 8009ec0:	b573      	push	{r0, r1, r4, r5, r6, lr}
 8009ec2:	4605      	mov	r5, r0
 8009ec4:	6e18      	ldr	r0, [r3, #96]	; 0x60
 8009ec6:	460e      	mov	r6, r1
 8009ec8:	f7ff f880 	bl	8008fcc <GUI_ALLOC_LockH>
 8009ecc:	4603      	mov	r3, r0
 8009ece:	a802      	add	r0, sp, #8
 8009ed0:	f9b3 4006 	ldrsh.w	r4, [r3, #6]
 8009ed4:	f840 3d04 	str.w	r3, [r0, #-4]!
 8009ed8:	f103 0118 	add.w	r1, r3, #24
 8009edc:	1b36      	subs	r6, r6, r4
 8009ede:	68dc      	ldr	r4, [r3, #12]
 8009ee0:	f9b3 3004 	ldrsh.w	r3, [r3, #4]
 8009ee4:	fb04 1406 	mla	r4, r4, r6, r1
 8009ee8:	1aed      	subs	r5, r5, r3
 8009eea:	f7ff f87d 	bl	8008fe8 <GUI_ALLOC_UnlockH>
 8009eee:	eb04 0445 	add.w	r4, r4, r5, lsl #1
 8009ef2:	4620      	mov	r0, r4
 8009ef4:	b002      	add	sp, #8
 8009ef6:	bd70      	pop	{r4, r5, r6, pc}
 8009ef8:	20000008 	.word	0x20000008

08009efc <_GetPixelIndex>:
 8009efc:	b508      	push	{r3, lr}
 8009efe:	4608      	mov	r0, r1
 8009f00:	4611      	mov	r1, r2
 8009f02:	f7ff ffdb 	bl	8009ebc <_XY2PTR>
 8009f06:	8800      	ldrh	r0, [r0, #0]
 8009f08:	bd08      	pop	{r3, pc}
	...

08009f0c <_XorPixel>:
 8009f0c:	4b14      	ldr	r3, [pc, #80]	; (8009f60 <_XorPixel+0x54>)
 8009f0e:	681b      	ldr	r3, [r3, #0]
 8009f10:	b5f7      	push	{r0, r1, r2, r4, r5, r6, r7, lr}
 8009f12:	4607      	mov	r7, r0
 8009f14:	6e18      	ldr	r0, [r3, #96]	; 0x60
 8009f16:	4615      	mov	r5, r2
 8009f18:	460e      	mov	r6, r1
 8009f1a:	f7ff f857 	bl	8008fcc <GUI_ALLOC_LockH>
 8009f1e:	4629      	mov	r1, r5
 8009f20:	9000      	str	r0, [sp, #0]
 8009f22:	4630      	mov	r0, r6
 8009f24:	f7ff ffca 	bl	8009ebc <_XY2PTR>
 8009f28:	693b      	ldr	r3, [r7, #16]
 8009f2a:	4604      	mov	r4, r0
 8009f2c:	689b      	ldr	r3, [r3, #8]
 8009f2e:	4798      	blx	r3
 8009f30:	8823      	ldrh	r3, [r4, #0]
 8009f32:	4058      	eors	r0, r3
 8009f34:	9b00      	ldr	r3, [sp, #0]
 8009f36:	8020      	strh	r0, [r4, #0]
 8009f38:	6958      	ldr	r0, [r3, #20]
 8009f3a:	b160      	cbz	r0, 8009f56 <_XorPixel+0x4a>
 8009f3c:	f7ff f846 	bl	8008fcc <GUI_ALLOC_LockH>
 8009f40:	ac02      	add	r4, sp, #8
 8009f42:	6883      	ldr	r3, [r0, #8]
 8009f44:	f844 0d04 	str.w	r0, [r4, #-4]!
 8009f48:	681b      	ldr	r3, [r3, #0]
 8009f4a:	4631      	mov	r1, r6
 8009f4c:	462a      	mov	r2, r5
 8009f4e:	4798      	blx	r3
 8009f50:	4620      	mov	r0, r4
 8009f52:	f7ff f849 	bl	8008fe8 <GUI_ALLOC_UnlockH>
 8009f56:	4668      	mov	r0, sp
 8009f58:	f7ff f846 	bl	8008fe8 <GUI_ALLOC_UnlockH>
 8009f5c:	b003      	add	sp, #12
 8009f5e:	bdf0      	pop	{r4, r5, r6, r7, pc}
 8009f60:	20000008 	.word	0x20000008

08009f64 <_SetPixelIndex>:
 8009f64:	b573      	push	{r0, r1, r4, r5, r6, lr}
 8009f66:	461c      	mov	r4, r3
 8009f68:	4b10      	ldr	r3, [pc, #64]	; (8009fac <_SetPixelIndex+0x48>)
 8009f6a:	681b      	ldr	r3, [r3, #0]
 8009f6c:	6e18      	ldr	r0, [r3, #96]	; 0x60
 8009f6e:	460e      	mov	r6, r1
 8009f70:	4615      	mov	r5, r2
 8009f72:	f7ff f82b 	bl	8008fcc <GUI_ALLOC_LockH>
 8009f76:	4629      	mov	r1, r5
 8009f78:	9000      	str	r0, [sp, #0]
 8009f7a:	4630      	mov	r0, r6
 8009f7c:	f7ff ff9e 	bl	8009ebc <_XY2PTR>
 8009f80:	9b00      	ldr	r3, [sp, #0]
 8009f82:	8004      	strh	r4, [r0, #0]
 8009f84:	6958      	ldr	r0, [r3, #20]
 8009f86:	b160      	cbz	r0, 8009fa2 <_SetPixelIndex+0x3e>
 8009f88:	f7ff f820 	bl	8008fcc <GUI_ALLOC_LockH>
 8009f8c:	ac02      	add	r4, sp, #8
 8009f8e:	6883      	ldr	r3, [r0, #8]
 8009f90:	f844 0d04 	str.w	r0, [r4, #-4]!
 8009f94:	681b      	ldr	r3, [r3, #0]
 8009f96:	4631      	mov	r1, r6
 8009f98:	462a      	mov	r2, r5
 8009f9a:	4798      	blx	r3
 8009f9c:	4620      	mov	r0, r4
 8009f9e:	f7ff f823 	bl	8008fe8 <GUI_ALLOC_UnlockH>
 8009fa2:	4668      	mov	r0, sp
 8009fa4:	f7ff f820 	bl	8008fe8 <GUI_ALLOC_UnlockH>
 8009fa8:	b002      	add	sp, #8
 8009faa:	bd70      	pop	{r4, r5, r6, pc}
 8009fac:	20000008 	.word	0x20000008

08009fb0 <_DrawVLine>:
 8009fb0:	e92d 47f3 	stmdb	sp!, {r0, r1, r4, r5, r6, r7, r8, r9, sl, lr}
 8009fb4:	4d2c      	ldr	r5, [pc, #176]	; (800a068 <_DrawVLine+0xb8>)
 8009fb6:	461e      	mov	r6, r3
 8009fb8:	682b      	ldr	r3, [r5, #0]
 8009fba:	4681      	mov	r9, r0
 8009fbc:	6e18      	ldr	r0, [r3, #96]	; 0x60
 8009fbe:	460f      	mov	r7, r1
 8009fc0:	4614      	mov	r4, r2
 8009fc2:	f7ff f803 	bl	8008fcc <GUI_ALLOC_LockH>
 8009fc6:	9000      	str	r0, [sp, #0]
 8009fc8:	6940      	ldr	r0, [r0, #20]
 8009fca:	46aa      	mov	sl, r5
 8009fcc:	b108      	cbz	r0, 8009fd2 <_DrawVLine+0x22>
 8009fce:	f7fe fffd 	bl	8008fcc <GUI_ALLOC_LockH>
 8009fd2:	9001      	str	r0, [sp, #4]
 8009fd4:	4621      	mov	r1, r4
 8009fd6:	4638      	mov	r0, r7
 8009fd8:	f7ff ff70 	bl	8009ebc <_XY2PTR>
 8009fdc:	9b00      	ldr	r3, [sp, #0]
 8009fde:	f8d3 800c 	ldr.w	r8, [r3, #12]
 8009fe2:	f8da 3000 	ldr.w	r3, [sl]
 8009fe6:	7c1a      	ldrb	r2, [r3, #16]
 8009fe8:	07d2      	lsls	r2, r2, #31
 8009fea:	4605      	mov	r5, r0
 8009fec:	d51f      	bpl.n	800a02e <_DrawVLine+0x7e>
 8009fee:	f8d9 3010 	ldr.w	r3, [r9, #16]
 8009ff2:	689b      	ldr	r3, [r3, #8]
 8009ff4:	4798      	blx	r3
 8009ff6:	fa1f f880 	uxth.w	r8, r0
 8009ffa:	9801      	ldr	r0, [sp, #4]
 8009ffc:	b120      	cbz	r0, 800a008 <_DrawVLine+0x58>
 8009ffe:	6883      	ldr	r3, [r0, #8]
 800a000:	4639      	mov	r1, r7
 800a002:	681b      	ldr	r3, [r3, #0]
 800a004:	4622      	mov	r2, r4
 800a006:	4798      	blx	r3
 800a008:	882b      	ldrh	r3, [r5, #0]
 800a00a:	ea88 0303 	eor.w	r3, r8, r3
 800a00e:	802b      	strh	r3, [r5, #0]
 800a010:	9b00      	ldr	r3, [sp, #0]
 800a012:	3401      	adds	r4, #1
 800a014:	68db      	ldr	r3, [r3, #12]
 800a016:	42b4      	cmp	r4, r6
 800a018:	441d      	add	r5, r3
 800a01a:	ddee      	ble.n	8009ffa <_DrawVLine+0x4a>
 800a01c:	4668      	mov	r0, sp
 800a01e:	f7fe ffe3 	bl	8008fe8 <GUI_ALLOC_UnlockH>
 800a022:	9b01      	ldr	r3, [sp, #4]
 800a024:	b1eb      	cbz	r3, 800a062 <_DrawVLine+0xb2>
 800a026:	a801      	add	r0, sp, #4
 800a028:	f7fe ffde 	bl	8008fe8 <GUI_ALLOC_UnlockH>
 800a02c:	e019      	b.n	800a062 <_DrawVLine+0xb2>
 800a02e:	6bdb      	ldr	r3, [r3, #60]	; 0x3c
 800a030:	f8d3 9000 	ldr.w	r9, [r3]
 800a034:	9b01      	ldr	r3, [sp, #4]
 800a036:	b163      	cbz	r3, 800a052 <_DrawVLine+0xa2>
 800a038:	9801      	ldr	r0, [sp, #4]
 800a03a:	6883      	ldr	r3, [r0, #8]
 800a03c:	4622      	mov	r2, r4
 800a03e:	681b      	ldr	r3, [r3, #0]
 800a040:	4639      	mov	r1, r7
 800a042:	3401      	adds	r4, #1
 800a044:	4798      	blx	r3
 800a046:	42b4      	cmp	r4, r6
 800a048:	f8a5 9000 	strh.w	r9, [r5]
 800a04c:	4445      	add	r5, r8
 800a04e:	ddf3      	ble.n	800a038 <_DrawVLine+0x88>
 800a050:	e7e4      	b.n	800a01c <_DrawVLine+0x6c>
 800a052:	1b34      	subs	r4, r6, r4
 800a054:	3401      	adds	r4, #1
 800a056:	3c01      	subs	r4, #1
 800a058:	f8a5 9000 	strh.w	r9, [r5]
 800a05c:	4445      	add	r5, r8
 800a05e:	d1fa      	bne.n	800a056 <_DrawVLine+0xa6>
 800a060:	e7dc      	b.n	800a01c <_DrawVLine+0x6c>
 800a062:	b002      	add	sp, #8
 800a064:	e8bd 87f0 	ldmia.w	sp!, {r4, r5, r6, r7, r8, r9, sl, pc}
 800a068:	20000008 	.word	0x20000008

0800a06c <_FillRect>:
 800a06c:	e92d 4ff0 	stmdb	sp!, {r4, r5, r6, r7, r8, r9, sl, fp, lr}
 800a070:	4f2a      	ldr	r7, [pc, #168]	; (800a11c <_FillRect+0xb0>)
 800a072:	4614      	mov	r4, r2
 800a074:	683a      	ldr	r2, [r7, #0]
 800a076:	4698      	mov	r8, r3
 800a078:	6bd3      	ldr	r3, [r2, #60]	; 0x3c
 800a07a:	b087      	sub	sp, #28
 800a07c:	681b      	ldr	r3, [r3, #0]
 800a07e:	9302      	str	r3, [sp, #8]
 800a080:	4682      	mov	sl, r0
 800a082:	6e10      	ldr	r0, [r2, #96]	; 0x60
 800a084:	460e      	mov	r6, r1
 800a086:	f7fe ffa1 	bl	8008fcc <GUI_ALLOC_LockH>
 800a08a:	4621      	mov	r1, r4
 800a08c:	9004      	str	r0, [sp, #16]
 800a08e:	4630      	mov	r0, r6
 800a090:	f7ff ff14 	bl	8009ebc <_XY2PTR>
 800a094:	9a04      	ldr	r2, [sp, #16]
 800a096:	4605      	mov	r5, r0
 800a098:	6950      	ldr	r0, [r2, #20]
 800a09a:	68d3      	ldr	r3, [r2, #12]
 800a09c:	9303      	str	r3, [sp, #12]
 800a09e:	ebc6 0908 	rsb	r9, r6, r8
 800a0a2:	f109 0801 	add.w	r8, r9, #1
 800a0a6:	46bb      	mov	fp, r7
 800a0a8:	b180      	cbz	r0, 800a0cc <_FillRect+0x60>
 800a0aa:	f7fe ff8f 	bl	8008fcc <GUI_ALLOC_LockH>
 800a0ae:	9a10      	ldr	r2, [sp, #64]	; 0x40
 800a0b0:	af06      	add	r7, sp, #24
 800a0b2:	1b13      	subs	r3, r2, r4
 800a0b4:	f847 0d04 	str.w	r0, [r7, #-4]!
 800a0b8:	3301      	adds	r3, #1
 800a0ba:	9300      	str	r3, [sp, #0]
 800a0bc:	4631      	mov	r1, r6
 800a0be:	4622      	mov	r2, r4
 800a0c0:	4643      	mov	r3, r8
 800a0c2:	f7ff feab 	bl	8009e1c <GUI_USAGE_AddRect>
 800a0c6:	4638      	mov	r0, r7
 800a0c8:	f7fe ff8e 	bl	8008fe8 <GUI_ALLOC_UnlockH>
 800a0cc:	ea4f 0649 	mov.w	r6, r9, lsl #1
 800a0d0:	9b10      	ldr	r3, [sp, #64]	; 0x40
 800a0d2:	429c      	cmp	r4, r3
 800a0d4:	dc1c      	bgt.n	800a110 <_FillRect+0xa4>
 800a0d6:	f8db 3000 	ldr.w	r3, [fp]
 800a0da:	7c1b      	ldrb	r3, [r3, #16]
 800a0dc:	07db      	lsls	r3, r3, #31
 800a0de:	d50d      	bpl.n	800a0fc <_FillRect+0x90>
 800a0e0:	f8da 3010 	ldr.w	r3, [sl, #16]
 800a0e4:	689b      	ldr	r3, [r3, #8]
 800a0e6:	4798      	blx	r3
 800a0e8:	19aa      	adds	r2, r5, r6
 800a0ea:	b280      	uxth	r0, r0
 800a0ec:	1eab      	subs	r3, r5, #2
 800a0ee:	8859      	ldrh	r1, [r3, #2]
 800a0f0:	4041      	eors	r1, r0
 800a0f2:	f823 1f02 	strh.w	r1, [r3, #2]!
 800a0f6:	4293      	cmp	r3, r2
 800a0f8:	d1f9      	bne.n	800a0ee <_FillRect+0x82>
 800a0fa:	e005      	b.n	800a108 <_FillRect+0x9c>
 800a0fc:	9b02      	ldr	r3, [sp, #8]
 800a0fe:	4628      	mov	r0, r5
 800a100:	b299      	uxth	r1, r3
 800a102:	4642      	mov	r2, r8
 800a104:	f000 fc16 	bl	800a934 <GUI__memset16>
 800a108:	9a03      	ldr	r2, [sp, #12]
 800a10a:	3401      	adds	r4, #1
 800a10c:	4415      	add	r5, r2
 800a10e:	e7df      	b.n	800a0d0 <_FillRect+0x64>
 800a110:	a804      	add	r0, sp, #16
 800a112:	f7fe ff69 	bl	8008fe8 <GUI_ALLOC_UnlockH>
 800a116:	b007      	add	sp, #28
 800a118:	e8bd 8ff0 	ldmia.w	sp!, {r4, r5, r6, r7, r8, r9, sl, fp, pc}
 800a11c:	20000008 	.word	0x20000008

0800a120 <_DrawHLine>:
 800a120:	b507      	push	{r0, r1, r2, lr}
 800a122:	9200      	str	r2, [sp, #0]
 800a124:	f7ff ffa2 	bl	800a06c <_FillRect>
 800a128:	b003      	add	sp, #12
 800a12a:	f85d fb04 	ldr.w	pc, [sp], #4
	...

0800a130 <_DrawBitmap>:
 800a130:	e92d 4ff0 	stmdb	sp!, {r4, r5, r6, r7, r8, r9, sl, fp, lr}
 800a134:	4c81      	ldr	r4, [pc, #516]	; (800a33c <_DrawBitmap+0x20c>)
 800a136:	b093      	sub	sp, #76	; 0x4c
 800a138:	469b      	mov	fp, r3
 800a13a:	6823      	ldr	r3, [r4, #0]
 800a13c:	900d      	str	r0, [sp, #52]	; 0x34
 800a13e:	6e18      	ldr	r0, [r3, #96]	; 0x60
 800a140:	9207      	str	r2, [sp, #28]
 800a142:	460d      	mov	r5, r1
 800a144:	f8dd a07c 	ldr.w	sl, [sp, #124]	; 0x7c
 800a148:	f7fe ff40 	bl	8008fcc <GUI_ALLOC_LockH>
 800a14c:	9010      	str	r0, [sp, #64]	; 0x40
 800a14e:	6940      	ldr	r0, [r0, #20]
 800a150:	b108      	cbz	r0, 800a156 <_DrawBitmap+0x26>
 800a152:	f7fe ff3b 	bl	8008fcc <GUI_ALLOC_LockH>
 800a156:	9011      	str	r0, [sp, #68]	; 0x44
 800a158:	a812      	add	r0, sp, #72	; 0x48
 800a15a:	f850 3d08 	ldr.w	r3, [r0, #-8]!
 800a15e:	68db      	ldr	r3, [r3, #12]
 800a160:	9309      	str	r3, [sp, #36]	; 0x24
 800a162:	f7fe ff41 	bl	8008fe8 <GUI_ALLOC_UnlockH>
 800a166:	9e20      	ldr	r6, [sp, #128]	; 0x80
 800a168:	9811      	ldr	r0, [sp, #68]	; 0x44
 800a16a:	442e      	add	r6, r5
 800a16c:	9604      	str	r6, [sp, #16]
 800a16e:	b150      	cbz	r0, 800a186 <_DrawBitmap+0x56>
 800a170:	6823      	ldr	r3, [r4, #0]
 800a172:	7c1b      	ldrb	r3, [r3, #16]
 800a174:	0799      	lsls	r1, r3, #30
 800a176:	d106      	bne.n	800a186 <_DrawBitmap+0x56>
 800a178:	9f1c      	ldr	r7, [sp, #112]	; 0x70
 800a17a:	9700      	str	r7, [sp, #0]
 800a17c:	4631      	mov	r1, r6
 800a17e:	9a07      	ldr	r2, [sp, #28]
 800a180:	465b      	mov	r3, fp
 800a182:	f7ff fe4b 	bl	8009e1c <GUI_USAGE_AddRect>
 800a186:	9804      	ldr	r0, [sp, #16]
 800a188:	9907      	ldr	r1, [sp, #28]
 800a18a:	f7ff fe97 	bl	8009ebc <_XY2PTR>
 800a18e:	9e1d      	ldr	r6, [sp, #116]	; 0x74
 800a190:	2e10      	cmp	r6, #16
 800a192:	4604      	mov	r4, r0
 800a194:	d127      	bne.n	800a1e6 <_DrawBitmap+0xb6>
 800a196:	ea4f 064b 	mov.w	r6, fp, lsl #1
 800a19a:	2500      	movs	r5, #0
 800a19c:	9f1c      	ldr	r7, [sp, #112]	; 0x70
 800a19e:	f8dd 8044 	ldr.w	r8, [sp, #68]	; 0x44
 800a1a2:	42bd      	cmp	r5, r7
 800a1a4:	da1a      	bge.n	800a1dc <_DrawBitmap+0xac>
 800a1a6:	f1ba 0f00 	cmp.w	sl, #0
 800a1aa:	d011      	beq.n	800a1d0 <_DrawBitmap+0xa0>
 800a1ac:	b184      	cbz	r4, 800a1d0 <_DrawBitmap+0xa0>
 800a1ae:	4620      	mov	r0, r4
 800a1b0:	4651      	mov	r1, sl
 800a1b2:	4632      	mov	r2, r6
 800a1b4:	f7f6 fae8 	bl	8000788 <memcpy>
 800a1b8:	f1b8 0f00 	cmp.w	r8, #0
 800a1bc:	d008      	beq.n	800a1d0 <_DrawBitmap+0xa0>
 800a1be:	f8d8 3008 	ldr.w	r3, [r8, #8]
 800a1c2:	9a07      	ldr	r2, [sp, #28]
 800a1c4:	685f      	ldr	r7, [r3, #4]
 800a1c6:	9904      	ldr	r1, [sp, #16]
 800a1c8:	4640      	mov	r0, r8
 800a1ca:	442a      	add	r2, r5
 800a1cc:	465b      	mov	r3, fp
 800a1ce:	47b8      	blx	r7
 800a1d0:	9f1e      	ldr	r7, [sp, #120]	; 0x78
 800a1d2:	44ba      	add	sl, r7
 800a1d4:	9f09      	ldr	r7, [sp, #36]	; 0x24
 800a1d6:	3501      	adds	r5, #1
 800a1d8:	443c      	add	r4, r7
 800a1da:	e7df      	b.n	800a19c <_DrawBitmap+0x6c>
 800a1dc:	f1b8 0f00 	cmp.w	r8, #0
 800a1e0:	f040 831b 	bne.w	800a81a <_DrawBitmap+0x6ea>
 800a1e4:	e31c      	b.n	800a820 <_DrawBitmap+0x6f0>
 800a1e6:	9e1d      	ldr	r6, [sp, #116]	; 0x74
 800a1e8:	2e17      	cmp	r6, #23
 800a1ea:	dd38      	ble.n	800a25e <_DrawBitmap+0x12e>
 800a1ec:	2600      	movs	r6, #0
 800a1ee:	9f1c      	ldr	r7, [sp, #112]	; 0x70
 800a1f0:	9d11      	ldr	r5, [sp, #68]	; 0x44
 800a1f2:	42be      	cmp	r6, r7
 800a1f4:	f280 809d 	bge.w	800a332 <_DrawBitmap+0x202>
 800a1f8:	9f07      	ldr	r7, [sp, #28]
 800a1fa:	4437      	add	r7, r6
 800a1fc:	f1ba 0f00 	cmp.w	sl, #0
 800a200:	d027      	beq.n	800a252 <_DrawBitmap+0x122>
 800a202:	b334      	cbz	r4, 800a252 <_DrawBitmap+0x122>
 800a204:	b13d      	cbz	r5, 800a216 <_DrawBitmap+0xe6>
 800a206:	68ab      	ldr	r3, [r5, #8]
 800a208:	9904      	ldr	r1, [sp, #16]
 800a20a:	f8d3 c004 	ldr.w	ip, [r3, #4]
 800a20e:	4628      	mov	r0, r5
 800a210:	463a      	mov	r2, r7
 800a212:	465b      	mov	r3, fp
 800a214:	47e0      	blx	ip
 800a216:	1ea3      	subs	r3, r4, #2
 800a218:	f1aa 0904 	sub.w	r9, sl, #4
 800a21c:	9303      	str	r3, [sp, #12]
 800a21e:	46d8      	mov	r8, fp
 800a220:	9b04      	ldr	r3, [sp, #16]
 800a222:	980d      	ldr	r0, [sp, #52]	; 0x34
 800a224:	445b      	add	r3, fp
 800a226:	ebc8 0103 	rsb	r1, r8, r3
 800a22a:	6903      	ldr	r3, [r0, #16]
 800a22c:	f859 0f04 	ldr.w	r0, [r9, #4]!
 800a230:	681b      	ldr	r3, [r3, #0]
 800a232:	9102      	str	r1, [sp, #8]
 800a234:	4798      	blx	r3
 800a236:	9b03      	ldr	r3, [sp, #12]
 800a238:	9902      	ldr	r1, [sp, #8]
 800a23a:	f823 0f02 	strh.w	r0, [r3, #2]!
 800a23e:	9303      	str	r3, [sp, #12]
 800a240:	b125      	cbz	r5, 800a24c <_DrawBitmap+0x11c>
 800a242:	68ab      	ldr	r3, [r5, #8]
 800a244:	4628      	mov	r0, r5
 800a246:	681b      	ldr	r3, [r3, #0]
 800a248:	463a      	mov	r2, r7
 800a24a:	4798      	blx	r3
 800a24c:	f1b8 0801 	subs.w	r8, r8, #1
 800a250:	d1e6      	bne.n	800a220 <_DrawBitmap+0xf0>
 800a252:	9f1e      	ldr	r7, [sp, #120]	; 0x78
 800a254:	44ba      	add	sl, r7
 800a256:	9f09      	ldr	r7, [sp, #36]	; 0x24
 800a258:	3601      	adds	r6, #1
 800a25a:	443c      	add	r4, r7
 800a25c:	e7c7      	b.n	800a1ee <_DrawBitmap+0xbe>
 800a25e:	9e1d      	ldr	r6, [sp, #116]	; 0x74
 800a260:	2e08      	cmp	r6, #8
 800a262:	f100 0402 	add.w	r4, r0, #2
 800a266:	d16b      	bne.n	800a340 <_DrawBitmap+0x210>
 800a268:	9e07      	ldr	r6, [sp, #28]
 800a26a:	9f07      	ldr	r7, [sp, #28]
 800a26c:	9d11      	ldr	r5, [sp, #68]	; 0x44
 800a26e:	1bf3      	subs	r3, r6, r7
 800a270:	9f1c      	ldr	r7, [sp, #112]	; 0x70
 800a272:	42bb      	cmp	r3, r7
 800a274:	f1a4 0002 	sub.w	r0, r4, #2
 800a278:	da5b      	bge.n	800a332 <_DrawBitmap+0x202>
 800a27a:	4b30      	ldr	r3, [pc, #192]	; (800a33c <_DrawBitmap+0x20c>)
 800a27c:	9f21      	ldr	r7, [sp, #132]	; 0x84
 800a27e:	681b      	ldr	r3, [r3, #0]
 800a280:	7c1b      	ldrb	r3, [r3, #16]
 800a282:	b367      	cbz	r7, 800a2de <_DrawBitmap+0x1ae>
 800a284:	f013 0303 	ands.w	r3, r3, #3
 800a288:	d004      	beq.n	800a294 <_DrawBitmap+0x164>
 800a28a:	2b02      	cmp	r3, #2
 800a28c:	d14b      	bne.n	800a326 <_DrawBitmap+0x1f6>
 800a28e:	46a0      	mov	r8, r4
 800a290:	9f04      	ldr	r7, [sp, #16]
 800a292:	e01d      	b.n	800a2d0 <_DrawBitmap+0x1a0>
 800a294:	f81a 2003 	ldrb.w	r2, [sl, r3]
 800a298:	9f21      	ldr	r7, [sp, #132]	; 0x84
 800a29a:	f857 2022 	ldr.w	r2, [r7, r2, lsl #2]
 800a29e:	f820 2013 	strh.w	r2, [r0, r3, lsl #1]
 800a2a2:	3301      	adds	r3, #1
 800a2a4:	455b      	cmp	r3, fp
 800a2a6:	d1f5      	bne.n	800a294 <_DrawBitmap+0x164>
 800a2a8:	e03d      	b.n	800a326 <_DrawBitmap+0x1f6>
 800a2aa:	9921      	ldr	r1, [sp, #132]	; 0x84
 800a2ac:	f851 3023 	ldr.w	r3, [r1, r3, lsl #2]
 800a2b0:	f828 3c02 	strh.w	r3, [r8, #-2]
 800a2b4:	b12d      	cbz	r5, 800a2c2 <_DrawBitmap+0x192>
 800a2b6:	68ab      	ldr	r3, [r5, #8]
 800a2b8:	4628      	mov	r0, r5
 800a2ba:	681b      	ldr	r3, [r3, #0]
 800a2bc:	4639      	mov	r1, r7
 800a2be:	4632      	mov	r2, r6
 800a2c0:	4798      	blx	r3
 800a2c2:	9b04      	ldr	r3, [sp, #16]
 800a2c4:	3701      	adds	r7, #1
 800a2c6:	445b      	add	r3, fp
 800a2c8:	42bb      	cmp	r3, r7
 800a2ca:	f108 0802 	add.w	r8, r8, #2
 800a2ce:	d02a      	beq.n	800a326 <_DrawBitmap+0x1f6>
 800a2d0:	9804      	ldr	r0, [sp, #16]
 800a2d2:	ebc0 030a 	rsb	r3, r0, sl
 800a2d6:	5ddb      	ldrb	r3, [r3, r7]
 800a2d8:	2b00      	cmp	r3, #0
 800a2da:	d0f2      	beq.n	800a2c2 <_DrawBitmap+0x192>
 800a2dc:	e7e5      	b.n	800a2aa <_DrawBitmap+0x17a>
 800a2de:	f013 0303 	ands.w	r3, r3, #3
 800a2e2:	d004      	beq.n	800a2ee <_DrawBitmap+0x1be>
 800a2e4:	2b02      	cmp	r3, #2
 800a2e6:	d11e      	bne.n	800a326 <_DrawBitmap+0x1f6>
 800a2e8:	46a0      	mov	r8, r4
 800a2ea:	9f04      	ldr	r7, [sp, #16]
 800a2ec:	e014      	b.n	800a318 <_DrawBitmap+0x1e8>
 800a2ee:	4651      	mov	r1, sl
 800a2f0:	465a      	mov	r2, fp
 800a2f2:	f7f6 fa49 	bl	8000788 <memcpy>
 800a2f6:	e016      	b.n	800a326 <_DrawBitmap+0x1f6>
 800a2f8:	f828 3c02 	strh.w	r3, [r8, #-2]
 800a2fc:	b12d      	cbz	r5, 800a30a <_DrawBitmap+0x1da>
 800a2fe:	68ab      	ldr	r3, [r5, #8]
 800a300:	4628      	mov	r0, r5
 800a302:	681b      	ldr	r3, [r3, #0]
 800a304:	4639      	mov	r1, r7
 800a306:	4632      	mov	r2, r6
 800a308:	4798      	blx	r3
 800a30a:	9b04      	ldr	r3, [sp, #16]
 800a30c:	3701      	adds	r7, #1
 800a30e:	445b      	add	r3, fp
 800a310:	42bb      	cmp	r3, r7
 800a312:	f108 0802 	add.w	r8, r8, #2
 800a316:	d006      	beq.n	800a326 <_DrawBitmap+0x1f6>
 800a318:	9a04      	ldr	r2, [sp, #16]
 800a31a:	ebc2 030a 	rsb	r3, r2, sl
 800a31e:	5ddb      	ldrb	r3, [r3, r7]
 800a320:	2b00      	cmp	r3, #0
 800a322:	d0f2      	beq.n	800a30a <_DrawBitmap+0x1da>
 800a324:	e7e8      	b.n	800a2f8 <_DrawBitmap+0x1c8>
 800a326:	9f1e      	ldr	r7, [sp, #120]	; 0x78
 800a328:	44ba      	add	sl, r7
 800a32a:	9f09      	ldr	r7, [sp, #36]	; 0x24
 800a32c:	3601      	adds	r6, #1
 800a32e:	443c      	add	r4, r7
 800a330:	e79b      	b.n	800a26a <_DrawBitmap+0x13a>
 800a332:	2d00      	cmp	r5, #0
 800a334:	f040 8271 	bne.w	800a81a <_DrawBitmap+0x6ea>
 800a338:	e272      	b.n	800a820 <_DrawBitmap+0x6f0>
 800a33a:	bf00      	nop
 800a33c:	20000008 	.word	0x20000008
 800a340:	9e21      	ldr	r6, [sp, #132]	; 0x84
 800a342:	4bab      	ldr	r3, [pc, #684]	; (800a5f0 <_DrawBitmap+0x4c0>)
 800a344:	9f20      	ldr	r7, [sp, #128]	; 0x80
 800a346:	9408      	str	r4, [sp, #32]
 800a348:	2e00      	cmp	r6, #0
 800a34a:	bf08      	it	eq
 800a34c:	461e      	moveq	r6, r3
 800a34e:	9621      	str	r6, [sp, #132]	; 0x84
 800a350:	9e20      	ldr	r6, [sp, #128]	; 0x80
 800a352:	0076      	lsls	r6, r6, #1
 800a354:	960e      	str	r6, [sp, #56]	; 0x38
 800a356:	00bf      	lsls	r7, r7, #2
 800a358:	9e07      	ldr	r6, [sp, #28]
 800a35a:	970f      	str	r7, [sp, #60]	; 0x3c
 800a35c:	9605      	str	r6, [sp, #20]
 800a35e:	9b08      	ldr	r3, [sp, #32]
 800a360:	9e05      	ldr	r6, [sp, #20]
 800a362:	9f07      	ldr	r7, [sp, #28]
 800a364:	1e9c      	subs	r4, r3, #2
 800a366:	1bf3      	subs	r3, r6, r7
 800a368:	9e1c      	ldr	r6, [sp, #112]	; 0x70
 800a36a:	42b3      	cmp	r3, r6
 800a36c:	f280 8253 	bge.w	800a816 <_DrawBitmap+0x6e6>
 800a370:	9f1d      	ldr	r7, [sp, #116]	; 0x74
 800a372:	2f02      	cmp	r7, #2
 800a374:	f000 80d9 	beq.w	800a52a <_DrawBitmap+0x3fa>
 800a378:	2f04      	cmp	r7, #4
 800a37a:	f000 8178 	beq.w	800a66e <_DrawBitmap+0x53e>
 800a37e:	2f01      	cmp	r7, #1
 800a380:	f040 823f 	bne.w	800a802 <_DrawBitmap+0x6d2>
 800a384:	f8df 9270 	ldr.w	r9, [pc, #624]	; 800a5f8 <_DrawBitmap+0x4c8>
 800a388:	f8d9 3000 	ldr.w	r3, [r9]
 800a38c:	6e18      	ldr	r0, [r3, #96]	; 0x60
 800a38e:	f7fe fe1d 	bl	8008fcc <GUI_ALLOC_LockH>
 800a392:	f89a 3000 	ldrb.w	r3, [sl]
 800a396:	4a97      	ldr	r2, [pc, #604]	; (800a5f4 <_DrawBitmap+0x4c4>)
 800a398:	9010      	str	r0, [sp, #64]	; 0x40
 800a39a:	5cd5      	ldrb	r5, [r2, r3]
 800a39c:	f8d9 3000 	ldr.w	r3, [r9]
 800a3a0:	9820      	ldr	r0, [sp, #128]	; 0x80
 800a3a2:	7c1b      	ldrb	r3, [r3, #16]
 800a3a4:	9f11      	ldr	r7, [sp, #68]	; 0x44
 800a3a6:	f003 0303 	and.w	r3, r3, #3
 800a3aa:	2b02      	cmp	r3, #2
 800a3ac:	465e      	mov	r6, fp
 800a3ae:	f1c0 0808 	rsb	r8, r0, #8
 800a3b2:	fa45 f500 	asr.w	r5, r5, r0
 800a3b6:	d022      	beq.n	800a3fe <_DrawBitmap+0x2ce>
 800a3b8:	2b03      	cmp	r3, #3
 800a3ba:	d062      	beq.n	800a482 <_DrawBitmap+0x352>
 800a3bc:	2b01      	cmp	r3, #1
 800a3be:	d060      	beq.n	800a482 <_DrawBitmap+0x352>
 800a3c0:	4652      	mov	r2, sl
 800a3c2:	4546      	cmp	r6, r8
 800a3c4:	bf38      	it	cc
 800a3c6:	46b0      	movcc	r8, r6
 800a3c8:	ebc8 0606 	rsb	r6, r8, r6
 800a3cc:	4643      	mov	r3, r8
 800a3ce:	4621      	mov	r1, r4
 800a3d0:	f005 0001 	and.w	r0, r5, #1
 800a3d4:	9f21      	ldr	r7, [sp, #132]	; 0x84
 800a3d6:	3b01      	subs	r3, #1
 800a3d8:	f857 0020 	ldr.w	r0, [r7, r0, lsl #2]
 800a3dc:	f821 0b02 	strh.w	r0, [r1], #2
 800a3e0:	ea4f 0555 	mov.w	r5, r5, lsr #1
 800a3e4:	d1f4      	bne.n	800a3d0 <_DrawBitmap+0x2a0>
 800a3e6:	eb04 0448 	add.w	r4, r4, r8, lsl #1
 800a3ea:	2e00      	cmp	r6, #0
 800a3ec:	f000 8099 	beq.w	800a522 <_DrawBitmap+0x3f2>
 800a3f0:	f812 3f01 	ldrb.w	r3, [r2, #1]!
 800a3f4:	497f      	ldr	r1, [pc, #508]	; (800a5f4 <_DrawBitmap+0x4c4>)
 800a3f6:	f04f 0808 	mov.w	r8, #8
 800a3fa:	5ccd      	ldrb	r5, [r1, r3]
 800a3fc:	e7e1      	b.n	800a3c2 <_DrawBitmap+0x292>
 800a3fe:	9821      	ldr	r0, [sp, #132]	; 0x84
 800a400:	f8dd 9010 	ldr.w	r9, [sp, #16]
 800a404:	f8b0 c004 	ldrh.w	ip, [r0, #4]
 800a408:	f8cd a018 	str.w	sl, [sp, #24]
 800a40c:	4546      	cmp	r6, r8
 800a40e:	bf38      	it	cc
 800a410:	46b0      	movcc	r8, r6
 800a412:	ebc8 0606 	rsb	r6, r8, r6
 800a416:	b32f      	cbz	r7, 800a464 <_DrawBitmap+0x334>
 800a418:	b91d      	cbnz	r5, 800a422 <_DrawBitmap+0x2f2>
 800a41a:	eb04 0448 	add.w	r4, r4, r8, lsl #1
 800a41e:	44c1      	add	r9, r8
 800a420:	e024      	b.n	800a46c <_DrawBitmap+0x33c>
 800a422:	07ea      	lsls	r2, r5, #31
 800a424:	d50b      	bpl.n	800a43e <_DrawBitmap+0x30e>
 800a426:	68bb      	ldr	r3, [r7, #8]
 800a428:	9a05      	ldr	r2, [sp, #20]
 800a42a:	681b      	ldr	r3, [r3, #0]
 800a42c:	f8cd c008 	str.w	ip, [sp, #8]
 800a430:	4638      	mov	r0, r7
 800a432:	4649      	mov	r1, r9
 800a434:	4798      	blx	r3
 800a436:	f8dd c008 	ldr.w	ip, [sp, #8]
 800a43a:	f8a4 c000 	strh.w	ip, [r4]
 800a43e:	f1b8 0801 	subs.w	r8, r8, #1
 800a442:	f109 0901 	add.w	r9, r9, #1
 800a446:	f104 0402 	add.w	r4, r4, #2
 800a44a:	d00f      	beq.n	800a46c <_DrawBitmap+0x33c>
 800a44c:	086d      	lsrs	r5, r5, #1
 800a44e:	e7e3      	b.n	800a418 <_DrawBitmap+0x2e8>
 800a450:	07eb      	lsls	r3, r5, #31
 800a452:	bf48      	it	mi
 800a454:	f8a4 c000 	strhmi.w	ip, [r4]
 800a458:	f1b8 0801 	subs.w	r8, r8, #1
 800a45c:	f104 0402 	add.w	r4, r4, #2
 800a460:	d004      	beq.n	800a46c <_DrawBitmap+0x33c>
 800a462:	086d      	lsrs	r5, r5, #1
 800a464:	2d00      	cmp	r5, #0
 800a466:	d1f3      	bne.n	800a450 <_DrawBitmap+0x320>
 800a468:	eb04 0448 	add.w	r4, r4, r8, lsl #1
 800a46c:	2e00      	cmp	r6, #0
 800a46e:	d058      	beq.n	800a522 <_DrawBitmap+0x3f2>
 800a470:	9906      	ldr	r1, [sp, #24]
 800a472:	4a60      	ldr	r2, [pc, #384]	; (800a5f4 <_DrawBitmap+0x4c4>)
 800a474:	f811 3f01 	ldrb.w	r3, [r1, #1]!
 800a478:	9106      	str	r1, [sp, #24]
 800a47a:	5cd5      	ldrb	r5, [r2, r3]
 800a47c:	f04f 0808 	mov.w	r8, #8
 800a480:	e7c4      	b.n	800a40c <_DrawBitmap+0x2dc>
 800a482:	9a0d      	ldr	r2, [sp, #52]	; 0x34
 800a484:	6913      	ldr	r3, [r2, #16]
 800a486:	689b      	ldr	r3, [r3, #8]
 800a488:	4798      	blx	r3
 800a48a:	9b04      	ldr	r3, [sp, #16]
 800a48c:	930b      	str	r3, [sp, #44]	; 0x2c
 800a48e:	b280      	uxth	r0, r0
 800a490:	900a      	str	r0, [sp, #40]	; 0x28
 800a492:	f10a 0901 	add.w	r9, sl, #1
 800a496:	4546      	cmp	r6, r8
 800a498:	bf38      	it	cc
 800a49a:	46b0      	movcc	r8, r6
 800a49c:	ebc8 0606 	rsb	r6, r8, r6
 800a4a0:	1ca3      	adds	r3, r4, #2
 800a4a2:	b31f      	cbz	r7, 800a4ec <_DrawBitmap+0x3bc>
 800a4a4:	f8cd 8018 	str.w	r8, [sp, #24]
 800a4a8:	980b      	ldr	r0, [sp, #44]	; 0x2c
 800a4aa:	9a06      	ldr	r2, [sp, #24]
 800a4ac:	4440      	add	r0, r8
 800a4ae:	900c      	str	r0, [sp, #48]	; 0x30
 800a4b0:	1a81      	subs	r1, r0, r2
 800a4b2:	07e8      	lsls	r0, r5, #31
 800a4b4:	d50d      	bpl.n	800a4d2 <_DrawBitmap+0x3a2>
 800a4b6:	68ba      	ldr	r2, [r7, #8]
 800a4b8:	4638      	mov	r0, r7
 800a4ba:	f8d2 c000 	ldr.w	ip, [r2]
 800a4be:	9a05      	ldr	r2, [sp, #20]
 800a4c0:	9302      	str	r3, [sp, #8]
 800a4c2:	47e0      	blx	ip
 800a4c4:	9b02      	ldr	r3, [sp, #8]
 800a4c6:	980a      	ldr	r0, [sp, #40]	; 0x28
 800a4c8:	f833 2c02 	ldrh.w	r2, [r3, #-2]
 800a4cc:	4042      	eors	r2, r0
 800a4ce:	f823 2c02 	strh.w	r2, [r3, #-2]
 800a4d2:	9906      	ldr	r1, [sp, #24]
 800a4d4:	3901      	subs	r1, #1
 800a4d6:	ea4f 0555 	mov.w	r5, r5, lsr #1
 800a4da:	f103 0302 	add.w	r3, r3, #2
 800a4de:	9106      	str	r1, [sp, #24]
 800a4e0:	d1e2      	bne.n	800a4a8 <_DrawBitmap+0x378>
 800a4e2:	9b0c      	ldr	r3, [sp, #48]	; 0x30
 800a4e4:	930b      	str	r3, [sp, #44]	; 0x2c
 800a4e6:	eb04 0448 	add.w	r4, r4, r8, lsl #1
 800a4ea:	e010      	b.n	800a50e <_DrawBitmap+0x3de>
 800a4ec:	4642      	mov	r2, r8
 800a4ee:	07e9      	lsls	r1, r5, #31
 800a4f0:	d505      	bpl.n	800a4fe <_DrawBitmap+0x3ce>
 800a4f2:	f833 1c02 	ldrh.w	r1, [r3, #-2]
 800a4f6:	980a      	ldr	r0, [sp, #40]	; 0x28
 800a4f8:	4041      	eors	r1, r0
 800a4fa:	f823 1c02 	strh.w	r1, [r3, #-2]
 800a4fe:	3a01      	subs	r2, #1
 800a500:	ea4f 0555 	mov.w	r5, r5, lsr #1
 800a504:	f103 0302 	add.w	r3, r3, #2
 800a508:	d1f1      	bne.n	800a4ee <_DrawBitmap+0x3be>
 800a50a:	eb04 0448 	add.w	r4, r4, r8, lsl #1
 800a50e:	b146      	cbz	r6, 800a522 <_DrawBitmap+0x3f2>
 800a510:	f899 3000 	ldrb.w	r3, [r9]
 800a514:	4a37      	ldr	r2, [pc, #220]	; (800a5f4 <_DrawBitmap+0x4c4>)
 800a516:	f109 0901 	add.w	r9, r9, #1
 800a51a:	5cd5      	ldrb	r5, [r2, r3]
 800a51c:	f04f 0808 	mov.w	r8, #8
 800a520:	e7b9      	b.n	800a496 <_DrawBitmap+0x366>
 800a522:	a810      	add	r0, sp, #64	; 0x40
 800a524:	f7fe fd60 	bl	8008fe8 <GUI_ALLOC_UnlockH>
 800a528:	e16b      	b.n	800a802 <_DrawBitmap+0x6d2>
 800a52a:	4b33      	ldr	r3, [pc, #204]	; (800a5f8 <_DrawBitmap+0x4c8>)
 800a52c:	9e20      	ldr	r6, [sp, #128]	; 0x80
 800a52e:	681b      	ldr	r3, [r3, #0]
 800a530:	9f0e      	ldr	r7, [sp, #56]	; 0x38
 800a532:	7c1b      	ldrb	r3, [r3, #16]
 800a534:	f8dd 9044 	ldr.w	r9, [sp, #68]	; 0x44
 800a538:	f1c6 0504 	rsb	r5, r6, #4
 800a53c:	f89a 6000 	ldrb.w	r6, [sl]
 800a540:	f003 0303 	and.w	r3, r3, #3
 800a544:	40be      	lsls	r6, r7
 800a546:	2b01      	cmp	r3, #1
 800a548:	b2ed      	uxtb	r5, r5
 800a54a:	b2f6      	uxtb	r6, r6
 800a54c:	d06a      	beq.n	800a624 <_DrawBitmap+0x4f4>
 800a54e:	d308      	bcc.n	800a562 <_DrawBitmap+0x432>
 800a550:	2b02      	cmp	r3, #2
 800a552:	f040 8156 	bne.w	800a802 <_DrawBitmap+0x6d2>
 800a556:	f8cd a018 	str.w	sl, [sp, #24]
 800a55a:	465f      	mov	r7, fp
 800a55c:	f8dd c010 	ldr.w	ip, [sp, #16]
 800a560:	e03e      	b.n	800a5e0 <_DrawBitmap+0x4b0>
 800a562:	4652      	mov	r2, sl
 800a564:	465b      	mov	r3, fp
 800a566:	429d      	cmp	r5, r3
 800a568:	bfc8      	it	gt
 800a56a:	b2dd      	uxtbgt	r5, r3
 800a56c:	1b5b      	subs	r3, r3, r5
 800a56e:	4629      	mov	r1, r5
 800a570:	4620      	mov	r0, r4
 800a572:	ea4f 1c96 	mov.w	ip, r6, lsr #6
 800a576:	9f21      	ldr	r7, [sp, #132]	; 0x84
 800a578:	3901      	subs	r1, #1
 800a57a:	f857 c02c 	ldr.w	ip, [r7, ip, lsl #2]
 800a57e:	f820 cb02 	strh.w	ip, [r0], #2
 800a582:	00b6      	lsls	r6, r6, #2
 800a584:	f011 01ff 	ands.w	r1, r1, #255	; 0xff
 800a588:	b2f6      	uxtb	r6, r6
 800a58a:	d1f2      	bne.n	800a572 <_DrawBitmap+0x442>
 800a58c:	3d01      	subs	r5, #1
 800a58e:	b2ed      	uxtb	r5, r5
 800a590:	3501      	adds	r5, #1
 800a592:	eb04 0445 	add.w	r4, r4, r5, lsl #1
 800a596:	2b00      	cmp	r3, #0
 800a598:	f000 8133 	beq.w	800a802 <_DrawBitmap+0x6d2>
 800a59c:	f812 6f01 	ldrb.w	r6, [r2, #1]!
 800a5a0:	2504      	movs	r5, #4
 800a5a2:	e7e0      	b.n	800a566 <_DrawBitmap+0x436>
 800a5a4:	f016 0fc0 	tst.w	r6, #192	; 0xc0
 800a5a8:	eb08 010c 	add.w	r1, r8, ip
 800a5ac:	d126      	bne.n	800a5fc <_DrawBitmap+0x4cc>
 800a5ae:	f108 0801 	add.w	r8, r8, #1
 800a5b2:	fa5f f388 	uxtb.w	r3, r8
 800a5b6:	00b6      	lsls	r6, r6, #2
 800a5b8:	429d      	cmp	r5, r3
 800a5ba:	b2f6      	uxtb	r6, r6
 800a5bc:	d1f2      	bne.n	800a5a4 <_DrawBitmap+0x474>
 800a5be:	3d01      	subs	r5, #1
 800a5c0:	b2ed      	uxtb	r5, r5
 800a5c2:	1c6b      	adds	r3, r5, #1
 800a5c4:	eb04 0443 	add.w	r4, r4, r3, lsl #1
 800a5c8:	f10c 0301 	add.w	r3, ip, #1
 800a5cc:	eb03 0c05 	add.w	ip, r3, r5
 800a5d0:	2f00      	cmp	r7, #0
 800a5d2:	f000 8116 	beq.w	800a802 <_DrawBitmap+0x6d2>
 800a5d6:	9b06      	ldr	r3, [sp, #24]
 800a5d8:	f813 6f01 	ldrb.w	r6, [r3, #1]!
 800a5dc:	9306      	str	r3, [sp, #24]
 800a5de:	2504      	movs	r5, #4
 800a5e0:	42bd      	cmp	r5, r7
 800a5e2:	bfc8      	it	gt
 800a5e4:	b2fd      	uxtbgt	r5, r7
 800a5e6:	1b7f      	subs	r7, r7, r5
 800a5e8:	f04f 0800 	mov.w	r8, #0
 800a5ec:	e7da      	b.n	800a5a4 <_DrawBitmap+0x474>
 800a5ee:	bf00      	nop
 800a5f0:	0800c794 	.word	0x0800c794
 800a5f4:	0800c668 	.word	0x0800c668
 800a5f8:	20000008 	.word	0x20000008
 800a5fc:	09b3      	lsrs	r3, r6, #6
 800a5fe:	9821      	ldr	r0, [sp, #132]	; 0x84
 800a600:	f850 3023 	ldr.w	r3, [r0, r3, lsl #2]
 800a604:	f824 3018 	strh.w	r3, [r4, r8, lsl #1]
 800a608:	f1b9 0f00 	cmp.w	r9, #0
 800a60c:	d0cf      	beq.n	800a5ae <_DrawBitmap+0x47e>
 800a60e:	f8d9 3008 	ldr.w	r3, [r9, #8]
 800a612:	9a05      	ldr	r2, [sp, #20]
 800a614:	681b      	ldr	r3, [r3, #0]
 800a616:	f8cd c008 	str.w	ip, [sp, #8]
 800a61a:	4648      	mov	r0, r9
 800a61c:	4798      	blx	r3
 800a61e:	f8dd c008 	ldr.w	ip, [sp, #8]
 800a622:	e7c4      	b.n	800a5ae <_DrawBitmap+0x47e>
 800a624:	4651      	mov	r1, sl
 800a626:	465b      	mov	r3, fp
 800a628:	429d      	cmp	r5, r3
 800a62a:	bfc8      	it	gt
 800a62c:	b2dd      	uxtbgt	r5, r3
 800a62e:	1b5b      	subs	r3, r3, r5
 800a630:	1ca2      	adds	r2, r4, #2
 800a632:	4628      	mov	r0, r5
 800a634:	f016 0fc0 	tst.w	r6, #192	; 0xc0
 800a638:	d005      	beq.n	800a646 <_DrawBitmap+0x516>
 800a63a:	f832 7c02 	ldrh.w	r7, [r2, #-2]
 800a63e:	f087 07ff 	eor.w	r7, r7, #255	; 0xff
 800a642:	f822 7c02 	strh.w	r7, [r2, #-2]
 800a646:	3801      	subs	r0, #1
 800a648:	00b6      	lsls	r6, r6, #2
 800a64a:	f010 00ff 	ands.w	r0, r0, #255	; 0xff
 800a64e:	b2f6      	uxtb	r6, r6
 800a650:	f102 0202 	add.w	r2, r2, #2
 800a654:	d1ee      	bne.n	800a634 <_DrawBitmap+0x504>
 800a656:	3d01      	subs	r5, #1
 800a658:	b2ed      	uxtb	r5, r5
 800a65a:	3501      	adds	r5, #1
 800a65c:	eb04 0445 	add.w	r4, r4, r5, lsl #1
 800a660:	2b00      	cmp	r3, #0
 800a662:	f000 80ce 	beq.w	800a802 <_DrawBitmap+0x6d2>
 800a666:	f811 6f01 	ldrb.w	r6, [r1, #1]!
 800a66a:	2504      	movs	r5, #4
 800a66c:	e7dc      	b.n	800a628 <_DrawBitmap+0x4f8>
 800a66e:	4a6e      	ldr	r2, [pc, #440]	; (800a828 <_DrawBitmap+0x6f8>)
 800a670:	f89a 3000 	ldrb.w	r3, [sl]
 800a674:	6812      	ldr	r2, [r2, #0]
 800a676:	9f0f      	ldr	r7, [sp, #60]	; 0x3c
 800a678:	7c12      	ldrb	r2, [r2, #16]
 800a67a:	9e11      	ldr	r6, [sp, #68]	; 0x44
 800a67c:	f002 0203 	and.w	r2, r2, #3
 800a680:	40bb      	lsls	r3, r7
 800a682:	2a01      	cmp	r2, #1
 800a684:	b2dd      	uxtb	r5, r3
 800a686:	f000 8095 	beq.w	800a7b4 <_DrawBitmap+0x684>
 800a68a:	d302      	bcc.n	800a692 <_DrawBitmap+0x562>
 800a68c:	2a02      	cmp	r2, #2
 800a68e:	d036      	beq.n	800a6fe <_DrawBitmap+0x5ce>
 800a690:	e0b7      	b.n	800a802 <_DrawBitmap+0x6d2>
 800a692:	9e20      	ldr	r6, [sp, #128]	; 0x80
 800a694:	b166      	cbz	r6, 800a6b0 <_DrawBitmap+0x580>
 800a696:	092d      	lsrs	r5, r5, #4
 800a698:	9f21      	ldr	r7, [sp, #132]	; 0x84
 800a69a:	f857 3025 	ldr.w	r3, [r7, r5, lsl #2]
 800a69e:	8023      	strh	r3, [r4, #0]
 800a6a0:	f10a 0201 	add.w	r2, sl, #1
 800a6a4:	9c08      	ldr	r4, [sp, #32]
 800a6a6:	f89a 5001 	ldrb.w	r5, [sl, #1]
 800a6aa:	f10b 33ff 	add.w	r3, fp, #4294967295
 800a6ae:	e001      	b.n	800a6b4 <_DrawBitmap+0x584>
 800a6b0:	465b      	mov	r3, fp
 800a6b2:	4652      	mov	r2, sl
 800a6b4:	2b01      	cmp	r3, #1
 800a6b6:	dd19      	ble.n	800a6ec <_DrawBitmap+0x5bc>
 800a6b8:	1058      	asrs	r0, r3, #1
 800a6ba:	1d21      	adds	r1, r4, #4
 800a6bc:	f003 0301 	and.w	r3, r3, #1
 800a6c0:	eb02 0c00 	add.w	ip, r2, r0
 800a6c4:	092f      	lsrs	r7, r5, #4
 800a6c6:	9e21      	ldr	r6, [sp, #132]	; 0x84
 800a6c8:	f005 050f 	and.w	r5, r5, #15
 800a6cc:	f856 7027 	ldr.w	r7, [r6, r7, lsl #2]
 800a6d0:	f856 5025 	ldr.w	r5, [r6, r5, lsl #2]
 800a6d4:	f821 7c04 	strh.w	r7, [r1, #-4]
 800a6d8:	f821 5c02 	strh.w	r5, [r1, #-2]
 800a6dc:	f812 5f01 	ldrb.w	r5, [r2, #1]!
 800a6e0:	4562      	cmp	r2, ip
 800a6e2:	f101 0104 	add.w	r1, r1, #4
 800a6e6:	d1ed      	bne.n	800a6c4 <_DrawBitmap+0x594>
 800a6e8:	eb04 0480 	add.w	r4, r4, r0, lsl #2
 800a6ec:	2b00      	cmp	r3, #0
 800a6ee:	f000 8088 	beq.w	800a802 <_DrawBitmap+0x6d2>
 800a6f2:	092d      	lsrs	r5, r5, #4
 800a6f4:	9f21      	ldr	r7, [sp, #132]	; 0x84
 800a6f6:	f857 3025 	ldr.w	r3, [r7, r5, lsl #2]
 800a6fa:	8023      	strh	r3, [r4, #0]
 800a6fc:	e081      	b.n	800a802 <_DrawBitmap+0x6d2>
 800a6fe:	9f20      	ldr	r7, [sp, #128]	; 0x80
 800a700:	b1c7      	cbz	r7, 800a734 <_DrawBitmap+0x604>
 800a702:	f013 0ff0 	tst.w	r3, #240	; 0xf0
 800a706:	d00b      	beq.n	800a720 <_DrawBitmap+0x5f0>
 800a708:	092d      	lsrs	r5, r5, #4
 800a70a:	9f21      	ldr	r7, [sp, #132]	; 0x84
 800a70c:	f857 3025 	ldr.w	r3, [r7, r5, lsl #2]
 800a710:	8023      	strh	r3, [r4, #0]
 800a712:	b12e      	cbz	r6, 800a720 <_DrawBitmap+0x5f0>
 800a714:	68b3      	ldr	r3, [r6, #8]
 800a716:	9904      	ldr	r1, [sp, #16]
 800a718:	681b      	ldr	r3, [r3, #0]
 800a71a:	9a05      	ldr	r2, [sp, #20]
 800a71c:	4630      	mov	r0, r6
 800a71e:	4798      	blx	r3
 800a720:	9804      	ldr	r0, [sp, #16]
 800a722:	9c08      	ldr	r4, [sp, #32]
 800a724:	f89a 5001 	ldrb.w	r5, [sl, #1]
 800a728:	1c47      	adds	r7, r0, #1
 800a72a:	f10b 39ff 	add.w	r9, fp, #4294967295
 800a72e:	f10a 0801 	add.w	r8, sl, #1
 800a732:	e00f      	b.n	800a754 <_DrawBitmap+0x624>
 800a734:	46d9      	mov	r9, fp
 800a736:	46d0      	mov	r8, sl
 800a738:	9f04      	ldr	r7, [sp, #16]
 800a73a:	e00b      	b.n	800a754 <_DrawBitmap+0x624>
 800a73c:	f015 0ff0 	tst.w	r5, #240	; 0xf0
 800a740:	d10c      	bne.n	800a75c <_DrawBitmap+0x62c>
 800a742:	f015 050f 	ands.w	r5, r5, #15
 800a746:	d117      	bne.n	800a778 <_DrawBitmap+0x648>
 800a748:	f818 5f01 	ldrb.w	r5, [r8, #1]!
 800a74c:	3404      	adds	r4, #4
 800a74e:	3702      	adds	r7, #2
 800a750:	f1a9 0902 	sub.w	r9, r9, #2
 800a754:	f1b9 0f01 	cmp.w	r9, #1
 800a758:	dcf0      	bgt.n	800a73c <_DrawBitmap+0x60c>
 800a75a:	e01a      	b.n	800a792 <_DrawBitmap+0x662>
 800a75c:	092b      	lsrs	r3, r5, #4
 800a75e:	9921      	ldr	r1, [sp, #132]	; 0x84
 800a760:	f851 3023 	ldr.w	r3, [r1, r3, lsl #2]
 800a764:	8023      	strh	r3, [r4, #0]
 800a766:	2e00      	cmp	r6, #0
 800a768:	d0eb      	beq.n	800a742 <_DrawBitmap+0x612>
 800a76a:	68b3      	ldr	r3, [r6, #8]
 800a76c:	9a05      	ldr	r2, [sp, #20]
 800a76e:	681b      	ldr	r3, [r3, #0]
 800a770:	4630      	mov	r0, r6
 800a772:	4639      	mov	r1, r7
 800a774:	4798      	blx	r3
 800a776:	e7e4      	b.n	800a742 <_DrawBitmap+0x612>
 800a778:	9a21      	ldr	r2, [sp, #132]	; 0x84
 800a77a:	f852 3025 	ldr.w	r3, [r2, r5, lsl #2]
 800a77e:	8063      	strh	r3, [r4, #2]
 800a780:	2e00      	cmp	r6, #0
 800a782:	d0e1      	beq.n	800a748 <_DrawBitmap+0x618>
 800a784:	68b3      	ldr	r3, [r6, #8]
 800a786:	9a05      	ldr	r2, [sp, #20]
 800a788:	681b      	ldr	r3, [r3, #0]
 800a78a:	4630      	mov	r0, r6
 800a78c:	1c79      	adds	r1, r7, #1
 800a78e:	4798      	blx	r3
 800a790:	e7da      	b.n	800a748 <_DrawBitmap+0x618>
 800a792:	f1b9 0f00 	cmp.w	r9, #0
 800a796:	d034      	beq.n	800a802 <_DrawBitmap+0x6d2>
 800a798:	092d      	lsrs	r5, r5, #4
 800a79a:	d032      	beq.n	800a802 <_DrawBitmap+0x6d2>
 800a79c:	9821      	ldr	r0, [sp, #132]	; 0x84
 800a79e:	f850 3025 	ldr.w	r3, [r0, r5, lsl #2]
 800a7a2:	8023      	strh	r3, [r4, #0]
 800a7a4:	b36e      	cbz	r6, 800a802 <_DrawBitmap+0x6d2>
 800a7a6:	68b3      	ldr	r3, [r6, #8]
 800a7a8:	9a05      	ldr	r2, [sp, #20]
 800a7aa:	681b      	ldr	r3, [r3, #0]
 800a7ac:	4630      	mov	r0, r6
 800a7ae:	4639      	mov	r1, r7
 800a7b0:	4798      	blx	r3
 800a7b2:	e026      	b.n	800a802 <_DrawBitmap+0x6d2>
 800a7b4:	9e20      	ldr	r6, [sp, #128]	; 0x80
 800a7b6:	f1c6 0302 	rsb	r3, r6, #2
 800a7ba:	b2db      	uxtb	r3, r3
 800a7bc:	4650      	mov	r0, sl
 800a7be:	465a      	mov	r2, fp
 800a7c0:	4293      	cmp	r3, r2
 800a7c2:	bfc8      	it	gt
 800a7c4:	b2d3      	uxtbgt	r3, r2
 800a7c6:	1ad2      	subs	r2, r2, r3
 800a7c8:	1ca1      	adds	r1, r4, #2
 800a7ca:	461e      	mov	r6, r3
 800a7cc:	f015 0fc0 	tst.w	r5, #192	; 0xc0
 800a7d0:	d005      	beq.n	800a7de <_DrawBitmap+0x6ae>
 800a7d2:	f831 7c02 	ldrh.w	r7, [r1, #-2]
 800a7d6:	f087 07ff 	eor.w	r7, r7, #255	; 0xff
 800a7da:	f821 7c02 	strh.w	r7, [r1, #-2]
 800a7de:	3e01      	subs	r6, #1
 800a7e0:	012d      	lsls	r5, r5, #4
 800a7e2:	f016 06ff 	ands.w	r6, r6, #255	; 0xff
 800a7e6:	b2ed      	uxtb	r5, r5
 800a7e8:	f101 0102 	add.w	r1, r1, #2
 800a7ec:	d1ee      	bne.n	800a7cc <_DrawBitmap+0x69c>
 800a7ee:	3b01      	subs	r3, #1
 800a7f0:	b2db      	uxtb	r3, r3
 800a7f2:	3301      	adds	r3, #1
 800a7f4:	eb04 0443 	add.w	r4, r4, r3, lsl #1
 800a7f8:	b11a      	cbz	r2, 800a802 <_DrawBitmap+0x6d2>
 800a7fa:	f810 5f01 	ldrb.w	r5, [r0, #1]!
 800a7fe:	2302      	movs	r3, #2
 800a800:	e7de      	b.n	800a7c0 <_DrawBitmap+0x690>
 800a802:	9f1e      	ldr	r7, [sp, #120]	; 0x78
 800a804:	9b05      	ldr	r3, [sp, #20]
 800a806:	9e09      	ldr	r6, [sp, #36]	; 0x24
 800a808:	44ba      	add	sl, r7
 800a80a:	9f08      	ldr	r7, [sp, #32]
 800a80c:	3301      	adds	r3, #1
 800a80e:	4437      	add	r7, r6
 800a810:	9305      	str	r3, [sp, #20]
 800a812:	9708      	str	r7, [sp, #32]
 800a814:	e5a3      	b.n	800a35e <_DrawBitmap+0x22e>
 800a816:	9b11      	ldr	r3, [sp, #68]	; 0x44
 800a818:	b113      	cbz	r3, 800a820 <_DrawBitmap+0x6f0>
 800a81a:	a811      	add	r0, sp, #68	; 0x44
 800a81c:	f7fe fbe4 	bl	8008fe8 <GUI_ALLOC_UnlockH>
 800a820:	b013      	add	sp, #76	; 0x4c
 800a822:	e8bd 8ff0 	ldmia.w	sp!, {r4, r5, r6, r7, r8, r9, sl, fp, pc}
 800a826:	bf00      	nop
 800a828:	20000008 	.word	0x20000008

0800a82c <LCD_SelectLCD>:
 800a82c:	b510      	push	{r4, lr}
 800a82e:	4b0d      	ldr	r3, [pc, #52]	; (800a864 <LCD_SelectLCD+0x38>)
 800a830:	681a      	ldr	r2, [r3, #0]
 800a832:	7c51      	ldrb	r1, [r2, #17]
 800a834:	4a0c      	ldr	r2, [pc, #48]	; (800a868 <LCD_SelectLCD+0x3c>)
 800a836:	f852 0021 	ldr.w	r0, [r2, r1, lsl #2]
 800a83a:	461c      	mov	r4, r3
 800a83c:	b138      	cbz	r0, 800a84e <LCD_SelectLCD+0x22>
 800a83e:	68c2      	ldr	r2, [r0, #12]
 800a840:	6813      	ldr	r3, [r2, #0]
 800a842:	2b04      	cmp	r3, #4
 800a844:	d001      	beq.n	800a84a <LCD_SelectLCD+0x1e>
 800a846:	6800      	ldr	r0, [r0, #0]
 800a848:	e7f8      	b.n	800a83c <LCD_SelectLCD+0x10>
 800a84a:	f7fd ffa9 	bl	80087a0 <GUI_DEVICE_Unlink>
 800a84e:	6823      	ldr	r3, [r4, #0]
 800a850:	2200      	movs	r2, #0
 800a852:	661a      	str	r2, [r3, #96]	; 0x60
 800a854:	f103 0208 	add.w	r2, r3, #8
 800a858:	615a      	str	r2, [r3, #20]
 800a85a:	e8bd 4010 	ldmia.w	sp!, {r4, lr}
 800a85e:	f7fd bc71 	b.w	8008144 <LCD_SetClipRectMax>
 800a862:	bf00      	nop
 800a864:	20000008 	.word	0x20000008
 800a868:	20002e8c 	.word	0x20002e8c

0800a86c <_OnExit>:
 800a86c:	b510      	push	{r4, lr}
 800a86e:	4c03      	ldr	r4, [pc, #12]	; (800a87c <_OnExit+0x10>)
 800a870:	6820      	ldr	r0, [r4, #0]
 800a872:	f7fe fb97 	bl	8008fa4 <GUI_ALLOC_FreeFixedBlock>
 800a876:	2300      	movs	r3, #0
 800a878:	6023      	str	r3, [r4, #0]
 800a87a:	bd10      	pop	{r4, pc}
 800a87c:	20002f8c 	.word	0x20002f8c

0800a880 <LCD_InitColors>:
 800a880:	b538      	push	{r3, r4, r5, lr}
 800a882:	4d09      	ldr	r5, [pc, #36]	; (800a8a8 <LCD_InitColors+0x28>)
 800a884:	682c      	ldr	r4, [r5, #0]
 800a886:	b95c      	cbnz	r4, 800a8a0 <LCD_InitColors+0x20>
 800a888:	4b08      	ldr	r3, [pc, #32]	; (800a8ac <LCD_InitColors+0x2c>)
 800a88a:	6818      	ldr	r0, [r3, #0]
 800a88c:	0080      	lsls	r0, r0, #2
 800a88e:	f7fe fce9 	bl	8009264 <GUI_ALLOC_GetFixedBlock>
 800a892:	6028      	str	r0, [r5, #0]
 800a894:	b130      	cbz	r0, 800a8a4 <LCD_InitColors+0x24>
 800a896:	4806      	ldr	r0, [pc, #24]	; (800a8b0 <LCD_InitColors+0x30>)
 800a898:	4b06      	ldr	r3, [pc, #24]	; (800a8b4 <LCD_InitColors+0x34>)
 800a89a:	6003      	str	r3, [r0, #0]
 800a89c:	f7fe f868 	bl	8008970 <GUI__RegisterExit>
 800a8a0:	2000      	movs	r0, #0
 800a8a2:	bd38      	pop	{r3, r4, r5, pc}
 800a8a4:	2001      	movs	r0, #1
 800a8a6:	bd38      	pop	{r3, r4, r5, pc}
 800a8a8:	20002f8c 	.word	0x20002f8c
 800a8ac:	20000014 	.word	0x20000014
 800a8b0:	20000540 	.word	0x20000540
 800a8b4:	0800a86d 	.word	0x0800a86d

0800a8b8 <LCD_InitLUT>:
 800a8b8:	e92d 47f0 	stmdb	sp!, {r4, r5, r6, r7, r8, r9, sl, lr}
 800a8bc:	f000 fac9 	bl	800ae52 <LCD_GetNumLayers>
 800a8c0:	2400      	movs	r4, #0
 800a8c2:	4680      	mov	r8, r0
 800a8c4:	4544      	cmp	r4, r8
 800a8c6:	da2c      	bge.n	800a922 <LCD_InitLUT+0x6a>
 800a8c8:	4620      	mov	r0, r4
 800a8ca:	f7fd ff31 	bl	8008730 <GUI_DEVICE__GetpDriver>
 800a8ce:	b330      	cbz	r0, 800a91e <LCD_InitLUT+0x66>
 800a8d0:	4e15      	ldr	r6, [pc, #84]	; (800a928 <LCD_InitLUT+0x70>)
 800a8d2:	6833      	ldr	r3, [r6, #0]
 800a8d4:	4620      	mov	r0, r4
 800a8d6:	f893 9011 	ldrb.w	r9, [r3, #17]
 800a8da:	745c      	strb	r4, [r3, #17]
 800a8dc:	f7fd f919 	bl	8007b12 <LCD_GetBitsPerPixelEx>
 800a8e0:	2808      	cmp	r0, #8
 800a8e2:	dd03      	ble.n	800a8ec <LCD_InitLUT+0x34>
 800a8e4:	6833      	ldr	r3, [r6, #0]
 800a8e6:	f883 9011 	strb.w	r9, [r3, #17]
 800a8ea:	e018      	b.n	800a91e <LCD_InitLUT+0x66>
 800a8ec:	4b0f      	ldr	r3, [pc, #60]	; (800a92c <LCD_InitLUT+0x74>)
 800a8ee:	f853 3024 	ldr.w	r3, [r3, r4, lsl #2]
 800a8f2:	691a      	ldr	r2, [r3, #16]
 800a8f4:	4b0e      	ldr	r3, [pc, #56]	; (800a930 <LCD_InitLUT+0x78>)
 800a8f6:	429a      	cmp	r2, r3
 800a8f8:	d0f4      	beq.n	800a8e4 <LCD_InitLUT+0x2c>
 800a8fa:	4620      	mov	r0, r4
 800a8fc:	f7fd f90c 	bl	8007b18 <LCD_GetNumColorsEx>
 800a900:	2500      	movs	r5, #0
 800a902:	4682      	mov	sl, r0
 800a904:	4555      	cmp	r5, sl
 800a906:	daed      	bge.n	800a8e4 <LCD_InitLUT+0x2c>
 800a908:	b2ef      	uxtb	r7, r5
 800a90a:	4638      	mov	r0, r7
 800a90c:	f7fd fc84 	bl	8008218 <LCD_Index2Color>
 800a910:	4639      	mov	r1, r7
 800a912:	4602      	mov	r2, r0
 800a914:	4620      	mov	r0, r4
 800a916:	f7fd f8d5 	bl	8007ac4 <LCD_SetLUTEntryEx>
 800a91a:	3501      	adds	r5, #1
 800a91c:	e7f2      	b.n	800a904 <LCD_InitLUT+0x4c>
 800a91e:	3401      	adds	r4, #1
 800a920:	e7d0      	b.n	800a8c4 <LCD_InitLUT+0xc>
 800a922:	e8bd 87f0 	ldmia.w	sp!, {r4, r5, r6, r7, r8, r9, sl, pc}
 800a926:	bf00      	nop
 800a928:	20000008 	.word	0x20000008
 800a92c:	20002e8c 	.word	0x20002e8c
 800a930:	0800e410 	.word	0x0800e410

0800a934 <GUI__memset16>:
 800a934:	b570      	push	{r4, r5, r6, lr}
 800a936:	0784      	lsls	r4, r0, #30
 800a938:	d502      	bpl.n	800a940 <GUI__memset16+0xc>
 800a93a:	8001      	strh	r1, [r0, #0]
 800a93c:	3a01      	subs	r2, #1
 800a93e:	3002      	adds	r0, #2
 800a940:	0855      	lsrs	r5, r2, #1
 800a942:	462b      	mov	r3, r5
 800a944:	b305      	cbz	r5, 800a988 <GUI__memset16+0x54>
 800a946:	2d03      	cmp	r5, #3
 800a948:	eb01 4401 	add.w	r4, r1, r1, lsl #16
 800a94c:	dc02      	bgt.n	800a954 <GUI__memset16+0x20>
 800a94e:	4606      	mov	r6, r0
 800a950:	461d      	mov	r5, r3
 800a952:	e012      	b.n	800a97a <GUI__memset16+0x46>
 800a954:	4603      	mov	r3, r0
 800a956:	462e      	mov	r6, r5
 800a958:	3e04      	subs	r6, #4
 800a95a:	2e03      	cmp	r6, #3
 800a95c:	601c      	str	r4, [r3, #0]
 800a95e:	605c      	str	r4, [r3, #4]
 800a960:	609c      	str	r4, [r3, #8]
 800a962:	60dc      	str	r4, [r3, #12]
 800a964:	f103 0310 	add.w	r3, r3, #16
 800a968:	dcf6      	bgt.n	800a958 <GUI__memset16+0x24>
 800a96a:	3d04      	subs	r5, #4
 800a96c:	08ab      	lsrs	r3, r5, #2
 800a96e:	1c5e      	adds	r6, r3, #1
 800a970:	eb00 1006 	add.w	r0, r0, r6, lsl #4
 800a974:	eba5 0383 	sub.w	r3, r5, r3, lsl #2
 800a978:	e7e9      	b.n	800a94e <GUI__memset16+0x1a>
 800a97a:	b11d      	cbz	r5, 800a984 <GUI__memset16+0x50>
 800a97c:	f846 4b04 	str.w	r4, [r6], #4
 800a980:	3d01      	subs	r5, #1
 800a982:	e7fa      	b.n	800a97a <GUI__memset16+0x46>
 800a984:	eb00 0083 	add.w	r0, r0, r3, lsl #2
 800a988:	07d3      	lsls	r3, r2, #31
 800a98a:	bf48      	it	mi
 800a98c:	8001      	strhmi	r1, [r0, #0]
 800a98e:	bd70      	pop	{r4, r5, r6, pc}

0800a990 <GUI__CompactPixelIndices>:
 800a990:	2a08      	cmp	r2, #8
 800a992:	b510      	push	{r4, lr}
 800a994:	dd0e      	ble.n	800a9b4 <GUI__CompactPixelIndices+0x24>
 800a996:	2a10      	cmp	r2, #16
 800a998:	dc0a      	bgt.n	800a9b0 <GUI__CompactPixelIndices+0x20>
 800a99a:	eb00 0141 	add.w	r1, r0, r1, lsl #1
 800a99e:	4603      	mov	r3, r0
 800a9a0:	f850 2b04 	ldr.w	r2, [r0], #4
 800a9a4:	f823 2b02 	strh.w	r2, [r3], #2
 800a9a8:	428b      	cmp	r3, r1
 800a9aa:	d1f9      	bne.n	800a9a0 <GUI__CompactPixelIndices+0x10>
 800a9ac:	2001      	movs	r0, #1
 800a9ae:	bd10      	pop	{r4, pc}
 800a9b0:	2000      	movs	r0, #0
 800a9b2:	bd10      	pop	{r4, pc}
 800a9b4:	2a02      	cmp	r2, #2
 800a9b6:	d06d      	beq.n	800aa94 <GUI__CompactPixelIndices+0x104>
 800a9b8:	2a04      	cmp	r2, #4
 800a9ba:	d054      	beq.n	800aa66 <GUI__CompactPixelIndices+0xd6>
 800a9bc:	2a01      	cmp	r2, #1
 800a9be:	f040 8095 	bne.w	800aaec <GUI__CompactPixelIndices+0x15c>
 800a9c2:	4604      	mov	r4, r0
 800a9c4:	6803      	ldr	r3, [r0, #0]
 800a9c6:	2901      	cmp	r1, #1
 800a9c8:	ea4f 13c3 	mov.w	r3, r3, lsl #7
 800a9cc:	b2db      	uxtb	r3, r3
 800a9ce:	d047      	beq.n	800aa60 <GUI__CompactPixelIndices+0xd0>
 800a9d0:	6842      	ldr	r2, [r0, #4]
 800a9d2:	2902      	cmp	r1, #2
 800a9d4:	f002 0201 	and.w	r2, r2, #1
 800a9d8:	ea43 1382 	orr.w	r3, r3, r2, lsl #6
 800a9dc:	d102      	bne.n	800a9e4 <GUI__CompactPixelIndices+0x54>
 800a9de:	f100 0208 	add.w	r2, r0, #8
 800a9e2:	e03e      	b.n	800aa62 <GUI__CompactPixelIndices+0xd2>
 800a9e4:	6882      	ldr	r2, [r0, #8]
 800a9e6:	2903      	cmp	r1, #3
 800a9e8:	f002 0201 	and.w	r2, r2, #1
 800a9ec:	ea43 1342 	orr.w	r3, r3, r2, lsl #5
 800a9f0:	d102      	bne.n	800a9f8 <GUI__CompactPixelIndices+0x68>
 800a9f2:	f100 020c 	add.w	r2, r0, #12
 800a9f6:	e034      	b.n	800aa62 <GUI__CompactPixelIndices+0xd2>
 800a9f8:	68c2      	ldr	r2, [r0, #12]
 800a9fa:	2904      	cmp	r1, #4
 800a9fc:	f002 0201 	and.w	r2, r2, #1
 800aa00:	ea43 1302 	orr.w	r3, r3, r2, lsl #4
 800aa04:	d102      	bne.n	800aa0c <GUI__CompactPixelIndices+0x7c>
 800aa06:	f100 0210 	add.w	r2, r0, #16
 800aa0a:	e02a      	b.n	800aa62 <GUI__CompactPixelIndices+0xd2>
 800aa0c:	6902      	ldr	r2, [r0, #16]
 800aa0e:	2905      	cmp	r1, #5
 800aa10:	f002 0201 	and.w	r2, r2, #1
 800aa14:	ea43 03c2 	orr.w	r3, r3, r2, lsl #3
 800aa18:	d102      	bne.n	800aa20 <GUI__CompactPixelIndices+0x90>
 800aa1a:	f100 0214 	add.w	r2, r0, #20
 800aa1e:	e020      	b.n	800aa62 <GUI__CompactPixelIndices+0xd2>
 800aa20:	6942      	ldr	r2, [r0, #20]
 800aa22:	2906      	cmp	r1, #6
 800aa24:	f002 0201 	and.w	r2, r2, #1
 800aa28:	ea43 0382 	orr.w	r3, r3, r2, lsl #2
 800aa2c:	d102      	bne.n	800aa34 <GUI__CompactPixelIndices+0xa4>
 800aa2e:	f100 0218 	add.w	r2, r0, #24
 800aa32:	e016      	b.n	800aa62 <GUI__CompactPixelIndices+0xd2>
 800aa34:	6982      	ldr	r2, [r0, #24]
 800aa36:	3907      	subs	r1, #7
 800aa38:	f002 0201 	and.w	r2, r2, #1
 800aa3c:	ea43 0342 	orr.w	r3, r3, r2, lsl #1
 800aa40:	d102      	bne.n	800aa48 <GUI__CompactPixelIndices+0xb8>
 800aa42:	f100 021c 	add.w	r2, r0, #28
 800aa46:	e005      	b.n	800aa54 <GUI__CompactPixelIndices+0xc4>
 800aa48:	f100 0220 	add.w	r2, r0, #32
 800aa4c:	69c0      	ldr	r0, [r0, #28]
 800aa4e:	f000 0001 	and.w	r0, r0, #1
 800aa52:	4303      	orrs	r3, r0
 800aa54:	f804 3b01 	strb.w	r3, [r4], #1
 800aa58:	2900      	cmp	r1, #0
 800aa5a:	d0a7      	beq.n	800a9ac <GUI__CompactPixelIndices+0x1c>
 800aa5c:	4610      	mov	r0, r2
 800aa5e:	e7b1      	b.n	800a9c4 <GUI__CompactPixelIndices+0x34>
 800aa60:	1d02      	adds	r2, r0, #4
 800aa62:	2100      	movs	r1, #0
 800aa64:	e7f6      	b.n	800aa54 <GUI__CompactPixelIndices+0xc4>
 800aa66:	4602      	mov	r2, r0
 800aa68:	6803      	ldr	r3, [r0, #0]
 800aa6a:	2901      	cmp	r1, #1
 800aa6c:	ea4f 1303 	mov.w	r3, r3, lsl #4
 800aa70:	b2db      	uxtb	r3, r3
 800aa72:	d102      	bne.n	800aa7a <GUI__CompactPixelIndices+0xea>
 800aa74:	1d04      	adds	r4, r0, #4
 800aa76:	2100      	movs	r1, #0
 800aa78:	e006      	b.n	800aa88 <GUI__CompactPixelIndices+0xf8>
 800aa7a:	f100 0408 	add.w	r4, r0, #8
 800aa7e:	6840      	ldr	r0, [r0, #4]
 800aa80:	f000 000f 	and.w	r0, r0, #15
 800aa84:	4303      	orrs	r3, r0
 800aa86:	3902      	subs	r1, #2
 800aa88:	f802 3b01 	strb.w	r3, [r2], #1
 800aa8c:	2900      	cmp	r1, #0
 800aa8e:	d08d      	beq.n	800a9ac <GUI__CompactPixelIndices+0x1c>
 800aa90:	4620      	mov	r0, r4
 800aa92:	e7e9      	b.n	800aa68 <GUI__CompactPixelIndices+0xd8>
 800aa94:	4604      	mov	r4, r0
 800aa96:	6803      	ldr	r3, [r0, #0]
 800aa98:	2901      	cmp	r1, #1
 800aa9a:	ea4f 1383 	mov.w	r3, r3, lsl #6
 800aa9e:	b2db      	uxtb	r3, r3
 800aaa0:	d021      	beq.n	800aae6 <GUI__CompactPixelIndices+0x156>
 800aaa2:	6842      	ldr	r2, [r0, #4]
 800aaa4:	2902      	cmp	r1, #2
 800aaa6:	f002 0203 	and.w	r2, r2, #3
 800aaaa:	ea43 1302 	orr.w	r3, r3, r2, lsl #4
 800aaae:	d102      	bne.n	800aab6 <GUI__CompactPixelIndices+0x126>
 800aab0:	f100 0208 	add.w	r2, r0, #8
 800aab4:	e018      	b.n	800aae8 <GUI__CompactPixelIndices+0x158>
 800aab6:	6882      	ldr	r2, [r0, #8]
 800aab8:	2903      	cmp	r1, #3
 800aaba:	f002 0203 	and.w	r2, r2, #3
 800aabe:	ea43 0382 	orr.w	r3, r3, r2, lsl #2
 800aac2:	d102      	bne.n	800aaca <GUI__CompactPixelIndices+0x13a>
 800aac4:	f100 020c 	add.w	r2, r0, #12
 800aac8:	e00e      	b.n	800aae8 <GUI__CompactPixelIndices+0x158>
 800aaca:	f100 0210 	add.w	r2, r0, #16
 800aace:	68c0      	ldr	r0, [r0, #12]
 800aad0:	f000 0003 	and.w	r0, r0, #3
 800aad4:	4303      	orrs	r3, r0
 800aad6:	3904      	subs	r1, #4
 800aad8:	f804 3b01 	strb.w	r3, [r4], #1
 800aadc:	2900      	cmp	r1, #0
 800aade:	f43f af65 	beq.w	800a9ac <GUI__CompactPixelIndices+0x1c>
 800aae2:	4610      	mov	r0, r2
 800aae4:	e7d7      	b.n	800aa96 <GUI__CompactPixelIndices+0x106>
 800aae6:	1d02      	adds	r2, r0, #4
 800aae8:	2100      	movs	r1, #0
 800aaea:	e7f5      	b.n	800aad8 <GUI__CompactPixelIndices+0x148>
 800aaec:	2300      	movs	r3, #0
 800aaee:	f850 2023 	ldr.w	r2, [r0, r3, lsl #2]
 800aaf2:	54c2      	strb	r2, [r0, r3]
 800aaf4:	3301      	adds	r3, #1
 800aaf6:	428b      	cmp	r3, r1
 800aaf8:	d1f9      	bne.n	800aaee <GUI__CompactPixelIndices+0x15e>
 800aafa:	e757      	b.n	800a9ac <GUI__CompactPixelIndices+0x1c>

0800aafc <_GetCharCode>:
 800aafc:	7800      	ldrb	r0, [r0, #0]
 800aafe:	4770      	bx	lr

0800ab00 <_GetCharSize>:
 800ab00:	2001      	movs	r0, #1
 800ab02:	4770      	bx	lr

0800ab04 <_CalcSizeOfChar>:
 800ab04:	2001      	movs	r0, #1
 800ab06:	4770      	bx	lr

0800ab08 <_Encode>:
 800ab08:	7001      	strb	r1, [r0, #0]
 800ab0a:	2001      	movs	r0, #1
 800ab0c:	4770      	bx	lr
	...

0800ab10 <GUI_UC__GetCharCodeInc>:
 800ab10:	b5f8      	push	{r3, r4, r5, r6, r7, lr}
 800ab12:	4e08      	ldr	r6, [pc, #32]	; (800ab34 <GUI_UC__GetCharCodeInc+0x24>)
 800ab14:	6804      	ldr	r4, [r0, #0]
 800ab16:	6833      	ldr	r3, [r6, #0]
 800ab18:	4605      	mov	r5, r0
 800ab1a:	681b      	ldr	r3, [r3, #0]
 800ab1c:	4620      	mov	r0, r4
 800ab1e:	4798      	blx	r3
 800ab20:	6833      	ldr	r3, [r6, #0]
 800ab22:	4607      	mov	r7, r0
 800ab24:	685b      	ldr	r3, [r3, #4]
 800ab26:	4620      	mov	r0, r4
 800ab28:	4798      	blx	r3
 800ab2a:	4420      	add	r0, r4
 800ab2c:	6028      	str	r0, [r5, #0]
 800ab2e:	4638      	mov	r0, r7
 800ab30:	bdf8      	pop	{r3, r4, r5, r6, r7, pc}
 800ab32:	bf00      	nop
 800ab34:	20002e84 	.word	0x20002e84

0800ab38 <GUI_UC__NumChars2NumBytes>:
 800ab38:	b570      	push	{r4, r5, r6, lr}
 800ab3a:	4604      	mov	r4, r0
 800ab3c:	460e      	mov	r6, r1
 800ab3e:	2500      	movs	r5, #0
 800ab40:	b146      	cbz	r6, 800ab54 <GUI_UC__NumChars2NumBytes+0x1c>
 800ab42:	4b05      	ldr	r3, [pc, #20]	; (800ab58 <GUI_UC__NumChars2NumBytes+0x20>)
 800ab44:	681b      	ldr	r3, [r3, #0]
 800ab46:	4620      	mov	r0, r4
 800ab48:	685b      	ldr	r3, [r3, #4]
 800ab4a:	4798      	blx	r3
 800ab4c:	3e01      	subs	r6, #1
 800ab4e:	4404      	add	r4, r0
 800ab50:	4405      	add	r5, r0
 800ab52:	e7f5      	b.n	800ab40 <GUI_UC__NumChars2NumBytes+0x8>
 800ab54:	4628      	mov	r0, r5
 800ab56:	bd70      	pop	{r4, r5, r6, pc}
 800ab58:	20002e84 	.word	0x20002e84

0800ab5c <GUI_SetOrg>:
 800ab5c:	460a      	mov	r2, r1
 800ab5e:	4908      	ldr	r1, [pc, #32]	; (800ab80 <GUI_SetOrg+0x24>)
 800ab60:	b510      	push	{r4, lr}
 800ab62:	8008      	strh	r0, [r1, #0]
 800ab64:	4907      	ldr	r1, [pc, #28]	; (800ab84 <GUI_SetOrg+0x28>)
 800ab66:	800a      	strh	r2, [r1, #0]
 800ab68:	4907      	ldr	r1, [pc, #28]	; (800ab88 <GUI_SetOrg+0x2c>)
 800ab6a:	6809      	ldr	r1, [r1, #0]
 800ab6c:	4603      	mov	r3, r0
 800ab6e:	7c48      	ldrb	r0, [r1, #17]
 800ab70:	4906      	ldr	r1, [pc, #24]	; (800ab8c <GUI_SetOrg+0x30>)
 800ab72:	f851 0020 	ldr.w	r0, [r1, r0, lsl #2]
 800ab76:	68c1      	ldr	r1, [r0, #12]
 800ab78:	6a0c      	ldr	r4, [r1, #32]
 800ab7a:	4619      	mov	r1, r3
 800ab7c:	47a0      	blx	r4
 800ab7e:	bd10      	pop	{r4, pc}
 800ab80:	20002e78 	.word	0x20002e78
 800ab84:	20002e6c 	.word	0x20002e6c
 800ab88:	20000008 	.word	0x20000008
 800ab8c:	20002e8c 	.word	0x20002e8c

0800ab90 <GUI_GetBkColor>:
 800ab90:	b508      	push	{r3, lr}
 800ab92:	f000 f96d 	bl	800ae70 <LCD_GetBkColorIndex>
 800ab96:	e8bd 4008 	ldmia.w	sp!, {r3, lr}
 800ab9a:	f7fd bb3d 	b.w	8008218 <LCD_Index2Color>

0800ab9e <GUI_GetColor>:
 800ab9e:	b508      	push	{r3, lr}
 800aba0:	f000 f96e 	bl	800ae80 <LCD_GetColorIndex>
 800aba4:	e8bd 4008 	ldmia.w	sp!, {r3, lr}
 800aba8:	f7fd bb36 	b.w	8008218 <LCD_Index2Color>

0800abac <GUIMONO_DispChar>:
 800abac:	4b52      	ldr	r3, [pc, #328]	; (800acf8 <GUIMONO_DispChar+0x14c>)
 800abae:	e92d 4ff0 	stmdb	sp!, {r4, r5, r6, r7, r8, r9, sl, fp, lr}
 800abb2:	681b      	ldr	r3, [r3, #0]
 800abb4:	69d9      	ldr	r1, [r3, #28]
 800abb6:	8c5f      	ldrh	r7, [r3, #34]	; 0x22
 800abb8:	69cc      	ldr	r4, [r1, #28]
 800abba:	8c9d      	ldrh	r5, [r3, #36]	; 0x24
 800abbc:	89a2      	ldrh	r2, [r4, #12]
 800abbe:	4290      	cmp	r0, r2
 800abc0:	b08b      	sub	sp, #44	; 0x2c
 800abc2:	d308      	bcc.n	800abd6 <GUIMONO_DispChar+0x2a>
 800abc4:	89e6      	ldrh	r6, [r4, #14]
 800abc6:	4286      	cmp	r6, r0
 800abc8:	d305      	bcc.n	800abd6 <GUIMONO_DispChar+0x2a>
 800abca:	f8d4 9000 	ldr.w	r9, [r4]
 800abce:	1a82      	subs	r2, r0, r2
 800abd0:	f04f 3bff 	mov.w	fp, #4294967295
 800abd4:	e015      	b.n	800ac02 <GUIMONO_DispChar+0x56>
 800abd6:	68a2      	ldr	r2, [r4, #8]
 800abd8:	f8d4 9004 	ldr.w	r9, [r4, #4]
 800abdc:	2a00      	cmp	r2, #0
 800abde:	f000 8081 	beq.w	800ace4 <GUIMONO_DispChar+0x138>
 800abe2:	8816      	ldrh	r6, [r2, #0]
 800abe4:	42b0      	cmp	r0, r6
 800abe6:	d37d      	bcc.n	800ace4 <GUIMONO_DispChar+0x138>
 800abe8:	f8b2 c002 	ldrh.w	ip, [r2, #2]
 800abec:	4584      	cmp	ip, r0
 800abee:	d379      	bcc.n	800ace4 <GUIMONO_DispChar+0x138>
 800abf0:	6852      	ldr	r2, [r2, #4]
 800abf2:	1b80      	subs	r0, r0, r6
 800abf4:	b280      	uxth	r0, r0
 800abf6:	eb02 0680 	add.w	r6, r2, r0, lsl #2
 800abfa:	f932 2020 	ldrsh.w	r2, [r2, r0, lsl #2]
 800abfe:	f9b6 b002 	ldrsh.w	fp, [r6, #2]
 800ac02:	1c50      	adds	r0, r2, #1
 800ac04:	d06e      	beq.n	800ace4 <GUIMONO_DispChar+0x138>
 800ac06:	f891 8018 	ldrb.w	r8, [r1, #24]
 800ac0a:	7ca1      	ldrb	r1, [r4, #18]
 800ac0c:	f8b3 a02a 	ldrh.w	sl, [r3, #42]	; 0x2a
 800ac10:	7c26      	ldrb	r6, [r4, #16]
 800ac12:	9206      	str	r2, [sp, #24]
 800ac14:	fb18 f101 	smulbb	r1, r8, r1
 800ac18:	9107      	str	r1, [sp, #28]
 800ac1a:	fa0f f18a 	sxth.w	r1, sl
 800ac1e:	4608      	mov	r0, r1
 800ac20:	9108      	str	r1, [sp, #32]
 800ac22:	f7fd f81d 	bl	8007c60 <LCD_SetDrawMode>
 800ac26:	4934      	ldr	r1, [pc, #208]	; (800acf8 <GUIMONO_DispChar+0x14c>)
 800ac28:	9009      	str	r0, [sp, #36]	; 0x24
 800ac2a:	680b      	ldr	r3, [r1, #0]
 800ac2c:	9a06      	ldr	r2, [sp, #24]
 800ac2e:	69d9      	ldr	r1, [r3, #28]
 800ac30:	7e88      	ldrb	r0, [r1, #26]
 800ac32:	9000      	str	r0, [sp, #0]
 800ac34:	7ec9      	ldrb	r1, [r1, #27]
 800ac36:	9101      	str	r1, [sp, #4]
 800ac38:	2101      	movs	r1, #1
 800ac3a:	9102      	str	r1, [sp, #8]
 800ac3c:	7ca1      	ldrb	r1, [r4, #18]
 800ac3e:	9103      	str	r1, [sp, #12]
 800ac40:	9907      	ldr	r1, [sp, #28]
 800ac42:	fb01 9202 	mla	r2, r1, r2, r9
 800ac46:	9204      	str	r2, [sp, #16]
 800ac48:	6b9b      	ldr	r3, [r3, #56]	; 0x38
 800ac4a:	9305      	str	r3, [sp, #20]
 800ac4c:	b23f      	sxth	r7, r7
 800ac4e:	b22d      	sxth	r5, r5
 800ac50:	4638      	mov	r0, r7
 800ac52:	4629      	mov	r1, r5
 800ac54:	4632      	mov	r2, r6
 800ac56:	4643      	mov	r3, r8
 800ac58:	f7fd f96a 	bl	8007f30 <LCD_DrawBitmap>
 800ac5c:	f1bb 3fff 	cmp.w	fp, #4294967295
 800ac60:	d01b      	beq.n	800ac9a <GUIMONO_DispChar+0xee>
 800ac62:	f04a 0002 	orr.w	r0, sl, #2
 800ac66:	b200      	sxth	r0, r0
 800ac68:	f7fc fffa 	bl	8007c60 <LCD_SetDrawMode>
 800ac6c:	4a22      	ldr	r2, [pc, #136]	; (800acf8 <GUIMONO_DispChar+0x14c>)
 800ac6e:	6813      	ldr	r3, [r2, #0]
 800ac70:	69da      	ldr	r2, [r3, #28]
 800ac72:	7e91      	ldrb	r1, [r2, #26]
 800ac74:	9100      	str	r1, [sp, #0]
 800ac76:	7ed2      	ldrb	r2, [r2, #27]
 800ac78:	9201      	str	r2, [sp, #4]
 800ac7a:	2101      	movs	r1, #1
 800ac7c:	9102      	str	r1, [sp, #8]
 800ac7e:	9907      	ldr	r1, [sp, #28]
 800ac80:	7ca2      	ldrb	r2, [r4, #18]
 800ac82:	9203      	str	r2, [sp, #12]
 800ac84:	fb01 920b 	mla	r2, r1, fp, r9
 800ac88:	9204      	str	r2, [sp, #16]
 800ac8a:	6b9b      	ldr	r3, [r3, #56]	; 0x38
 800ac8c:	9305      	str	r3, [sp, #20]
 800ac8e:	4638      	mov	r0, r7
 800ac90:	4629      	mov	r1, r5
 800ac92:	4632      	mov	r2, r6
 800ac94:	4643      	mov	r3, r8
 800ac96:	f7fd f94b 	bl	8007f30 <LCD_DrawBitmap>
 800ac9a:	f8df 805c 	ldr.w	r8, [pc, #92]	; 800acf8 <GUIMONO_DispChar+0x14c>
 800ac9e:	f8d8 3000 	ldr.w	r3, [r8]
 800aca2:	69db      	ldr	r3, [r3, #28]
 800aca4:	7e5a      	ldrb	r2, [r3, #25]
 800aca6:	7e1b      	ldrb	r3, [r3, #24]
 800aca8:	429a      	cmp	r2, r3
 800acaa:	d917      	bls.n	800acdc <GUIMONO_DispChar+0x130>
 800acac:	9a08      	ldr	r2, [sp, #32]
 800acae:	2a02      	cmp	r2, #2
 800acb0:	d014      	beq.n	800acdc <GUIMONO_DispChar+0x130>
 800acb2:	f08a 0004 	eor.w	r0, sl, #4
 800acb6:	b200      	sxth	r0, r0
 800acb8:	f7fc ffd2 	bl	8007c60 <LCD_SetDrawMode>
 800acbc:	f8d8 3000 	ldr.w	r3, [r8]
 800acc0:	69db      	ldr	r3, [r3, #28]
 800acc2:	f893 e018 	ldrb.w	lr, [r3, #24]
 800acc6:	7ed9      	ldrb	r1, [r3, #27]
 800acc8:	7e9a      	ldrb	r2, [r3, #26]
 800acca:	7e5b      	ldrb	r3, [r3, #25]
 800accc:	4638      	mov	r0, r7
 800acce:	fb0e 5101 	mla	r1, lr, r1, r5
 800acd2:	fb06 7202 	mla	r2, r6, r2, r7
 800acd6:	442b      	add	r3, r5
 800acd8:	f7fd f81e 	bl	8007d18 <LCD_FillRect>
 800acdc:	9b09      	ldr	r3, [sp, #36]	; 0x24
 800acde:	b2d8      	uxtb	r0, r3
 800ace0:	f7fc ffbe 	bl	8007c60 <LCD_SetDrawMode>
 800ace4:	4b04      	ldr	r3, [pc, #16]	; (800acf8 <GUIMONO_DispChar+0x14c>)
 800ace6:	7c61      	ldrb	r1, [r4, #17]
 800ace8:	681b      	ldr	r3, [r3, #0]
 800acea:	8c5a      	ldrh	r2, [r3, #34]	; 0x22
 800acec:	440a      	add	r2, r1
 800acee:	845a      	strh	r2, [r3, #34]	; 0x22
 800acf0:	b00b      	add	sp, #44	; 0x2c
 800acf2:	e8bd 8ff0 	ldmia.w	sp!, {r4, r5, r6, r7, r8, r9, sl, fp, pc}
 800acf6:	bf00      	nop
 800acf8:	20000008 	.word	0x20000008

0800acfc <GUIMONO_GetCharDistX>:
 800acfc:	4b04      	ldr	r3, [pc, #16]	; (800ad10 <GUIMONO_GetCharDistX+0x14>)
 800acfe:	681b      	ldr	r3, [r3, #0]
 800ad00:	69db      	ldr	r3, [r3, #28]
 800ad02:	69db      	ldr	r3, [r3, #28]
 800ad04:	b109      	cbz	r1, 800ad0a <GUIMONO_GetCharDistX+0xe>
 800ad06:	7c1a      	ldrb	r2, [r3, #16]
 800ad08:	600a      	str	r2, [r1, #0]
 800ad0a:	7c58      	ldrb	r0, [r3, #17]
 800ad0c:	4770      	bx	lr
 800ad0e:	bf00      	nop
 800ad10:	20000008 	.word	0x20000008

0800ad14 <GUIMONO_GetFontInfo>:
 800ad14:	2302      	movs	r3, #2
 800ad16:	800b      	strh	r3, [r1, #0]
 800ad18:	4770      	bx	lr

0800ad1a <GUIMONO_IsInFont>:
 800ad1a:	69c3      	ldr	r3, [r0, #28]
 800ad1c:	899a      	ldrh	r2, [r3, #12]
 800ad1e:	428a      	cmp	r2, r1
 800ad20:	d802      	bhi.n	800ad28 <GUIMONO_IsInFont+0xe>
 800ad22:	89da      	ldrh	r2, [r3, #14]
 800ad24:	428a      	cmp	r2, r1
 800ad26:	d20f      	bcs.n	800ad48 <GUIMONO_IsInFont+0x2e>
 800ad28:	6898      	ldr	r0, [r3, #8]
 800ad2a:	b180      	cbz	r0, 800ad4e <GUIMONO_IsInFont+0x34>
 800ad2c:	8803      	ldrh	r3, [r0, #0]
 800ad2e:	4299      	cmp	r1, r3
 800ad30:	d30c      	bcc.n	800ad4c <GUIMONO_IsInFont+0x32>
 800ad32:	8842      	ldrh	r2, [r0, #2]
 800ad34:	428a      	cmp	r2, r1
 800ad36:	d309      	bcc.n	800ad4c <GUIMONO_IsInFont+0x32>
 800ad38:	1ac9      	subs	r1, r1, r3
 800ad3a:	6842      	ldr	r2, [r0, #4]
 800ad3c:	f832 0021 	ldrh.w	r0, [r2, r1, lsl #2]
 800ad40:	43c0      	mvns	r0, r0
 800ad42:	f3c0 30c0 	ubfx	r0, r0, #15, #1
 800ad46:	4770      	bx	lr
 800ad48:	2001      	movs	r0, #1
 800ad4a:	4770      	bx	lr
 800ad4c:	2000      	movs	r0, #0
 800ad4e:	4770      	bx	lr

0800ad50 <_GetIndexMask_0>:
 800ad50:	b508      	push	{r3, lr}
 800ad52:	f7fc fee5 	bl	8007b20 <LCD_GetNumColors>
 800ad56:	f5b0 7f80 	cmp.w	r0, #256	; 0x100
 800ad5a:	d010      	beq.n	800ad7e <_GetIndexMask_0+0x2e>
 800ad5c:	287f      	cmp	r0, #127	; 0x7f
 800ad5e:	d810      	bhi.n	800ad82 <_GetIndexMask_0+0x32>
 800ad60:	283f      	cmp	r0, #63	; 0x3f
 800ad62:	d810      	bhi.n	800ad86 <_GetIndexMask_0+0x36>
 800ad64:	281f      	cmp	r0, #31
 800ad66:	d810      	bhi.n	800ad8a <_GetIndexMask_0+0x3a>
 800ad68:	280f      	cmp	r0, #15
 800ad6a:	d810      	bhi.n	800ad8e <_GetIndexMask_0+0x3e>
 800ad6c:	2807      	cmp	r0, #7
 800ad6e:	d810      	bhi.n	800ad92 <_GetIndexMask_0+0x42>
 800ad70:	2803      	cmp	r0, #3
 800ad72:	d810      	bhi.n	800ad96 <_GetIndexMask_0+0x46>
 800ad74:	2801      	cmp	r0, #1
 800ad76:	bf94      	ite	ls
 800ad78:	2000      	movls	r0, #0
 800ad7a:	2001      	movhi	r0, #1
 800ad7c:	e00c      	b.n	800ad98 <_GetIndexMask_0+0x48>
 800ad7e:	2008      	movs	r0, #8
 800ad80:	e00a      	b.n	800ad98 <_GetIndexMask_0+0x48>
 800ad82:	2007      	movs	r0, #7
 800ad84:	e008      	b.n	800ad98 <_GetIndexMask_0+0x48>
 800ad86:	2006      	movs	r0, #6
 800ad88:	e006      	b.n	800ad98 <_GetIndexMask_0+0x48>
 800ad8a:	2005      	movs	r0, #5
 800ad8c:	e004      	b.n	800ad98 <_GetIndexMask_0+0x48>
 800ad8e:	2004      	movs	r0, #4
 800ad90:	e002      	b.n	800ad98 <_GetIndexMask_0+0x48>
 800ad92:	2003      	movs	r0, #3
 800ad94:	e000      	b.n	800ad98 <_GetIndexMask_0+0x48>
 800ad96:	2002      	movs	r0, #2
 800ad98:	2301      	movs	r3, #1
 800ad9a:	fa03 f000 	lsl.w	r0, r3, r0
 800ad9e:	3801      	subs	r0, #1
 800ada0:	bd08      	pop	{r3, pc}

0800ada2 <_Index2Color_0>:
 800ada2:	b538      	push	{r3, r4, r5, lr}
 800ada4:	4604      	mov	r4, r0
 800ada6:	f7fc febb 	bl	8007b20 <LCD_GetNumColors>
 800adaa:	4605      	mov	r5, r0
 800adac:	f7fc fed6 	bl	8007b5c <LCD_GetPalette>
 800adb0:	42ac      	cmp	r4, r5
 800adb2:	d203      	bcs.n	800adbc <_Index2Color_0+0x1a>
 800adb4:	b118      	cbz	r0, 800adbe <_Index2Color_0+0x1c>
 800adb6:	f850 0024 	ldr.w	r0, [r0, r4, lsl #2]
 800adba:	bd38      	pop	{r3, r4, r5, pc}
 800adbc:	2000      	movs	r0, #0
 800adbe:	bd38      	pop	{r3, r4, r5, pc}

0800adc0 <_Color2Index_0>:
 800adc0:	e92d 43f8 	stmdb	sp!, {r3, r4, r5, r6, r7, r8, r9, lr}
 800adc4:	4681      	mov	r9, r0
 800adc6:	f7fc feab 	bl	8007b20 <LCD_GetNumColors>
 800adca:	4680      	mov	r8, r0
 800adcc:	f7fc fec6 	bl	8007b5c <LCD_GetPalette>
 800add0:	4606      	mov	r6, r0
 800add2:	b1d8      	cbz	r0, 800ae0c <_Color2Index_0+0x4c>
 800add4:	2300      	movs	r3, #0
 800add6:	f856 2023 	ldr.w	r2, [r6, r3, lsl #2]
 800adda:	4591      	cmp	r9, r2
 800addc:	d01a      	beq.n	800ae14 <_Color2Index_0+0x54>
 800adde:	3301      	adds	r3, #1
 800ade0:	4543      	cmp	r3, r8
 800ade2:	dbf8      	blt.n	800add6 <_Color2Index_0+0x16>
 800ade4:	2500      	movs	r5, #0
 800ade6:	f06f 477f 	mvn.w	r7, #4278190080	; 0xff000000
 800adea:	462c      	mov	r4, r5
 800adec:	f856 1024 	ldr.w	r1, [r6, r4, lsl #2]
 800adf0:	4648      	mov	r0, r9
 800adf2:	f000 f84d 	bl	800ae90 <GUI_CalcColorDist>
 800adf6:	42b8      	cmp	r0, r7
 800adf8:	bf38      	it	cc
 800adfa:	4625      	movcc	r5, r4
 800adfc:	f104 0401 	add.w	r4, r4, #1
 800ae00:	bf28      	it	cs
 800ae02:	4638      	movcs	r0, r7
 800ae04:	4544      	cmp	r4, r8
 800ae06:	da02      	bge.n	800ae0e <_Color2Index_0+0x4e>
 800ae08:	4607      	mov	r7, r0
 800ae0a:	e7ef      	b.n	800adec <_Color2Index_0+0x2c>
 800ae0c:	4605      	mov	r5, r0
 800ae0e:	4628      	mov	r0, r5
 800ae10:	e8bd 83f8 	ldmia.w	sp!, {r3, r4, r5, r6, r7, r8, r9, pc}
 800ae14:	4618      	mov	r0, r3
 800ae16:	e8bd 83f8 	ldmia.w	sp!, {r3, r4, r5, r6, r7, r8, r9, pc}

0800ae1a <WM__GetPrevSibling>:
 800ae1a:	b538      	push	{r3, r4, r5, lr}
 800ae1c:	4605      	mov	r5, r0
 800ae1e:	f000 f80f 	bl	800ae40 <WM__GetFirstSibling>
 800ae22:	4604      	mov	r4, r0
 800ae24:	b154      	cbz	r4, 800ae3c <WM__GetPrevSibling+0x22>
 800ae26:	42ac      	cmp	r4, r5
 800ae28:	d007      	beq.n	800ae3a <WM__GetPrevSibling+0x20>
 800ae2a:	4620      	mov	r0, r4
 800ae2c:	f7fe f8c4 	bl	8008fb8 <GUI_ALLOC_h2p>
 800ae30:	6a03      	ldr	r3, [r0, #32]
 800ae32:	42ab      	cmp	r3, r5
 800ae34:	d002      	beq.n	800ae3c <WM__GetPrevSibling+0x22>
 800ae36:	461c      	mov	r4, r3
 800ae38:	e7f4      	b.n	800ae24 <WM__GetPrevSibling+0xa>
 800ae3a:	2400      	movs	r4, #0
 800ae3c:	4620      	mov	r0, r4
 800ae3e:	bd38      	pop	{r3, r4, r5, pc}

0800ae40 <WM__GetFirstSibling>:
 800ae40:	b508      	push	{r3, lr}
 800ae42:	f7fe fb8d 	bl	8009560 <WM_GetParent>
 800ae46:	b118      	cbz	r0, 800ae50 <WM__GetFirstSibling+0x10>
 800ae48:	f7fe f8b6 	bl	8008fb8 <GUI_ALLOC_h2p>
 800ae4c:	69c0      	ldr	r0, [r0, #28]
 800ae4e:	bd08      	pop	{r3, pc}
 800ae50:	bd08      	pop	{r3, pc}

0800ae52 <LCD_GetNumLayers>:
 800ae52:	b510      	push	{r4, lr}
 800ae54:	2000      	movs	r0, #0
 800ae56:	f7fd fc6b 	bl	8008730 <GUI_DEVICE__GetpDriver>
 800ae5a:	1c04      	adds	r4, r0, #0
 800ae5c:	f04f 0001 	mov.w	r0, #1
 800ae60:	bf18      	it	ne
 800ae62:	2401      	movne	r4, #1
 800ae64:	f7fd fc64 	bl	8008730 <GUI_DEVICE__GetpDriver>
 800ae68:	b100      	cbz	r0, 800ae6c <LCD_GetNumLayers+0x1a>
 800ae6a:	3401      	adds	r4, #1
 800ae6c:	4620      	mov	r0, r4
 800ae6e:	bd10      	pop	{r4, pc}

0800ae70 <LCD_GetBkColorIndex>:
 800ae70:	4b02      	ldr	r3, [pc, #8]	; (800ae7c <LCD_GetBkColorIndex+0xc>)
 800ae72:	681b      	ldr	r3, [r3, #0]
 800ae74:	6b9b      	ldr	r3, [r3, #56]	; 0x38
 800ae76:	6818      	ldr	r0, [r3, #0]
 800ae78:	4770      	bx	lr
 800ae7a:	bf00      	nop
 800ae7c:	20000008 	.word	0x20000008

0800ae80 <LCD_GetColorIndex>:
 800ae80:	4b02      	ldr	r3, [pc, #8]	; (800ae8c <LCD_GetColorIndex+0xc>)
 800ae82:	681b      	ldr	r3, [r3, #0]
 800ae84:	6bdb      	ldr	r3, [r3, #60]	; 0x3c
 800ae86:	6818      	ldr	r0, [r3, #0]
 800ae88:	4770      	bx	lr
 800ae8a:	bf00      	nop
 800ae8c:	20000008 	.word	0x20000008

0800ae90 <GUI_CalcColorDist>:
 800ae90:	b2cb      	uxtb	r3, r1
 800ae92:	b2c2      	uxtb	r2, r0
 800ae94:	1ad2      	subs	r2, r2, r3
 800ae96:	b292      	uxth	r2, r2
 800ae98:	b293      	uxth	r3, r2
 800ae9a:	b530      	push	{r4, r5, lr}
 800ae9c:	041c      	lsls	r4, r3, #16
 800ae9e:	bf48      	it	mi
 800aea0:	4253      	negmi	r3, r2
 800aea2:	f3c1 2507 	ubfx	r5, r1, #8, #8
 800aea6:	f3c0 2207 	ubfx	r2, r0, #8, #8
 800aeaa:	ebc5 0202 	rsb	r2, r5, r2
 800aeae:	bf48      	it	mi
 800aeb0:	b29b      	uxthmi	r3, r3
 800aeb2:	b292      	uxth	r2, r2
 800aeb4:	0c09      	lsrs	r1, r1, #16
 800aeb6:	fb13 f403 	smulbb	r4, r3, r3
 800aeba:	ebc1 4110 	rsb	r1, r1, r0, lsr #16
 800aebe:	b293      	uxth	r3, r2
 800aec0:	041d      	lsls	r5, r3, #16
 800aec2:	b289      	uxth	r1, r1
 800aec4:	b288      	uxth	r0, r1
 800aec6:	bf44      	itt	mi
 800aec8:	4253      	negmi	r3, r2
 800aeca:	b29b      	uxthmi	r3, r3
 800aecc:	0402      	lsls	r2, r0, #16
 800aece:	bf48      	it	mi
 800aed0:	4248      	negmi	r0, r1
 800aed2:	fb13 4303 	smlabb	r3, r3, r3, r4
 800aed6:	bf48      	it	mi
 800aed8:	b280      	uxthmi	r0, r0
 800aeda:	fb00 3000 	mla	r0, r0, r0, r3
 800aede:	bd30      	pop	{r4, r5, pc}

0800aee0 <__libc_init_array>:
 800aee0:	b570      	push	{r4, r5, r6, lr}
 800aee2:	4e0f      	ldr	r6, [pc, #60]	; (800af20 <__libc_init_array+0x40>)
 800aee4:	4d0f      	ldr	r5, [pc, #60]	; (800af24 <__libc_init_array+0x44>)
 800aee6:	1b76      	subs	r6, r6, r5
 800aee8:	10b6      	asrs	r6, r6, #2
 800aeea:	d007      	beq.n	800aefc <__libc_init_array+0x1c>
 800aeec:	3d04      	subs	r5, #4
 800aeee:	2400      	movs	r4, #0
 800aef0:	3401      	adds	r4, #1
 800aef2:	f855 3f04 	ldr.w	r3, [r5, #4]!
 800aef6:	4798      	blx	r3
 800aef8:	42a6      	cmp	r6, r4
 800aefa:	d1f9      	bne.n	800aef0 <__libc_init_array+0x10>
 800aefc:	4e0a      	ldr	r6, [pc, #40]	; (800af28 <__libc_init_array+0x48>)
 800aefe:	4d0b      	ldr	r5, [pc, #44]	; (800af2c <__libc_init_array+0x4c>)
 800af00:	1b76      	subs	r6, r6, r5
 800af02:	f000 f93b 	bl	800b17c <_init>
 800af06:	10b6      	asrs	r6, r6, #2
 800af08:	d008      	beq.n	800af1c <__libc_init_array+0x3c>
 800af0a:	3d04      	subs	r5, #4
 800af0c:	2400      	movs	r4, #0
 800af0e:	3401      	adds	r4, #1
 800af10:	f855 3f04 	ldr.w	r3, [r5, #4]!
 800af14:	4798      	blx	r3
 800af16:	42a6      	cmp	r6, r4
 800af18:	d1f9      	bne.n	800af0e <__libc_init_array+0x2e>
 800af1a:	bd70      	pop	{r4, r5, r6, pc}
 800af1c:	bd70      	pop	{r4, r5, r6, pc}
 800af1e:	bf00      	nop
 800af20:	0800e438 	.word	0x0800e438
 800af24:	0800e438 	.word	0x0800e438
 800af28:	0800e440 	.word	0x0800e440
 800af2c:	0800e438 	.word	0x0800e438

0800af30 <memmove>:
 800af30:	4288      	cmp	r0, r1
 800af32:	b4f0      	push	{r4, r5, r6, r7}
 800af34:	d910      	bls.n	800af58 <memmove+0x28>
 800af36:	188c      	adds	r4, r1, r2
 800af38:	42a0      	cmp	r0, r4
 800af3a:	d20d      	bcs.n	800af58 <memmove+0x28>
 800af3c:	1885      	adds	r5, r0, r2
 800af3e:	1e53      	subs	r3, r2, #1
 800af40:	b142      	cbz	r2, 800af54 <memmove+0x24>
 800af42:	4621      	mov	r1, r4
 800af44:	462a      	mov	r2, r5
 800af46:	f811 4d01 	ldrb.w	r4, [r1, #-1]!
 800af4a:	f802 4d01 	strb.w	r4, [r2, #-1]!
 800af4e:	3b01      	subs	r3, #1
 800af50:	1c5c      	adds	r4, r3, #1
 800af52:	d1f8      	bne.n	800af46 <memmove+0x16>
 800af54:	bcf0      	pop	{r4, r5, r6, r7}
 800af56:	4770      	bx	lr
 800af58:	2a0f      	cmp	r2, #15
 800af5a:	d93f      	bls.n	800afdc <memmove+0xac>
 800af5c:	ea40 0301 	orr.w	r3, r0, r1
 800af60:	079b      	lsls	r3, r3, #30
 800af62:	d13f      	bne.n	800afe4 <memmove+0xb4>
 800af64:	f1a2 0710 	sub.w	r7, r2, #16
 800af68:	093f      	lsrs	r7, r7, #4
 800af6a:	eb00 1607 	add.w	r6, r0, r7, lsl #4
 800af6e:	3610      	adds	r6, #16
 800af70:	460c      	mov	r4, r1
 800af72:	4603      	mov	r3, r0
 800af74:	6825      	ldr	r5, [r4, #0]
 800af76:	601d      	str	r5, [r3, #0]
 800af78:	6865      	ldr	r5, [r4, #4]
 800af7a:	605d      	str	r5, [r3, #4]
 800af7c:	68a5      	ldr	r5, [r4, #8]
 800af7e:	609d      	str	r5, [r3, #8]
 800af80:	68e5      	ldr	r5, [r4, #12]
 800af82:	60dd      	str	r5, [r3, #12]
 800af84:	3310      	adds	r3, #16
 800af86:	42b3      	cmp	r3, r6
 800af88:	f104 0410 	add.w	r4, r4, #16
 800af8c:	d1f2      	bne.n	800af74 <memmove+0x44>
 800af8e:	1c7b      	adds	r3, r7, #1
 800af90:	f002 0c0f 	and.w	ip, r2, #15
 800af94:	011b      	lsls	r3, r3, #4
 800af96:	f1bc 0f03 	cmp.w	ip, #3
 800af9a:	4419      	add	r1, r3
 800af9c:	4403      	add	r3, r0
 800af9e:	d923      	bls.n	800afe8 <memmove+0xb8>
 800afa0:	460e      	mov	r6, r1
 800afa2:	461d      	mov	r5, r3
 800afa4:	4664      	mov	r4, ip
 800afa6:	3c04      	subs	r4, #4
 800afa8:	f856 7b04 	ldr.w	r7, [r6], #4
 800afac:	f845 7b04 	str.w	r7, [r5], #4
 800afb0:	2c03      	cmp	r4, #3
 800afb2:	d8f8      	bhi.n	800afa6 <memmove+0x76>
 800afb4:	f1ac 0404 	sub.w	r4, ip, #4
 800afb8:	f024 0403 	bic.w	r4, r4, #3
 800afbc:	3404      	adds	r4, #4
 800afbe:	f002 0203 	and.w	r2, r2, #3
 800afc2:	4423      	add	r3, r4
 800afc4:	4421      	add	r1, r4
 800afc6:	2a00      	cmp	r2, #0
 800afc8:	d0c4      	beq.n	800af54 <memmove+0x24>
 800afca:	441a      	add	r2, r3
 800afcc:	f811 4b01 	ldrb.w	r4, [r1], #1
 800afd0:	f803 4b01 	strb.w	r4, [r3], #1
 800afd4:	4293      	cmp	r3, r2
 800afd6:	d1f9      	bne.n	800afcc <memmove+0x9c>
 800afd8:	bcf0      	pop	{r4, r5, r6, r7}
 800afda:	4770      	bx	lr
 800afdc:	4603      	mov	r3, r0
 800afde:	2a00      	cmp	r2, #0
 800afe0:	d1f3      	bne.n	800afca <memmove+0x9a>
 800afe2:	e7b7      	b.n	800af54 <memmove+0x24>
 800afe4:	4603      	mov	r3, r0
 800afe6:	e7f0      	b.n	800afca <memmove+0x9a>
 800afe8:	4662      	mov	r2, ip
 800afea:	2a00      	cmp	r2, #0
 800afec:	d1ed      	bne.n	800afca <memmove+0x9a>
 800afee:	e7b1      	b.n	800af54 <memmove+0x24>

0800aff0 <memset>:
 800aff0:	b4f0      	push	{r4, r5, r6, r7}
 800aff2:	0784      	lsls	r4, r0, #30
 800aff4:	d043      	beq.n	800b07e <memset+0x8e>
 800aff6:	1e54      	subs	r4, r2, #1
 800aff8:	2a00      	cmp	r2, #0
 800affa:	d03e      	beq.n	800b07a <memset+0x8a>
 800affc:	b2cd      	uxtb	r5, r1
 800affe:	4603      	mov	r3, r0
 800b000:	e003      	b.n	800b00a <memset+0x1a>
 800b002:	1e62      	subs	r2, r4, #1
 800b004:	2c00      	cmp	r4, #0
 800b006:	d038      	beq.n	800b07a <memset+0x8a>
 800b008:	4614      	mov	r4, r2
 800b00a:	f803 5b01 	strb.w	r5, [r3], #1
 800b00e:	079a      	lsls	r2, r3, #30
 800b010:	d1f7      	bne.n	800b002 <memset+0x12>
 800b012:	2c03      	cmp	r4, #3
 800b014:	d92a      	bls.n	800b06c <memset+0x7c>
 800b016:	b2cd      	uxtb	r5, r1
 800b018:	ea45 2505 	orr.w	r5, r5, r5, lsl #8
 800b01c:	2c0f      	cmp	r4, #15
 800b01e:	ea45 4505 	orr.w	r5, r5, r5, lsl #16
 800b022:	d915      	bls.n	800b050 <memset+0x60>
 800b024:	f1a4 0710 	sub.w	r7, r4, #16
 800b028:	093f      	lsrs	r7, r7, #4
 800b02a:	f103 0610 	add.w	r6, r3, #16
 800b02e:	eb06 1607 	add.w	r6, r6, r7, lsl #4
 800b032:	461a      	mov	r2, r3
 800b034:	6015      	str	r5, [r2, #0]
 800b036:	6055      	str	r5, [r2, #4]
 800b038:	6095      	str	r5, [r2, #8]
 800b03a:	60d5      	str	r5, [r2, #12]
 800b03c:	3210      	adds	r2, #16
 800b03e:	42b2      	cmp	r2, r6
 800b040:	d1f8      	bne.n	800b034 <memset+0x44>
 800b042:	f004 040f 	and.w	r4, r4, #15
 800b046:	3701      	adds	r7, #1
 800b048:	2c03      	cmp	r4, #3
 800b04a:	eb03 1307 	add.w	r3, r3, r7, lsl #4
 800b04e:	d90d      	bls.n	800b06c <memset+0x7c>
 800b050:	461e      	mov	r6, r3
 800b052:	4622      	mov	r2, r4
 800b054:	3a04      	subs	r2, #4
 800b056:	2a03      	cmp	r2, #3
 800b058:	f846 5b04 	str.w	r5, [r6], #4
 800b05c:	d8fa      	bhi.n	800b054 <memset+0x64>
 800b05e:	1f22      	subs	r2, r4, #4
 800b060:	f022 0203 	bic.w	r2, r2, #3
 800b064:	3204      	adds	r2, #4
 800b066:	4413      	add	r3, r2
 800b068:	f004 0403 	and.w	r4, r4, #3
 800b06c:	b12c      	cbz	r4, 800b07a <memset+0x8a>
 800b06e:	b2c9      	uxtb	r1, r1
 800b070:	441c      	add	r4, r3
 800b072:	f803 1b01 	strb.w	r1, [r3], #1
 800b076:	42a3      	cmp	r3, r4
 800b078:	d1fb      	bne.n	800b072 <memset+0x82>
 800b07a:	bcf0      	pop	{r4, r5, r6, r7}
 800b07c:	4770      	bx	lr
 800b07e:	4614      	mov	r4, r2
 800b080:	4603      	mov	r3, r0
 800b082:	e7c6      	b.n	800b012 <memset+0x22>

0800b084 <register_fini>:
 800b084:	4b02      	ldr	r3, [pc, #8]	; (800b090 <register_fini+0xc>)
 800b086:	b113      	cbz	r3, 800b08e <register_fini+0xa>
 800b088:	4802      	ldr	r0, [pc, #8]	; (800b094 <register_fini+0x10>)
 800b08a:	f000 b805 	b.w	800b098 <atexit>
 800b08e:	4770      	bx	lr
 800b090:	00000000 	.word	0x00000000
 800b094:	0800b0a5 	.word	0x0800b0a5

0800b098 <atexit>:
 800b098:	4601      	mov	r1, r0
 800b09a:	2000      	movs	r0, #0
 800b09c:	4602      	mov	r2, r0
 800b09e:	4603      	mov	r3, r0
 800b0a0:	f000 b818 	b.w	800b0d4 <__register_exitproc>

0800b0a4 <__libc_fini_array>:
 800b0a4:	b538      	push	{r3, r4, r5, lr}
 800b0a6:	4d09      	ldr	r5, [pc, #36]	; (800b0cc <__libc_fini_array+0x28>)
 800b0a8:	4c09      	ldr	r4, [pc, #36]	; (800b0d0 <__libc_fini_array+0x2c>)
 800b0aa:	1b64      	subs	r4, r4, r5
 800b0ac:	10a4      	asrs	r4, r4, #2
 800b0ae:	bf18      	it	ne
 800b0b0:	eb05 0584 	addne.w	r5, r5, r4, lsl #2
 800b0b4:	d005      	beq.n	800b0c2 <__libc_fini_array+0x1e>
 800b0b6:	3c01      	subs	r4, #1
 800b0b8:	f855 3d04 	ldr.w	r3, [r5, #-4]!
 800b0bc:	4798      	blx	r3
 800b0be:	2c00      	cmp	r4, #0
 800b0c0:	d1f9      	bne.n	800b0b6 <__libc_fini_array+0x12>
 800b0c2:	e8bd 4038 	ldmia.w	sp!, {r3, r4, r5, lr}
 800b0c6:	f000 b85f 	b.w	800b188 <_fini>
 800b0ca:	bf00      	nop
 800b0cc:	0800e440 	.word	0x0800e440
 800b0d0:	0800e444 	.word	0x0800e444

0800b0d4 <__register_exitproc>:
 800b0d4:	b5f0      	push	{r4, r5, r6, r7, lr}
 800b0d6:	4c27      	ldr	r4, [pc, #156]	; (800b174 <__register_exitproc+0xa0>)
 800b0d8:	6826      	ldr	r6, [r4, #0]
 800b0da:	f8d6 4148 	ldr.w	r4, [r6, #328]	; 0x148
 800b0de:	b085      	sub	sp, #20
 800b0e0:	4607      	mov	r7, r0
 800b0e2:	2c00      	cmp	r4, #0
 800b0e4:	d041      	beq.n	800b16a <__register_exitproc+0x96>
 800b0e6:	6865      	ldr	r5, [r4, #4]
 800b0e8:	2d1f      	cmp	r5, #31
 800b0ea:	dd1e      	ble.n	800b12a <__register_exitproc+0x56>
 800b0ec:	4822      	ldr	r0, [pc, #136]	; (800b178 <__register_exitproc+0xa4>)
 800b0ee:	b918      	cbnz	r0, 800b0f8 <__register_exitproc+0x24>
 800b0f0:	f04f 30ff 	mov.w	r0, #4294967295
 800b0f4:	b005      	add	sp, #20
 800b0f6:	bdf0      	pop	{r4, r5, r6, r7, pc}
 800b0f8:	f44f 70c8 	mov.w	r0, #400	; 0x190
 800b0fc:	9103      	str	r1, [sp, #12]
 800b0fe:	9202      	str	r2, [sp, #8]
 800b100:	9301      	str	r3, [sp, #4]
 800b102:	f3af 8000 	nop.w
 800b106:	9903      	ldr	r1, [sp, #12]
 800b108:	9a02      	ldr	r2, [sp, #8]
 800b10a:	9b01      	ldr	r3, [sp, #4]
 800b10c:	4604      	mov	r4, r0
 800b10e:	2800      	cmp	r0, #0
 800b110:	d0ee      	beq.n	800b0f0 <__register_exitproc+0x1c>
 800b112:	f8d6 5148 	ldr.w	r5, [r6, #328]	; 0x148
 800b116:	6025      	str	r5, [r4, #0]
 800b118:	2000      	movs	r0, #0
 800b11a:	6060      	str	r0, [r4, #4]
 800b11c:	4605      	mov	r5, r0
 800b11e:	f8c6 4148 	str.w	r4, [r6, #328]	; 0x148
 800b122:	f8c4 0188 	str.w	r0, [r4, #392]	; 0x188
 800b126:	f8c4 018c 	str.w	r0, [r4, #396]	; 0x18c
 800b12a:	b93f      	cbnz	r7, 800b13c <__register_exitproc+0x68>
 800b12c:	1cab      	adds	r3, r5, #2
 800b12e:	2000      	movs	r0, #0
 800b130:	3501      	adds	r5, #1
 800b132:	6065      	str	r5, [r4, #4]
 800b134:	f844 1023 	str.w	r1, [r4, r3, lsl #2]
 800b138:	b005      	add	sp, #20
 800b13a:	bdf0      	pop	{r4, r5, r6, r7, pc}
 800b13c:	eb04 0085 	add.w	r0, r4, r5, lsl #2
 800b140:	f04f 0c01 	mov.w	ip, #1
 800b144:	f8c0 2088 	str.w	r2, [r0, #136]	; 0x88
 800b148:	f8d4 6188 	ldr.w	r6, [r4, #392]	; 0x188
 800b14c:	fa0c f205 	lsl.w	r2, ip, r5
 800b150:	4316      	orrs	r6, r2
 800b152:	2f02      	cmp	r7, #2
 800b154:	f8c4 6188 	str.w	r6, [r4, #392]	; 0x188
 800b158:	f8c0 3108 	str.w	r3, [r0, #264]	; 0x108
 800b15c:	d1e6      	bne.n	800b12c <__register_exitproc+0x58>
 800b15e:	f8d4 318c 	ldr.w	r3, [r4, #396]	; 0x18c
 800b162:	431a      	orrs	r2, r3
 800b164:	f8c4 218c 	str.w	r2, [r4, #396]	; 0x18c
 800b168:	e7e0      	b.n	800b12c <__register_exitproc+0x58>
 800b16a:	f506 74a6 	add.w	r4, r6, #332	; 0x14c
 800b16e:	f8c6 4148 	str.w	r4, [r6, #328]	; 0x148
 800b172:	e7b8      	b.n	800b0e6 <__register_exitproc+0x12>
 800b174:	0800e42c 	.word	0x0800e42c
 800b178:	00000000 	.word	0x00000000

0800b17c <_init>:
 800b17c:	b5f8      	push	{r3, r4, r5, r6, r7, lr}
 800b17e:	bf00      	nop
 800b180:	bcf8      	pop	{r3, r4, r5, r6, r7}
 800b182:	bc08      	pop	{r3}
 800b184:	469e      	mov	lr, r3
 800b186:	4770      	bx	lr

0800b188 <_fini>:
 800b188:	b5f8      	push	{r3, r4, r5, r6, r7, lr}
 800b18a:	bf00      	nop
 800b18c:	bcf8      	pop	{r3, r4, r5, r6, r7}
 800b18e:	bc08      	pop	{r3}
 800b190:	469e      	mov	lr, r3
 800b192:	4770      	bx	lr
 800b194:	0000      	movs	r0, r0
	...
